---
triple:          'arm64-apple-darwin'
binary-path:     '/Users/davidmontgomery/coding/entity-project/CrystalAgent/crystal-toe/target/debug/deps/libcrystal_toe.dylib'
relocations:
  - { offset: 0x1E, size: 0x8, addend: 0x0, symName: __RINvNtCs7dfkhshTrE4_4core5slice20copy_from_slice_implINtNtB4_6option6OptionINtNtCsinFlhxATJYn_4pyo38instance8BorrowedNtNtNtB1g_5types3any5PyAnyEEECs1NyPVrLiP35_11crystal_toe, symObjAddr: 0x0, symBinAddr: 0x888, symSize: 0xAC }
  - { offset: 0x10D, size: 0x8, addend: 0x0, symName: __RNvMNtCs7dfkhshTrE4_4core5sliceSRe8is_emptyCs1NyPVrLiP35_11crystal_toe, symObjAddr: 0xAC, symBinAddr: 0x934, symSize: 0x1C }
  - { offset: 0x143, size: 0x8, addend: 0x0, symName: __RINvNtCs7dfkhshTrE4_4core5slice20copy_from_slice_implINtNtB4_6option6OptionINtNtCsinFlhxATJYn_4pyo38instance8BorrowedNtNtNtB1g_5types3any5PyAnyEEECs1NyPVrLiP35_11crystal_toe, symObjAddr: 0x0, symBinAddr: 0x888, symSize: 0xAC }
  - { offset: 0x5B2, size: 0x8, addend: 0x0, symName: __RNvMs3_NtCs2iVXuAemrgm_5alloc7raw_vecINtB5_6RawVecNtNtCs1NyPVrLiP35_11crystal_toe5tower10TowerLayerE8grow_oneBQ_, symObjAddr: 0x0, symBinAddr: 0x950, symSize: 0x88 }
  - { offset: 0xC36, size: 0x8, addend: 0x0, symName: __RNvMs3_NtCs2iVXuAemrgm_5alloc7raw_vecINtB5_6RawVecNtNtCs1NyPVrLiP35_11crystal_toe5tower10TowerLayerE8grow_oneBQ_, symObjAddr: 0x0, symBinAddr: 0x950, symSize: 0x88 }
  - { offset: 0xCE6, size: 0x8, addend: 0x0, symName: __RNvMs3_NtCs2iVXuAemrgm_5alloc7raw_vecINtB5_6RawVecReE8grow_oneCs1NyPVrLiP35_11crystal_toe, symObjAddr: 0x88, symBinAddr: 0x9D8, symSize: 0x88 }
  - { offset: 0xD6F, size: 0x8, addend: 0x0, symName: __RNvMs1H_NtNtCs7dfkhshTrE4_4core4sync6atomicNtB6_11AtomicUsize3newCs1NyPVrLiP35_11crystal_toe, symObjAddr: 0x0, symBinAddr: 0xA60, symSize: 0x18 }
  - { offset: 0xDE4, size: 0x8, addend: 0x0, symName: __RNvMs1H_NtNtCs7dfkhshTrE4_4core4sync6atomicNtB6_11AtomicUsize3newCs1NyPVrLiP35_11crystal_toe, symObjAddr: 0x0, symBinAddr: 0xA60, symSize: 0x18 }
  - { offset: 0x1011, size: 0x8, addend: 0x0, symName: __RNvXs_NtNtNtCs7dfkhshTrE4_4core5array4iter10iter_innerAINtNtNtBa_3mem12maybe_uninit11MaybeUninitINtNtCsinFlhxATJYn_4pyo38instance5BoundNtNtNtB1B_5types3any5PyAnyEEj4_NtB4_11PartialDrop12partial_dropCs1NyPVrLiP35_11crystal_toe, symObjAddr: 0x58, symBinAddr: 0xA78, symSize: 0x4C }
  - { offset: 0x12BA, size: 0x8, addend: 0x0, symName: __RINvXs26_NtNtNtCs7dfkhshTrE4_4core4iter6traits5accumdNtB7_3Sum3sumINtNtNtBb_8adapters3map3MapINtNtB17_9enumerate9EnumerateINtNtNtBd_5slice4iter4IterNtNtCs1NyPVrLiP35_11crystal_toe5atoms6SectorEENCNvMNtB2q_5monadNtB3b_12AlgebraState12total_weight0EEB2q_, symObjAddr: 0x0, symBinAddr: 0xAC4, symSize: 0x1C }
  - { offset: 0x13CD, size: 0x8, addend: 0x0, symName: __RINvXs26_NtNtNtCs7dfkhshTrE4_4core4iter6traits5accumdNtB7_3Sum3sumINtNtNtBb_8adapters3map3MapINtNtB17_9enumerate9EnumerateINtNtNtBd_5slice4iter4IterNtNtCs1NyPVrLiP35_11crystal_toe5atoms6SectorEENCNvMNtB2q_5monadNtB3b_12AlgebraState12total_weight0EEB2q_, symObjAddr: 0x0, symBinAddr: 0xAC4, symSize: 0x1C }
  - { offset: 0x1403, size: 0x8, addend: 0x0, symName: __RINvXs26_NtNtNtCs7dfkhshTrE4_4core4iter6traits5accumdNtB7_3Sum3sumINtNtNtBb_8adapters3map3MapINtNtB17_9enumerate9EnumerateINtNtNtBd_5slice4iter4IterNtNtCs1NyPVrLiP35_11crystal_toe5atoms6SectorEENCNvMNtB2q_5monadNtB3b_12AlgebraState7entropy0EEB2q_, symObjAddr: 0x1C, symBinAddr: 0xAE0, symSize: 0x1C }
  - { offset: 0x143E, size: 0x8, addend: 0x0, symName: __RNCINvXs26_NtNtNtCs7dfkhshTrE4_4core4iter6traits5accumdNtB9_3Sum3sumINtNtNtBd_8adapters3map3MapINtNtB19_9enumerate9EnumerateINtNtNtBf_5slice4iter4IterNtNtCs1NyPVrLiP35_11crystal_toe5atoms6SectorEENCNvMNtB2s_5monadNtB3d_12AlgebraState12total_weight0EE0B2s_, symObjAddr: 0x68, symBinAddr: 0xB2C, symSize: 0x1C }
  - { offset: 0x148B, size: 0x8, addend: 0x0, symName: __RNCINvXs26_NtNtNtCs7dfkhshTrE4_4core4iter6traits5accumdNtB9_3Sum3sumINtNtNtBd_8adapters3map3MapINtNtB19_9enumerate9EnumerateINtNtNtBf_5slice4iter4IterNtNtCs1NyPVrLiP35_11crystal_toe5atoms6SectorEENCNvMNtB2s_5monadNtB3d_12AlgebraState7entropy0EE0B2s_, symObjAddr: 0x84, symBinAddr: 0xB48, symSize: 0x1C }
  - { offset: 0x14ED, size: 0x8, addend: 0x0, symName: __RINvXsK_NtNtNtCs7dfkhshTrE4_4core4iter6traits5accumjNtB6_3Sum3sumINtNtNtBa_8adapters3map3MapINtNtNtBc_5slice4iter4IterNtNtCs1NyPVrLiP35_11crystal_toe12cross_domain10CrossTraceENCNvB1U_13n_cross_links0EEB1W_, symObjAddr: 0x38, symBinAddr: 0xAFC, symSize: 0x30 }
  - { offset: 0x1527, size: 0x8, addend: 0x0, symName: __RNCINvXsK_NtNtNtCs7dfkhshTrE4_4core4iter6traits5accumjNtB8_3Sum3sumINtNtNtBc_8adapters3map3MapINtNtNtBe_5slice4iter4IterNtNtCs1NyPVrLiP35_11crystal_toe12cross_domain10CrossTraceENCNvB1W_13n_cross_links0EE0B1Y_, symObjAddr: 0xA0, symBinAddr: 0xB64, symSize: 0x48 }
  - { offset: 0x184A, size: 0x8, addend: 0x0, symName: __RINvMs3_NtCsinFlhxATJYn_4pyo34syncINtB6_11GILOnceCellINtNtCs2iVXuAemrgm_5alloc6borrow3CowNtNtNtCs7dfkhshTrE4_4core3ffi5c_str4CStrEE15get_or_try_initNCNvXs10_NtCs1NyPVrLiP35_11crystal_toe2pyNtB2v_8PyMixingNtNtNtB8_5impl_7pyclass11PyClassImpl3doc0NtNtB8_3err5PyErrEB2x_, symObjAddr: 0x0, symBinAddr: 0xBAC, symSize: 0xB4 }
  - { offset: 0x28D9, size: 0x8, addend: 0x0, symName: __RNCNvMs3_NtCsinFlhxATJYn_4pyo34syncINtB7_11GILOnceCellINtNtCs2iVXuAemrgm_5alloc6borrow3CowNtNtNtCs7dfkhshTrE4_4core3ffi5c_str4CStrEE3set0Cs1NyPVrLiP35_11crystal_toe, symObjAddr: 0x4F28, symBinAddr: 0x2394, symSize: 0x110 }
  - { offset: 0x38FC, size: 0x8, addend: 0x0, symName: __RINvMs3_NtCsinFlhxATJYn_4pyo34syncINtB6_11GILOnceCellINtNtCs2iVXuAemrgm_5alloc6borrow3CowNtNtNtCs7dfkhshTrE4_4core3ffi5c_str4CStrEE15get_or_try_initNCNvXs10_NtCs1NyPVrLiP35_11crystal_toe2pyNtB2v_8PyMixingNtNtNtB8_5impl_7pyclass11PyClassImpl3doc0NtNtB8_3err5PyErrEB2x_, symObjAddr: 0x0, symBinAddr: 0xBAC, symSize: 0xB4 }
  - { offset: 0x3975, size: 0x8, addend: 0x0, symName: __RINvMs3_NtCsinFlhxATJYn_4pyo34syncINtB6_11GILOnceCellINtNtCs2iVXuAemrgm_5alloc6borrow3CowNtNtNtCs7dfkhshTrE4_4core3ffi5c_str4CStrEE15get_or_try_initNCNvXs1G_NtCs1NyPVrLiP35_11crystal_toe2pyNtB2v_9PyProteinNtNtNtB8_5impl_7pyclass11PyClassImpl3doc0NtNtB8_3err5PyErrEB2x_, symObjAddr: 0xB4, symBinAddr: 0xC60, symSize: 0xB4 }
  - { offset: 0x39EE, size: 0x8, addend: 0x0, symName: __RINvMs3_NtCsinFlhxATJYn_4pyo34syncINtB6_11GILOnceCellINtNtCs2iVXuAemrgm_5alloc6borrow3CowNtNtNtCs7dfkhshTrE4_4core3ffi5c_str4CStrEE15get_or_try_initNCNvXs1U_NtCs1NyPVrLiP35_11crystal_toe2pyNtB2v_13PyCrossDomainNtNtNtB8_5impl_7pyclass11PyClassImpl3doc0NtNtB8_3err5PyErrEB2x_, symObjAddr: 0x168, symBinAddr: 0xD14, symSize: 0xB4 }
  - { offset: 0x3A67, size: 0x8, addend: 0x0, symName: __RINvMs3_NtCsinFlhxATJYn_4pyo34syncINtB6_11GILOnceCellINtNtCs2iVXuAemrgm_5alloc6borrow3CowNtNtNtCs7dfkhshTrE4_4core3ffi5c_str4CStrEE15get_or_try_initNCNvXs1e_NtCs1NyPVrLiP35_11crystal_toe2pyNtB2v_13PyAlphaProtonNtNtNtB8_5impl_7pyclass11PyClassImpl3doc0NtNtB8_3err5PyErrEB2x_, symObjAddr: 0x21C, symBinAddr: 0xDC8, symSize: 0xB4 }
  - { offset: 0x3AE0, size: 0x8, addend: 0x0, symName: __RINvMs3_NtCsinFlhxATJYn_4pyo34syncINtB6_11GILOnceCellINtNtCs2iVXuAemrgm_5alloc6borrow3CowNtNtNtCs7dfkhshTrE4_4core3ffi5c_str4CStrEE15get_or_try_initNCNvXs1s_NtCs1NyPVrLiP35_11crystal_toe2pyNtB2v_9PyGravityNtNtNtB8_5impl_7pyclass11PyClassImpl3doc0NtNtB8_3err5PyErrEB2x_, symObjAddr: 0x2D0, symBinAddr: 0xE7C, symSize: 0xB4 }
  - { offset: 0x3B59, size: 0x8, addend: 0x0, symName: __RINvMs3_NtCsinFlhxATJYn_4pyo34syncINtB6_11GILOnceCellINtNtCs2iVXuAemrgm_5alloc6borrow3CowNtNtNtCs7dfkhshTrE4_4core3ffi5c_str4CStrEE15get_or_try_initNCNvXs28_NtCs1NyPVrLiP35_11crystal_toe2pyNtB2v_7PyTruthNtNtNtB8_5impl_7pyclass11PyClassImpl3doc0NtNtB8_3err5PyErrEB2x_, symObjAddr: 0x384, symBinAddr: 0xF30, symSize: 0xB4 }
  - { offset: 0x3BD2, size: 0x8, addend: 0x0, symName: __RINvMs3_NtCsinFlhxATJYn_4pyo34syncINtB6_11GILOnceCellINtNtCs2iVXuAemrgm_5alloc6borrow3CowNtNtNtCs7dfkhshTrE4_4core3ffi5c_str4CStrEE15get_or_try_initNCNvXs2D_NtCs1NyPVrLiP35_11crystal_toe2pyNtB2v_11PyHierarchyNtNtNtB8_5impl_7pyclass11PyClassImpl3doc0NtNtB8_3err5PyErrEB2x_, symObjAddr: 0x438, symBinAddr: 0xFE4, symSize: 0xB4 }
  - { offset: 0x3C4B, size: 0x8, addend: 0x0, symName: __RINvMs3_NtCsinFlhxATJYn_4pyo34syncINtB6_11GILOnceCellINtNtCs2iVXuAemrgm_5alloc6borrow3CowNtNtNtCs7dfkhshTrE4_4core3ffi5c_str4CStrEE15get_or_try_initNCNvXs2R_NtCs1NyPVrLiP35_11crystal_toe2pyNtB2v_14PyAlgebraStateNtNtNtB8_5impl_7pyclass11PyClassImpl3doc0NtNtB8_3err5PyErrEB2x_, symObjAddr: 0x4EC, symBinAddr: 0x1098, symSize: 0xB4 }
  - { offset: 0x3CC4, size: 0x8, addend: 0x0, symName: __RINvMs3_NtCsinFlhxATJYn_4pyo34syncINtB6_11GILOnceCellINtNtCs2iVXuAemrgm_5alloc6borrow3CowNtNtNtCs7dfkhshTrE4_4core3ffi5c_str4CStrEE15get_or_try_initNCNvXs2p_NtCs1NyPVrLiP35_11crystal_toe2pyNtB2v_7PyTowerNtNtNtB8_5impl_7pyclass11PyClassImpl3doc0NtNtB8_3err5PyErrEB2x_, symObjAddr: 0x5A0, symBinAddr: 0x114C, symSize: 0xB4 }
  - { offset: 0x3D3D, size: 0x8, addend: 0x0, symName: __RINvMs3_NtCsinFlhxATJYn_4pyo34syncINtB6_11GILOnceCellINtNtCs2iVXuAemrgm_5alloc6borrow3CowNtNtNtCs7dfkhshTrE4_4core3ffi5c_str4CStrEE15get_or_try_initNCNvXs36_NtCs1NyPVrLiP35_11crystal_toe2pyNtB2v_11PyClassicalNtNtNtB8_5impl_7pyclass11PyClassImpl3doc0NtNtB8_3err5PyErrEB2x_, symObjAddr: 0x654, symBinAddr: 0x1200, symSize: 0xB4 }
  - { offset: 0x3DB6, size: 0x8, addend: 0x0, symName: __RINvMs3_NtCsinFlhxATJYn_4pyo34syncINtB6_11GILOnceCellINtNtCs2iVXuAemrgm_5alloc6borrow3CowNtNtNtCs7dfkhshTrE4_4core3ffi5c_str4CStrEE15get_or_try_initNCNvXs3M_NtCs1NyPVrLiP35_11crystal_toe2pyNtB2v_4PyEMNtNtNtB8_5impl_7pyclass11PyClassImpl3doc0NtNtB8_3err5PyErrEB2x_, symObjAddr: 0x708, symBinAddr: 0x12B4, symSize: 0xB4 }
  - { offset: 0x3E2F, size: 0x8, addend: 0x0, symName: __RINvMs3_NtCsinFlhxATJYn_4pyo34syncINtB6_11GILOnceCellINtNtCs2iVXuAemrgm_5alloc6borrow3CowNtNtNtCs7dfkhshTrE4_4core3ffi5c_str4CStrEE15get_or_try_initNCNvXs3k_NtCs1NyPVrLiP35_11crystal_toe2pyNtB2v_4PyGRNtNtNtB8_5impl_7pyclass11PyClassImpl3doc0NtNtB8_3err5PyErrEB2x_, symObjAddr: 0x7BC, symBinAddr: 0x1368, symSize: 0xB4 }
  - { offset: 0x3EA8, size: 0x8, addend: 0x0, symName: __RINvMs3_NtCsinFlhxATJYn_4pyo34syncINtB6_11GILOnceCellINtNtCs2iVXuAemrgm_5alloc6borrow3CowNtNtNtCs7dfkhshTrE4_4core3ffi5c_str4CStrEE15get_or_try_initNCNvXs3y_NtCs1NyPVrLiP35_11crystal_toe2pyNtB2v_4PyGWNtNtNtB8_5impl_7pyclass11PyClassImpl3doc0NtNtB8_3err5PyErrEB2x_, symObjAddr: 0x870, symBinAddr: 0x141C, symSize: 0xB4 }
  - { offset: 0x3F21, size: 0x8, addend: 0x0, symName: __RINvMs3_NtCsinFlhxATJYn_4pyo34syncINtB6_11GILOnceCellINtNtCs2iVXuAemrgm_5alloc6borrow3CowNtNtNtCs7dfkhshTrE4_4core3ffi5c_str4CStrEE15get_or_try_initNCNvXs40_NtCs1NyPVrLiP35_11crystal_toe2pyNtB2v_11PyFriedmannNtNtNtB8_5impl_7pyclass11PyClassImpl3doc0NtNtB8_3err5PyErrEB2x_, symObjAddr: 0x924, symBinAddr: 0x14D0, symSize: 0xB4 }
  - { offset: 0x3F9A, size: 0x8, addend: 0x0, symName: __RINvMs3_NtCsinFlhxATJYn_4pyo34syncINtB6_11GILOnceCellINtNtCs2iVXuAemrgm_5alloc6borrow3CowNtNtNtCs7dfkhshTrE4_4core3ffi5c_str4CStrEE15get_or_try_initNCNvXs4G_NtCs1NyPVrLiP35_11crystal_toe2pyNtB2v_5PyCFDNtNtNtB8_5impl_7pyclass11PyClassImpl3doc0NtNtB8_3err5PyErrEB2x_, symObjAddr: 0x9D8, symBinAddr: 0x1584, symSize: 0xB4 }
  - { offset: 0x4013, size: 0x8, addend: 0x0, symName: __RINvMs3_NtCsinFlhxATJYn_4pyo34syncINtB6_11GILOnceCellINtNtCs2iVXuAemrgm_5alloc6borrow3CowNtNtNtCs7dfkhshTrE4_4core3ffi5c_str4CStrEE15get_or_try_initNCNvXs4U_NtCs1NyPVrLiP35_11crystal_toe2pyNtB2v_7PyDecayNtNtNtB8_5impl_7pyclass11PyClassImpl3doc0NtNtB8_3err5PyErrEB2x_, symObjAddr: 0xA8C, symBinAddr: 0x1638, symSize: 0xB4 }
  - { offset: 0x408C, size: 0x8, addend: 0x0, symName: __RINvMs3_NtCsinFlhxATJYn_4pyo34syncINtB6_11GILOnceCellINtNtCs2iVXuAemrgm_5alloc6borrow3CowNtNtNtCs7dfkhshTrE4_4core3ffi5c_str4CStrEE15get_or_try_initNCNvXs4e_NtCs1NyPVrLiP35_11crystal_toe2pyNtB2v_7PyNBodyNtNtNtB8_5impl_7pyclass11PyClassImpl3doc0NtNtB8_3err5PyErrEB2x_, symObjAddr: 0xB40, symBinAddr: 0x16EC, symSize: 0xB4 }
  - { offset: 0x4105, size: 0x8, addend: 0x0, symName: __RINvMs3_NtCsinFlhxATJYn_4pyo34syncINtB6_11GILOnceCellINtNtCs2iVXuAemrgm_5alloc6borrow3CowNtNtNtCs7dfkhshTrE4_4core3ffi5c_str4CStrEE15get_or_try_initNCNvXs4s_NtCs1NyPVrLiP35_11crystal_toe2pyNtB2v_8PyThermoNtNtNtB8_5impl_7pyclass11PyClassImpl3doc0NtNtB8_3err5PyErrEB2x_, symObjAddr: 0xBF4, symBinAddr: 0x17A0, symSize: 0xB4 }
  - { offset: 0x417E, size: 0x8, addend: 0x0, symName: __RINvMs3_NtCsinFlhxATJYn_4pyo34syncINtB6_11GILOnceCellINtNtCs2iVXuAemrgm_5alloc6borrow3CowNtNtNtCs7dfkhshTrE4_4core3ffi5c_str4CStrEE15get_or_try_initNCNvXs58_NtCs1NyPVrLiP35_11crystal_toe2pyNtB2v_8PyOpticsNtNtNtB8_5impl_7pyclass11PyClassImpl3doc0NtNtB8_3err5PyErrEB2x_, symObjAddr: 0xCA8, symBinAddr: 0x1854, symSize: 0xB4 }
  - { offset: 0x41F7, size: 0x8, addend: 0x0, symName: __RINvMs3_NtCsinFlhxATJYn_4pyo34syncINtB6_11GILOnceCellINtNtCs2iVXuAemrgm_5alloc6borrow3CowNtNtNtCs7dfkhshTrE4_4core3ffi5c_str4CStrEE15get_or_try_initNCNvXs5A_NtCs1NyPVrLiP35_11crystal_toe2pyNtB2v_11PyCondensedNtNtNtB8_5impl_7pyclass11PyClassImpl3doc0NtNtB8_3err5PyErrEB2x_, symObjAddr: 0xD5C, symBinAddr: 0x1908, symSize: 0xB4 }
  - { offset: 0x4270, size: 0x8, addend: 0x0, symName: __RINvMs3_NtCsinFlhxATJYn_4pyo34syncINtB6_11GILOnceCellINtNtCs2iVXuAemrgm_5alloc6borrow3CowNtNtNtCs7dfkhshTrE4_4core3ffi5c_str4CStrEE15get_or_try_initNCNvXs5O_NtCs1NyPVrLiP35_11crystal_toe2pyNtB2v_8PyPlasmaNtNtNtB8_5impl_7pyclass11PyClassImpl3doc0NtNtB8_3err5PyErrEB2x_, symObjAddr: 0xE10, symBinAddr: 0x19BC, symSize: 0xB4 }
  - { offset: 0x42E9, size: 0x8, addend: 0x0, symName: __RINvMs3_NtCsinFlhxATJYn_4pyo34syncINtB6_11GILOnceCellINtNtCs2iVXuAemrgm_5alloc6borrow3CowNtNtNtCs7dfkhshTrE4_4core3ffi5c_str4CStrEE15get_or_try_initNCNvXs5_NtCs1NyPVrLiP35_11crystal_toe2pyNtB2u_5PyToeNtNtNtB8_5impl_7pyclass11PyClassImpl3doc0NtNtB8_3err5PyErrEB2w_, symObjAddr: 0xEC4, symBinAddr: 0x1A70, symSize: 0xB4 }
  - { offset: 0x4362, size: 0x8, addend: 0x0, symName: __RINvMs3_NtCsinFlhxATJYn_4pyo34syncINtB6_11GILOnceCellINtNtCs2iVXuAemrgm_5alloc6borrow3CowNtNtNtCs7dfkhshTrE4_4core3ffi5c_str4CStrEE15get_or_try_initNCNvXs5m_NtCs1NyPVrLiP35_11crystal_toe2pyNtB2v_4PyMDNtNtNtB8_5impl_7pyclass11PyClassImpl3doc0NtNtB8_3err5PyErrEB2x_, symObjAddr: 0xF78, symBinAddr: 0x1B24, symSize: 0xB4 }
  - { offset: 0x43DB, size: 0x8, addend: 0x0, symName: __RINvMs3_NtCsinFlhxATJYn_4pyo34syncINtB6_11GILOnceCellINtNtCs2iVXuAemrgm_5alloc6borrow3CowNtNtNtCs7dfkhshTrE4_4core3ffi5c_str4CStrEE15get_or_try_initNCNvXs62_NtCs1NyPVrLiP35_11crystal_toe2pyNtB2v_5PyQFTNtNtNtB8_5impl_7pyclass11PyClassImpl3doc0NtNtB8_3err5PyErrEB2x_, symObjAddr: 0x102C, symBinAddr: 0x1BD8, symSize: 0xB4 }
  - { offset: 0x4454, size: 0x8, addend: 0x0, symName: __RINvMs3_NtCsinFlhxATJYn_4pyo34syncINtB6_11GILOnceCellINtNtCs2iVXuAemrgm_5alloc6borrow3CowNtNtNtCs7dfkhshTrE4_4core3ffi5c_str4CStrEE15get_or_try_initNCNvXs6I_NtCs1NyPVrLiP35_11crystal_toe2pyNtB2v_9PyNuclearNtNtNtB8_5impl_7pyclass11PyClassImpl3doc0NtNtB8_3err5PyErrEB2x_, symObjAddr: 0x10E0, symBinAddr: 0x1C8C, symSize: 0xB4 }
  - { offset: 0x44CD, size: 0x8, addend: 0x0, symName: __RINvMs3_NtCsinFlhxATJYn_4pyo34syncINtB6_11GILOnceCellINtNtCs2iVXuAemrgm_5alloc6borrow3CowNtNtNtCs7dfkhshTrE4_4core3ffi5c_str4CStrEE15get_or_try_initNCNvXs6W_NtCs1NyPVrLiP35_11crystal_toe2pyNtB2v_7PyAstroNtNtNtB8_5impl_7pyclass11PyClassImpl3doc0NtNtB8_3err5PyErrEB2x_, symObjAddr: 0x1194, symBinAddr: 0x1D40, symSize: 0xB4 }
  - { offset: 0x4546, size: 0x8, addend: 0x0, symName: __RINvMs3_NtCsinFlhxATJYn_4pyo34syncINtB6_11GILOnceCellINtNtCs2iVXuAemrgm_5alloc6borrow3CowNtNtNtCs7dfkhshTrE4_4core3ffi5c_str4CStrEE15get_or_try_initNCNvXs6g_NtCs1NyPVrLiP35_11crystal_toe2pyNtB2v_7PyRigidNtNtNtB8_5impl_7pyclass11PyClassImpl3doc0NtNtB8_3err5PyErrEB2x_, symObjAddr: 0x1248, symBinAddr: 0x1DF4, symSize: 0xB4 }
  - { offset: 0x45BF, size: 0x8, addend: 0x0, symName: __RINvMs3_NtCsinFlhxATJYn_4pyo34syncINtB6_11GILOnceCellINtNtCs2iVXuAemrgm_5alloc6borrow3CowNtNtNtCs7dfkhshTrE4_4core3ffi5c_str4CStrEE15get_or_try_initNCNvXs6u_NtCs1NyPVrLiP35_11crystal_toe2pyNtB2v_6PyChemNtNtNtB8_5impl_7pyclass11PyClassImpl3doc0NtNtB8_3err5PyErrEB2x_, symObjAddr: 0x12FC, symBinAddr: 0x1EA8, symSize: 0xB4 }
  - { offset: 0x4638, size: 0x8, addend: 0x0, symName: __RINvMs3_NtCsinFlhxATJYn_4pyo34syncINtB6_11GILOnceCellINtNtCs2iVXuAemrgm_5alloc6borrow3CowNtNtNtCs7dfkhshTrE4_4core3ffi5c_str4CStrEE15get_or_try_initNCNvXs7C_NtCs1NyPVrLiP35_11crystal_toe2pyNtB2v_8PyArcadeNtNtNtB8_5impl_7pyclass11PyClassImpl3doc0NtNtB8_3err5PyErrEB2x_, symObjAddr: 0x13B0, symBinAddr: 0x1F5C, symSize: 0xB4 }
  - { offset: 0x46B1, size: 0x8, addend: 0x0, symName: __RINvMs3_NtCsinFlhxATJYn_4pyo34syncINtB6_11GILOnceCellINtNtCs2iVXuAemrgm_5alloc6borrow3CowNtNtNtCs7dfkhshTrE4_4core3ffi5c_str4CStrEE15get_or_try_initNCNvXs7a_NtCs1NyPVrLiP35_11crystal_toe2pyNtB2v_7PyQInfoNtNtNtB8_5impl_7pyclass11PyClassImpl3doc0NtNtB8_3err5PyErrEB2x_, symObjAddr: 0x1464, symBinAddr: 0x2010, symSize: 0xB4 }
  - { offset: 0x472A, size: 0x8, addend: 0x0, symName: __RINvMs3_NtCsinFlhxATJYn_4pyo34syncINtB6_11GILOnceCellINtNtCs2iVXuAemrgm_5alloc6borrow3CowNtNtNtCs7dfkhshTrE4_4core3ffi5c_str4CStrEE15get_or_try_initNCNvXs7o_NtCs1NyPVrLiP35_11crystal_toe2pyNtB2v_5PyBioNtNtNtB8_5impl_7pyclass11PyClassImpl3doc0NtNtB8_3err5PyErrEB2x_, symObjAddr: 0x1518, symBinAddr: 0x20C4, symSize: 0xB4 }
  - { offset: 0x47A3, size: 0x8, addend: 0x0, symName: __RINvMs3_NtCsinFlhxATJYn_4pyo34syncINtB6_11GILOnceCellINtNtCs2iVXuAemrgm_5alloc6borrow3CowNtNtNtCs7dfkhshTrE4_4core3ffi5c_str4CStrEE15get_or_try_initNCNvXsM_NtCs1NyPVrLiP35_11crystal_toe2pyNtB2u_7PyCosmoNtNtNtB8_5impl_7pyclass11PyClassImpl3doc0NtNtB8_3err5PyErrEB2w_, symObjAddr: 0x15CC, symBinAddr: 0x2178, symSize: 0xB4 }
  - { offset: 0x481C, size: 0x8, addend: 0x0, symName: __RINvMs3_NtCsinFlhxATJYn_4pyo34syncINtB6_11GILOnceCellINtNtCs2iVXuAemrgm_5alloc6borrow3CowNtNtNtCs7dfkhshTrE4_4core3ffi5c_str4CStrEE15get_or_try_initNCNvXsk_NtCs1NyPVrLiP35_11crystal_toe2pyNtB2u_7PyGaugeNtNtNtB8_5impl_7pyclass11PyClassImpl3doc0NtNtB8_3err5PyErrEB2w_, symObjAddr: 0x1680, symBinAddr: 0x222C, symSize: 0xB4 }
  - { offset: 0x4895, size: 0x8, addend: 0x0, symName: __RINvMs3_NtCsinFlhxATJYn_4pyo34syncINtB6_11GILOnceCellINtNtCs2iVXuAemrgm_5alloc6borrow3CowNtNtNtCs7dfkhshTrE4_4core3ffi5c_str4CStrEE15get_or_try_initNCNvXsy_NtCs1NyPVrLiP35_11crystal_toe2pyNtB2u_5PyQCDNtNtNtB8_5impl_7pyclass11PyClassImpl3doc0NtNtB8_3err5PyErrEB2w_, symObjAddr: 0x1734, symBinAddr: 0x22E0, symSize: 0xB4 }
  - { offset: 0x4982, size: 0x8, addend: 0x0, symName: __RINvMs3_NtCsinFlhxATJYn_4pyo34syncINtB6_11GILOnceCellINtNtCs2iVXuAemrgm_5alloc6borrow3CowNtNtNtCs7dfkhshTrE4_4core3ffi5c_str4CStrEE4initNCNvXs10_NtCs1NyPVrLiP35_11crystal_toe2pyNtB2j_8PyMixingNtNtNtB8_5impl_7pyclass11PyClassImpl3doc0NtNtB8_3err5PyErrEB2l_, symObjAddr: 0x17E8, symBinAddr: 0xF7A90, symSize: 0x1A0 }
  - { offset: 0x4A59, size: 0x8, addend: 0x0, symName: __RINvMs3_NtCsinFlhxATJYn_4pyo34syncINtB6_11GILOnceCellINtNtCs2iVXuAemrgm_5alloc6borrow3CowNtNtNtCs7dfkhshTrE4_4core3ffi5c_str4CStrEE4initNCNvXs1G_NtCs1NyPVrLiP35_11crystal_toe2pyNtB2j_9PyProteinNtNtNtB8_5impl_7pyclass11PyClassImpl3doc0NtNtB8_3err5PyErrEB2l_, symObjAddr: 0x1988, symBinAddr: 0xF7C30, symSize: 0x1A0 }
  - { offset: 0x4B30, size: 0x8, addend: 0x0, symName: __RINvMs3_NtCsinFlhxATJYn_4pyo34syncINtB6_11GILOnceCellINtNtCs2iVXuAemrgm_5alloc6borrow3CowNtNtNtCs7dfkhshTrE4_4core3ffi5c_str4CStrEE4initNCNvXs1U_NtCs1NyPVrLiP35_11crystal_toe2pyNtB2j_13PyCrossDomainNtNtNtB8_5impl_7pyclass11PyClassImpl3doc0NtNtB8_3err5PyErrEB2l_, symObjAddr: 0x1B28, symBinAddr: 0xF7DD0, symSize: 0x1A0 }
  - { offset: 0x4C07, size: 0x8, addend: 0x0, symName: __RINvMs3_NtCsinFlhxATJYn_4pyo34syncINtB6_11GILOnceCellINtNtCs2iVXuAemrgm_5alloc6borrow3CowNtNtNtCs7dfkhshTrE4_4core3ffi5c_str4CStrEE4initNCNvXs1e_NtCs1NyPVrLiP35_11crystal_toe2pyNtB2j_13PyAlphaProtonNtNtNtB8_5impl_7pyclass11PyClassImpl3doc0NtNtB8_3err5PyErrEB2l_, symObjAddr: 0x1CC8, symBinAddr: 0xF7F70, symSize: 0x1A0 }
  - { offset: 0x4CDE, size: 0x8, addend: 0x0, symName: __RINvMs3_NtCsinFlhxATJYn_4pyo34syncINtB6_11GILOnceCellINtNtCs2iVXuAemrgm_5alloc6borrow3CowNtNtNtCs7dfkhshTrE4_4core3ffi5c_str4CStrEE4initNCNvXs1s_NtCs1NyPVrLiP35_11crystal_toe2pyNtB2j_9PyGravityNtNtNtB8_5impl_7pyclass11PyClassImpl3doc0NtNtB8_3err5PyErrEB2l_, symObjAddr: 0x1E68, symBinAddr: 0xF8110, symSize: 0x1A0 }
  - { offset: 0x4DB5, size: 0x8, addend: 0x0, symName: __RINvMs3_NtCsinFlhxATJYn_4pyo34syncINtB6_11GILOnceCellINtNtCs2iVXuAemrgm_5alloc6borrow3CowNtNtNtCs7dfkhshTrE4_4core3ffi5c_str4CStrEE4initNCNvXs28_NtCs1NyPVrLiP35_11crystal_toe2pyNtB2j_7PyTruthNtNtNtB8_5impl_7pyclass11PyClassImpl3doc0NtNtB8_3err5PyErrEB2l_, symObjAddr: 0x2008, symBinAddr: 0xF82B0, symSize: 0x1A0 }
  - { offset: 0x4E8C, size: 0x8, addend: 0x0, symName: __RINvMs3_NtCsinFlhxATJYn_4pyo34syncINtB6_11GILOnceCellINtNtCs2iVXuAemrgm_5alloc6borrow3CowNtNtNtCs7dfkhshTrE4_4core3ffi5c_str4CStrEE4initNCNvXs2D_NtCs1NyPVrLiP35_11crystal_toe2pyNtB2j_11PyHierarchyNtNtNtB8_5impl_7pyclass11PyClassImpl3doc0NtNtB8_3err5PyErrEB2l_, symObjAddr: 0x21A8, symBinAddr: 0xF8450, symSize: 0x1A0 }
  - { offset: 0x4F63, size: 0x8, addend: 0x0, symName: __RINvMs3_NtCsinFlhxATJYn_4pyo34syncINtB6_11GILOnceCellINtNtCs2iVXuAemrgm_5alloc6borrow3CowNtNtNtCs7dfkhshTrE4_4core3ffi5c_str4CStrEE4initNCNvXs2R_NtCs1NyPVrLiP35_11crystal_toe2pyNtB2j_14PyAlgebraStateNtNtNtB8_5impl_7pyclass11PyClassImpl3doc0NtNtB8_3err5PyErrEB2l_, symObjAddr: 0x2348, symBinAddr: 0xF85F0, symSize: 0x1A0 }
  - { offset: 0x503A, size: 0x8, addend: 0x0, symName: __RINvMs3_NtCsinFlhxATJYn_4pyo34syncINtB6_11GILOnceCellINtNtCs2iVXuAemrgm_5alloc6borrow3CowNtNtNtCs7dfkhshTrE4_4core3ffi5c_str4CStrEE4initNCNvXs2p_NtCs1NyPVrLiP35_11crystal_toe2pyNtB2j_7PyTowerNtNtNtB8_5impl_7pyclass11PyClassImpl3doc0NtNtB8_3err5PyErrEB2l_, symObjAddr: 0x24E8, symBinAddr: 0xF8790, symSize: 0x1A0 }
  - { offset: 0x5111, size: 0x8, addend: 0x0, symName: __RINvMs3_NtCsinFlhxATJYn_4pyo34syncINtB6_11GILOnceCellINtNtCs2iVXuAemrgm_5alloc6borrow3CowNtNtNtCs7dfkhshTrE4_4core3ffi5c_str4CStrEE4initNCNvXs36_NtCs1NyPVrLiP35_11crystal_toe2pyNtB2j_11PyClassicalNtNtNtB8_5impl_7pyclass11PyClassImpl3doc0NtNtB8_3err5PyErrEB2l_, symObjAddr: 0x2688, symBinAddr: 0xF8930, symSize: 0x1A0 }
  - { offset: 0x51E8, size: 0x8, addend: 0x0, symName: __RINvMs3_NtCsinFlhxATJYn_4pyo34syncINtB6_11GILOnceCellINtNtCs2iVXuAemrgm_5alloc6borrow3CowNtNtNtCs7dfkhshTrE4_4core3ffi5c_str4CStrEE4initNCNvXs3M_NtCs1NyPVrLiP35_11crystal_toe2pyNtB2j_4PyEMNtNtNtB8_5impl_7pyclass11PyClassImpl3doc0NtNtB8_3err5PyErrEB2l_, symObjAddr: 0x2828, symBinAddr: 0xF8AD0, symSize: 0x1A0 }
  - { offset: 0x52BF, size: 0x8, addend: 0x0, symName: __RINvMs3_NtCsinFlhxATJYn_4pyo34syncINtB6_11GILOnceCellINtNtCs2iVXuAemrgm_5alloc6borrow3CowNtNtNtCs7dfkhshTrE4_4core3ffi5c_str4CStrEE4initNCNvXs3k_NtCs1NyPVrLiP35_11crystal_toe2pyNtB2j_4PyGRNtNtNtB8_5impl_7pyclass11PyClassImpl3doc0NtNtB8_3err5PyErrEB2l_, symObjAddr: 0x29C8, symBinAddr: 0xF8C70, symSize: 0x1A0 }
  - { offset: 0x5396, size: 0x8, addend: 0x0, symName: __RINvMs3_NtCsinFlhxATJYn_4pyo34syncINtB6_11GILOnceCellINtNtCs2iVXuAemrgm_5alloc6borrow3CowNtNtNtCs7dfkhshTrE4_4core3ffi5c_str4CStrEE4initNCNvXs3y_NtCs1NyPVrLiP35_11crystal_toe2pyNtB2j_4PyGWNtNtNtB8_5impl_7pyclass11PyClassImpl3doc0NtNtB8_3err5PyErrEB2l_, symObjAddr: 0x2B68, symBinAddr: 0xF8E10, symSize: 0x1A0 }
  - { offset: 0x546D, size: 0x8, addend: 0x0, symName: __RINvMs3_NtCsinFlhxATJYn_4pyo34syncINtB6_11GILOnceCellINtNtCs2iVXuAemrgm_5alloc6borrow3CowNtNtNtCs7dfkhshTrE4_4core3ffi5c_str4CStrEE4initNCNvXs40_NtCs1NyPVrLiP35_11crystal_toe2pyNtB2j_11PyFriedmannNtNtNtB8_5impl_7pyclass11PyClassImpl3doc0NtNtB8_3err5PyErrEB2l_, symObjAddr: 0x2D08, symBinAddr: 0xF8FB0, symSize: 0x1A0 }
  - { offset: 0x5544, size: 0x8, addend: 0x0, symName: __RINvMs3_NtCsinFlhxATJYn_4pyo34syncINtB6_11GILOnceCellINtNtCs2iVXuAemrgm_5alloc6borrow3CowNtNtNtCs7dfkhshTrE4_4core3ffi5c_str4CStrEE4initNCNvXs4G_NtCs1NyPVrLiP35_11crystal_toe2pyNtB2j_5PyCFDNtNtNtB8_5impl_7pyclass11PyClassImpl3doc0NtNtB8_3err5PyErrEB2l_, symObjAddr: 0x2EA8, symBinAddr: 0xF9150, symSize: 0x1A0 }
  - { offset: 0x561B, size: 0x8, addend: 0x0, symName: __RINvMs3_NtCsinFlhxATJYn_4pyo34syncINtB6_11GILOnceCellINtNtCs2iVXuAemrgm_5alloc6borrow3CowNtNtNtCs7dfkhshTrE4_4core3ffi5c_str4CStrEE4initNCNvXs4U_NtCs1NyPVrLiP35_11crystal_toe2pyNtB2j_7PyDecayNtNtNtB8_5impl_7pyclass11PyClassImpl3doc0NtNtB8_3err5PyErrEB2l_, symObjAddr: 0x3048, symBinAddr: 0xF92F0, symSize: 0x1A0 }
  - { offset: 0x56F2, size: 0x8, addend: 0x0, symName: __RINvMs3_NtCsinFlhxATJYn_4pyo34syncINtB6_11GILOnceCellINtNtCs2iVXuAemrgm_5alloc6borrow3CowNtNtNtCs7dfkhshTrE4_4core3ffi5c_str4CStrEE4initNCNvXs4e_NtCs1NyPVrLiP35_11crystal_toe2pyNtB2j_7PyNBodyNtNtNtB8_5impl_7pyclass11PyClassImpl3doc0NtNtB8_3err5PyErrEB2l_, symObjAddr: 0x31E8, symBinAddr: 0xF9490, symSize: 0x1A0 }
  - { offset: 0x57C9, size: 0x8, addend: 0x0, symName: __RINvMs3_NtCsinFlhxATJYn_4pyo34syncINtB6_11GILOnceCellINtNtCs2iVXuAemrgm_5alloc6borrow3CowNtNtNtCs7dfkhshTrE4_4core3ffi5c_str4CStrEE4initNCNvXs4s_NtCs1NyPVrLiP35_11crystal_toe2pyNtB2j_8PyThermoNtNtNtB8_5impl_7pyclass11PyClassImpl3doc0NtNtB8_3err5PyErrEB2l_, symObjAddr: 0x3388, symBinAddr: 0xF9630, symSize: 0x1A0 }
  - { offset: 0x58A0, size: 0x8, addend: 0x0, symName: __RINvMs3_NtCsinFlhxATJYn_4pyo34syncINtB6_11GILOnceCellINtNtCs2iVXuAemrgm_5alloc6borrow3CowNtNtNtCs7dfkhshTrE4_4core3ffi5c_str4CStrEE4initNCNvXs58_NtCs1NyPVrLiP35_11crystal_toe2pyNtB2j_8PyOpticsNtNtNtB8_5impl_7pyclass11PyClassImpl3doc0NtNtB8_3err5PyErrEB2l_, symObjAddr: 0x3528, symBinAddr: 0xF97D0, symSize: 0x1A0 }
  - { offset: 0x5977, size: 0x8, addend: 0x0, symName: __RINvMs3_NtCsinFlhxATJYn_4pyo34syncINtB6_11GILOnceCellINtNtCs2iVXuAemrgm_5alloc6borrow3CowNtNtNtCs7dfkhshTrE4_4core3ffi5c_str4CStrEE4initNCNvXs5A_NtCs1NyPVrLiP35_11crystal_toe2pyNtB2j_11PyCondensedNtNtNtB8_5impl_7pyclass11PyClassImpl3doc0NtNtB8_3err5PyErrEB2l_, symObjAddr: 0x36C8, symBinAddr: 0xF9970, symSize: 0x1A0 }
  - { offset: 0x5A4E, size: 0x8, addend: 0x0, symName: __RINvMs3_NtCsinFlhxATJYn_4pyo34syncINtB6_11GILOnceCellINtNtCs2iVXuAemrgm_5alloc6borrow3CowNtNtNtCs7dfkhshTrE4_4core3ffi5c_str4CStrEE4initNCNvXs5O_NtCs1NyPVrLiP35_11crystal_toe2pyNtB2j_8PyPlasmaNtNtNtB8_5impl_7pyclass11PyClassImpl3doc0NtNtB8_3err5PyErrEB2l_, symObjAddr: 0x3868, symBinAddr: 0xF9B10, symSize: 0x1A0 }
  - { offset: 0x5B25, size: 0x8, addend: 0x0, symName: __RINvMs3_NtCsinFlhxATJYn_4pyo34syncINtB6_11GILOnceCellINtNtCs2iVXuAemrgm_5alloc6borrow3CowNtNtNtCs7dfkhshTrE4_4core3ffi5c_str4CStrEE4initNCNvXs5_NtCs1NyPVrLiP35_11crystal_toe2pyNtB2i_5PyToeNtNtNtB8_5impl_7pyclass11PyClassImpl3doc0NtNtB8_3err5PyErrEB2k_, symObjAddr: 0x3A08, symBinAddr: 0xF9CB0, symSize: 0x1A0 }
  - { offset: 0x5BFC, size: 0x8, addend: 0x0, symName: __RINvMs3_NtCsinFlhxATJYn_4pyo34syncINtB6_11GILOnceCellINtNtCs2iVXuAemrgm_5alloc6borrow3CowNtNtNtCs7dfkhshTrE4_4core3ffi5c_str4CStrEE4initNCNvXs5m_NtCs1NyPVrLiP35_11crystal_toe2pyNtB2j_4PyMDNtNtNtB8_5impl_7pyclass11PyClassImpl3doc0NtNtB8_3err5PyErrEB2l_, symObjAddr: 0x3BA8, symBinAddr: 0xF9E50, symSize: 0x1A0 }
  - { offset: 0x5CD3, size: 0x8, addend: 0x0, symName: __RINvMs3_NtCsinFlhxATJYn_4pyo34syncINtB6_11GILOnceCellINtNtCs2iVXuAemrgm_5alloc6borrow3CowNtNtNtCs7dfkhshTrE4_4core3ffi5c_str4CStrEE4initNCNvXs62_NtCs1NyPVrLiP35_11crystal_toe2pyNtB2j_5PyQFTNtNtNtB8_5impl_7pyclass11PyClassImpl3doc0NtNtB8_3err5PyErrEB2l_, symObjAddr: 0x3D48, symBinAddr: 0xF9FF0, symSize: 0x1A0 }
  - { offset: 0x5DAA, size: 0x8, addend: 0x0, symName: __RINvMs3_NtCsinFlhxATJYn_4pyo34syncINtB6_11GILOnceCellINtNtCs2iVXuAemrgm_5alloc6borrow3CowNtNtNtCs7dfkhshTrE4_4core3ffi5c_str4CStrEE4initNCNvXs6I_NtCs1NyPVrLiP35_11crystal_toe2pyNtB2j_9PyNuclearNtNtNtB8_5impl_7pyclass11PyClassImpl3doc0NtNtB8_3err5PyErrEB2l_, symObjAddr: 0x3EE8, symBinAddr: 0xFA190, symSize: 0x1A0 }
  - { offset: 0x5E81, size: 0x8, addend: 0x0, symName: __RINvMs3_NtCsinFlhxATJYn_4pyo34syncINtB6_11GILOnceCellINtNtCs2iVXuAemrgm_5alloc6borrow3CowNtNtNtCs7dfkhshTrE4_4core3ffi5c_str4CStrEE4initNCNvXs6W_NtCs1NyPVrLiP35_11crystal_toe2pyNtB2j_7PyAstroNtNtNtB8_5impl_7pyclass11PyClassImpl3doc0NtNtB8_3err5PyErrEB2l_, symObjAddr: 0x4088, symBinAddr: 0xFA330, symSize: 0x1A0 }
  - { offset: 0x5F58, size: 0x8, addend: 0x0, symName: __RINvMs3_NtCsinFlhxATJYn_4pyo34syncINtB6_11GILOnceCellINtNtCs2iVXuAemrgm_5alloc6borrow3CowNtNtNtCs7dfkhshTrE4_4core3ffi5c_str4CStrEE4initNCNvXs6g_NtCs1NyPVrLiP35_11crystal_toe2pyNtB2j_7PyRigidNtNtNtB8_5impl_7pyclass11PyClassImpl3doc0NtNtB8_3err5PyErrEB2l_, symObjAddr: 0x4228, symBinAddr: 0xFA4D0, symSize: 0x1A0 }
  - { offset: 0x602F, size: 0x8, addend: 0x0, symName: __RINvMs3_NtCsinFlhxATJYn_4pyo34syncINtB6_11GILOnceCellINtNtCs2iVXuAemrgm_5alloc6borrow3CowNtNtNtCs7dfkhshTrE4_4core3ffi5c_str4CStrEE4initNCNvXs6u_NtCs1NyPVrLiP35_11crystal_toe2pyNtB2j_6PyChemNtNtNtB8_5impl_7pyclass11PyClassImpl3doc0NtNtB8_3err5PyErrEB2l_, symObjAddr: 0x43C8, symBinAddr: 0xFA670, symSize: 0x1A0 }
  - { offset: 0x6106, size: 0x8, addend: 0x0, symName: __RINvMs3_NtCsinFlhxATJYn_4pyo34syncINtB6_11GILOnceCellINtNtCs2iVXuAemrgm_5alloc6borrow3CowNtNtNtCs7dfkhshTrE4_4core3ffi5c_str4CStrEE4initNCNvXs7C_NtCs1NyPVrLiP35_11crystal_toe2pyNtB2j_8PyArcadeNtNtNtB8_5impl_7pyclass11PyClassImpl3doc0NtNtB8_3err5PyErrEB2l_, symObjAddr: 0x4568, symBinAddr: 0xFA810, symSize: 0x1A0 }
  - { offset: 0x61DD, size: 0x8, addend: 0x0, symName: __RINvMs3_NtCsinFlhxATJYn_4pyo34syncINtB6_11GILOnceCellINtNtCs2iVXuAemrgm_5alloc6borrow3CowNtNtNtCs7dfkhshTrE4_4core3ffi5c_str4CStrEE4initNCNvXs7a_NtCs1NyPVrLiP35_11crystal_toe2pyNtB2j_7PyQInfoNtNtNtB8_5impl_7pyclass11PyClassImpl3doc0NtNtB8_3err5PyErrEB2l_, symObjAddr: 0x4708, symBinAddr: 0xFA9B0, symSize: 0x1A0 }
  - { offset: 0x62B4, size: 0x8, addend: 0x0, symName: __RINvMs3_NtCsinFlhxATJYn_4pyo34syncINtB6_11GILOnceCellINtNtCs2iVXuAemrgm_5alloc6borrow3CowNtNtNtCs7dfkhshTrE4_4core3ffi5c_str4CStrEE4initNCNvXs7o_NtCs1NyPVrLiP35_11crystal_toe2pyNtB2j_5PyBioNtNtNtB8_5impl_7pyclass11PyClassImpl3doc0NtNtB8_3err5PyErrEB2l_, symObjAddr: 0x48A8, symBinAddr: 0xFAB50, symSize: 0x1A0 }
  - { offset: 0x638B, size: 0x8, addend: 0x0, symName: __RINvMs3_NtCsinFlhxATJYn_4pyo34syncINtB6_11GILOnceCellINtNtCs2iVXuAemrgm_5alloc6borrow3CowNtNtNtCs7dfkhshTrE4_4core3ffi5c_str4CStrEE4initNCNvXsM_NtCs1NyPVrLiP35_11crystal_toe2pyNtB2i_7PyCosmoNtNtNtB8_5impl_7pyclass11PyClassImpl3doc0NtNtB8_3err5PyErrEB2k_, symObjAddr: 0x4A48, symBinAddr: 0xFACF0, symSize: 0x1A0 }
  - { offset: 0x6462, size: 0x8, addend: 0x0, symName: __RINvMs3_NtCsinFlhxATJYn_4pyo34syncINtB6_11GILOnceCellINtNtCs2iVXuAemrgm_5alloc6borrow3CowNtNtNtCs7dfkhshTrE4_4core3ffi5c_str4CStrEE4initNCNvXsk_NtCs1NyPVrLiP35_11crystal_toe2pyNtB2i_7PyGaugeNtNtNtB8_5impl_7pyclass11PyClassImpl3doc0NtNtB8_3err5PyErrEB2k_, symObjAddr: 0x4BE8, symBinAddr: 0xFAE90, symSize: 0x1A0 }
  - { offset: 0x6539, size: 0x8, addend: 0x0, symName: __RINvMs3_NtCsinFlhxATJYn_4pyo34syncINtB6_11GILOnceCellINtNtCs2iVXuAemrgm_5alloc6borrow3CowNtNtNtCs7dfkhshTrE4_4core3ffi5c_str4CStrEE4initNCNvXsy_NtCs1NyPVrLiP35_11crystal_toe2pyNtB2i_5PyQCDNtNtNtB8_5impl_7pyclass11PyClassImpl3doc0NtNtB8_3err5PyErrEB2k_, symObjAddr: 0x4D88, symBinAddr: 0xFB030, symSize: 0x1A0 }
  - { offset: 0x66B9, size: 0x8, addend: 0x0, symName: __RNvMs3_NtCsinFlhxATJYn_4pyo34syncINtB5_11GILOnceCellINtNtCs2iVXuAemrgm_5alloc6borrow3CowNtNtNtCs7dfkhshTrE4_4core3ffi5c_str4CStrEE3getCs1NyPVrLiP35_11crystal_toe, symObjAddr: 0x5038, symBinAddr: 0x24A4, symSize: 0xA8 }
  - { offset: 0x66FD, size: 0x8, addend: 0x0, symName: __RNvMs3_NtCsinFlhxATJYn_4pyo34syncINtB5_11GILOnceCellINtNtCs2iVXuAemrgm_5alloc6borrow3CowNtNtNtCs7dfkhshTrE4_4core3ffi5c_str4CStrEE3setCs1NyPVrLiP35_11crystal_toe, symObjAddr: 0x50E0, symBinAddr: 0x254C, symSize: 0xC4 }
  - { offset: 0x67B5, size: 0x8, addend: 0x0, symName: __RNvMNtCsinFlhxATJYn_4pyo33gilNtB2_8GILGuard6pythonCs1NyPVrLiP35_11crystal_toe, symObjAddr: 0x0, symBinAddr: 0x2610, symSize: 0x20 }
  - { offset: 0x6865, size: 0x8, addend: 0x0, symName: __RNvMNtCsinFlhxATJYn_4pyo33gilNtB2_8GILGuard6pythonCs1NyPVrLiP35_11crystal_toe, symObjAddr: 0x0, symBinAddr: 0x2610, symSize: 0x20 }
  - { offset: 0x68A5, size: 0x8, addend: 0x0, symName: __RNvNtCs1NyPVrLiP35_11crystal_toe5gauge10alpha_s_mz, symObjAddr: 0x0, symBinAddr: 0x2630, symSize: 0x8C }
  - { offset: 0x68BC, size: 0x8, addend: 0x0, symName: __RNvNtCs1NyPVrLiP35_11crystal_toe5gauge10alpha_s_mz, symObjAddr: 0x0, symBinAddr: 0x2630, symSize: 0x8C }
  - { offset: 0x6936, size: 0x8, addend: 0x0, symName: __RNvNtCs1NyPVrLiP35_11crystal_toe5gauge10g1_squared, symObjAddr: 0x8C, symBinAddr: 0x26BC, symSize: 0x4C }
  - { offset: 0x6953, size: 0x8, addend: 0x0, symName: __RNvNtCs1NyPVrLiP35_11crystal_toe5gauge10g2_squared, symObjAddr: 0xD8, symBinAddr: 0x2708, symSize: 0x4C }
  - { offset: 0x6970, size: 0x8, addend: 0x0, symName: __RNvNtCs1NyPVrLiP35_11crystal_toe5gauge10higgs_mass, symObjAddr: 0x124, symBinAddr: 0x2754, symSize: 0x2C }
  - { offset: 0x699C, size: 0x8, addend: 0x0, symName: __RNvNtCs1NyPVrLiP35_11crystal_toe5gauge10mu_e_ratio, symObjAddr: 0x150, symBinAddr: 0x2780, symSize: 0xD0 }
  - { offset: 0x69B9, size: 0x8, addend: 0x0, symName: __RNvNtCs1NyPVrLiP35_11crystal_toe5gauge11sin_theta_w, symObjAddr: 0x220, symBinAddr: 0x2850, symSize: 0x18 }
  - { offset: 0x69D6, size: 0x8, addend: 0x0, symName: __RNvNtCs1NyPVrLiP35_11crystal_toe5gauge12cos2_theta_w, symObjAddr: 0x238, symBinAddr: 0x2868, symSize: 0x20 }
  - { offset: 0x69F3, size: 0x8, addend: 0x0, symName: __RNvNtCs1NyPVrLiP35_11crystal_toe5gauge12sin2_theta_w, symObjAddr: 0x258, symBinAddr: 0x2888, symSize: 0x70 }
  - { offset: 0x6A10, size: 0x8, addend: 0x0, symName: __RNvNtCs1NyPVrLiP35_11crystal_toe5gauge12tau_mu_ratio, symObjAddr: 0x2C8, symBinAddr: 0x28F8, symSize: 0x18 }
  - { offset: 0x6A2D, size: 0x8, addend: 0x0, symName: __RNvNtCs1NyPVrLiP35_11crystal_toe5gauge13electron_mass, symObjAddr: 0x2E0, symBinAddr: 0x2910, symSize: 0x154 }
  - { offset: 0x6A6E, size: 0x8, addend: 0x0, symName: __RNvNtCs1NyPVrLiP35_11crystal_toe5gauge14fermi_constant, symObjAddr: 0x434, symBinAddr: 0x2A64, symSize: 0x64 }
  - { offset: 0x6A9A, size: 0x8, addend: 0x0, symName: __RNvNtCs1NyPVrLiP35_11crystal_toe5gauge6w_mass, symObjAddr: 0x498, symBinAddr: 0x2AC8, symSize: 0x6C }
  - { offset: 0x6AC6, size: 0x8, addend: 0x0, symName: __RNvNtCs1NyPVrLiP35_11crystal_toe5gauge6z_mass, symObjAddr: 0x504, symBinAddr: 0x2B34, symSize: 0x34 }
  - { offset: 0x6AF2, size: 0x8, addend: 0x0, symName: __RNvNtCs1NyPVrLiP35_11crystal_toe5gauge8alpha_em, symObjAddr: 0x538, symBinAddr: 0x2B68, symSize: 0x20 }
  - { offset: 0x6B0F, size: 0x8, addend: 0x0, symName: __RNvNtCs1NyPVrLiP35_11crystal_toe5gauge8tau_mass, symObjAddr: 0x558, symBinAddr: 0x2B88, symSize: 0x3C }
  - { offset: 0x6B3B, size: 0x8, addend: 0x0, symName: __RNvNtCs1NyPVrLiP35_11crystal_toe5gauge9alpha_inv, symObjAddr: 0x594, symBinAddr: 0x2BC4, symSize: 0x34 }
  - { offset: 0x6B58, size: 0x8, addend: 0x0, symName: __RNvNtCs1NyPVrLiP35_11crystal_toe5gauge9muon_mass, symObjAddr: 0x5C8, symBinAddr: 0x2BF8, symSize: 0xE8 }
  - { offset: 0x6BD3, size: 0x8, addend: 0x0, symName: __RINvNtNtCsinFlhxATJYn_4pyo35types4list17try_new_from_iterQINtNtNtNtCs7dfkhshTrE4_4core4iter8adapters3map3MapINtNtNtCs2iVXuAemrgm_5alloc3vec9into_iter8IntoIterNtNtB1P_6string6StringENCINvYB2w_NtNtB6_10conversion12IntoPyObject28owned_sequence_into_pyobjectINtB1N_3VecB2w_EE0EECs1NyPVrLiP35_11crystal_toe, symObjAddr: 0x0, symBinAddr: 0x2CE0, symSize: 0x2C8 }
  - { offset: 0x751A, size: 0x8, addend: 0x0, symName: __RINvNtNtCsinFlhxATJYn_4pyo35types4list17try_new_from_iterQINtNtNtNtCs7dfkhshTrE4_4core4iter8adapters3map3MapINtNtNtCs2iVXuAemrgm_5alloc3vec9into_iter8IntoIterNtNtB1P_6string6StringENCINvYB2w_NtNtB6_10conversion12IntoPyObject28owned_sequence_into_pyobjectINtB1N_3VecB2w_EE0EECs1NyPVrLiP35_11crystal_toe, symObjAddr: 0x0, symBinAddr: 0x2CE0, symSize: 0x2C8 }
  - { offset: 0x763B, size: 0x8, addend: 0x0, symName: __RINvNtNtCsinFlhxATJYn_4pyo35types4list17try_new_from_iterQINtNtNtNtCs7dfkhshTrE4_4core4iter8adapters3map3MapINtNtNtCs2iVXuAemrgm_5alloc3vec9into_iter8IntoIterTNtNtB1P_6string6StringdB2x_INtB1N_3VecB2x_EEENCINvYB2w_NtNtB6_10conversion12IntoPyObject28owned_sequence_into_pyobjectIB2Z_B2w_EE0EECs1NyPVrLiP35_11crystal_toe, symObjAddr: 0x2C8, symBinAddr: 0x2FA8, symSize: 0x2C8 }
  - { offset: 0x775C, size: 0x8, addend: 0x0, symName: __RINvNtNtCsinFlhxATJYn_4pyo35types4list17try_new_from_iterQINtNtNtNtCs7dfkhshTrE4_4core4iter8adapters3map3MapINtNtNtCs2iVXuAemrgm_5alloc3vec9into_iter8IntoIterTNtNtB1P_6string6StringddB2x_EENCINvYB2w_NtNtB6_10conversion12IntoPyObject28owned_sequence_into_pyobjectINtB1N_3VecB2w_EE0EECs1NyPVrLiP35_11crystal_toe, symObjAddr: 0x590, symBinAddr: 0x3270, symSize: 0x2C8 }
  - { offset: 0x787D, size: 0x8, addend: 0x0, symName: __RINvNtNtCsinFlhxATJYn_4pyo35types4list17try_new_from_iterQINtNtNtNtCs7dfkhshTrE4_4core4iter8adapters3map3MapINtNtNtCs2iVXuAemrgm_5alloc3vec9into_iter8IntoIterTydINtB1N_3VecNtNtB1P_6string6StringEEENCINvYB2w_NtNtB6_10conversion12IntoPyObject28owned_sequence_into_pyobjectIB2A_B2w_EE0EECs1NyPVrLiP35_11crystal_toe, symObjAddr: 0x858, symBinAddr: 0x3538, symSize: 0x2C8 }
  - { offset: 0x799E, size: 0x8, addend: 0x0, symName: __RINvNtNtCsinFlhxATJYn_4pyo35types4list17try_new_from_iterQINtNtNtNtCs7dfkhshTrE4_4core4iter8adapters3map3MapINtNtNtCs2iVXuAemrgm_5alloc3vec9into_iter8IntoIterdENCINvYdNtNtB6_10conversion12IntoPyObject28owned_sequence_into_pyobjectINtB1N_3VecdEE0EECs1NyPVrLiP35_11crystal_toe, symObjAddr: 0xB20, symBinAddr: 0x3800, symSize: 0x2C8 }
  - { offset: 0x7ABF, size: 0x8, addend: 0x0, symName: __RINvNtNtCsinFlhxATJYn_4pyo35types4list17try_new_from_iterQINtNtNtNtCs7dfkhshTrE4_4core4iter8adapters3map3MapINtNtNtCs2iVXuAemrgm_5alloc3vec9into_iter8IntoIteryENCINvYyNtNtB6_10conversion12IntoPyObject28owned_sequence_into_pyobjectINtB1N_3VecyEE0EECs1NyPVrLiP35_11crystal_toe, symObjAddr: 0xDE8, symBinAddr: 0x3AC8, symSize: 0x2C8 }
  - { offset: 0x7BE5, size: 0x8, addend: 0x0, symName: __RNCINvNtNtCsinFlhxATJYn_4pyo35types4list17try_new_from_iterQINtNtNtNtCs7dfkhshTrE4_4core4iter8adapters3map3MapINtNtNtCs2iVXuAemrgm_5alloc3vec9into_iter8IntoIterNtNtB1R_6string6StringENCINvYB2y_NtNtB8_10conversion12IntoPyObject28owned_sequence_into_pyobjectINtB1P_3VecB2y_EE0EE0Cs1NyPVrLiP35_11crystal_toe, symObjAddr: 0x10B0, symBinAddr: 0x3D90, symSize: 0x114 }
  - { offset: 0x7C5A, size: 0x8, addend: 0x0, symName: __RNCINvNtNtCsinFlhxATJYn_4pyo35types4list17try_new_from_iterQINtNtNtNtCs7dfkhshTrE4_4core4iter8adapters3map3MapINtNtNtCs2iVXuAemrgm_5alloc3vec9into_iter8IntoIterTNtNtB1R_6string6StringdB2z_INtB1P_3VecB2z_EEENCINvYB2y_NtNtB8_10conversion12IntoPyObject28owned_sequence_into_pyobjectIB31_B2y_EE0EE0Cs1NyPVrLiP35_11crystal_toe, symObjAddr: 0x11C4, symBinAddr: 0x3EA4, symSize: 0x114 }
  - { offset: 0x7CCF, size: 0x8, addend: 0x0, symName: __RNCINvNtNtCsinFlhxATJYn_4pyo35types4list17try_new_from_iterQINtNtNtNtCs7dfkhshTrE4_4core4iter8adapters3map3MapINtNtNtCs2iVXuAemrgm_5alloc3vec9into_iter8IntoIterTNtNtB1R_6string6StringddB2z_EENCINvYB2y_NtNtB8_10conversion12IntoPyObject28owned_sequence_into_pyobjectINtB1P_3VecB2y_EE0EE0Cs1NyPVrLiP35_11crystal_toe, symObjAddr: 0x12D8, symBinAddr: 0x3FB8, symSize: 0x114 }
  - { offset: 0x7D44, size: 0x8, addend: 0x0, symName: __RNCINvNtNtCsinFlhxATJYn_4pyo35types4list17try_new_from_iterQINtNtNtNtCs7dfkhshTrE4_4core4iter8adapters3map3MapINtNtNtCs2iVXuAemrgm_5alloc3vec9into_iter8IntoIterTydINtB1P_3VecNtNtB1R_6string6StringEEENCINvYB2y_NtNtB8_10conversion12IntoPyObject28owned_sequence_into_pyobjectIB2C_B2y_EE0EE0Cs1NyPVrLiP35_11crystal_toe, symObjAddr: 0x13EC, symBinAddr: 0x40CC, symSize: 0x114 }
  - { offset: 0x7DB9, size: 0x8, addend: 0x0, symName: __RNCINvNtNtCsinFlhxATJYn_4pyo35types4list17try_new_from_iterQINtNtNtNtCs7dfkhshTrE4_4core4iter8adapters3map3MapINtNtNtCs2iVXuAemrgm_5alloc3vec9into_iter8IntoIterdENCINvYdNtNtB8_10conversion12IntoPyObject28owned_sequence_into_pyobjectINtB1P_3VecdEE0EE0Cs1NyPVrLiP35_11crystal_toe, symObjAddr: 0x1500, symBinAddr: 0x41E0, symSize: 0x114 }
  - { offset: 0x7E2E, size: 0x8, addend: 0x0, symName: __RNCINvNtNtCsinFlhxATJYn_4pyo35types4list17try_new_from_iterQINtNtNtNtCs7dfkhshTrE4_4core4iter8adapters3map3MapINtNtNtCs2iVXuAemrgm_5alloc3vec9into_iter8IntoIteryENCINvYyNtNtB8_10conversion12IntoPyObject28owned_sequence_into_pyobjectINtB1P_3VecyEE0EE0Cs1NyPVrLiP35_11crystal_toe, symObjAddr: 0x1614, symBinAddr: 0x42F4, symSize: 0x114 }
  - { offset: 0x8945, size: 0x8, addend: 0x0, symName: __RNvXs1_NtNtCsinFlhxATJYn_4pyo35types3anyNtB5_5PyAnyNtNtB9_11type_object10PyTypeInfo15type_object_rawCs1NyPVrLiP35_11crystal_toe, symObjAddr: 0x0, symBinAddr: 0x4408, symSize: 0x24 }
  - { offset: 0x89AC, size: 0x8, addend: 0x0, symName: __RNvXs1_NtNtCsinFlhxATJYn_4pyo35types3anyNtB5_5PyAnyNtNtB9_11type_object10PyTypeInfo15type_object_rawCs1NyPVrLiP35_11crystal_toe, symObjAddr: 0x0, symBinAddr: 0x4408, symSize: 0x24 }
  - { offset: 0x8B25, size: 0x8, addend: 0x0, symName: __RINvMs0_NtNtCskXqYSXpV4rx_3std4sync4onceNtB6_4Once15call_once_forceNCNvMs3_NtCsinFlhxATJYn_4pyo34syncINtB1b_11GILOnceCellINtNtCs2iVXuAemrgm_5alloc6borrow3CowNtNtNtCs7dfkhshTrE4_4core3ffi5c_str4CStrEE3set0ECs1NyPVrLiP35_11crystal_toe, symObjAddr: 0x0, symBinAddr: 0x442C, symSize: 0xEC }
  - { offset: 0x8B59, size: 0x8, addend: 0x0, symName: __RNCINvMs0_NtNtCskXqYSXpV4rx_3std4sync4onceNtB8_4Once15call_once_forceNCNvMs3_NtCsinFlhxATJYn_4pyo34syncINtB1d_11GILOnceCellINtNtCs2iVXuAemrgm_5alloc6borrow3CowNtNtNtCs7dfkhshTrE4_4core3ffi5c_str4CStrEE3set0E0Cs1NyPVrLiP35_11crystal_toe, symObjAddr: 0xEC, symBinAddr: 0x4518, symSize: 0x84 }
  - { offset: 0x91E8, size: 0x8, addend: 0x0, symName: __RINvMs0_NtNtCskXqYSXpV4rx_3std4sync4onceNtB6_4Once15call_once_forceNCNvMs3_NtCsinFlhxATJYn_4pyo34syncINtB1b_11GILOnceCellINtNtCs2iVXuAemrgm_5alloc6borrow3CowNtNtNtCs7dfkhshTrE4_4core3ffi5c_str4CStrEE3set0ECs1NyPVrLiP35_11crystal_toe, symObjAddr: 0x0, symBinAddr: 0x442C, symSize: 0xEC }
  - { offset: 0x9334, size: 0x8, addend: 0x0, symName: __RNvNvMNtNtCs7dfkhshTrE4_4core3ptr9alignmentNtB4_9Alignment13new_unchecked18precondition_checkCs1NyPVrLiP35_11crystal_toe, symObjAddr: 0x0, symBinAddr: 0x459C, symSize: 0x70 }
  - { offset: 0x93A0, size: 0x8, addend: 0x0, symName: __RNvNvMNtNtCs7dfkhshTrE4_4core3ptr9alignmentNtB4_9Alignment13new_unchecked18precondition_checkCs1NyPVrLiP35_11crystal_toe, symObjAddr: 0x0, symBinAddr: 0x459C, symSize: 0x70 }
  - { offset: 0x9486, size: 0x8, addend: 0x0, symName: __RNvNvMNtCs7dfkhshTrE4_4core5sliceSp18split_at_unchecked18precondition_checkCs1NyPVrLiP35_11crystal_toe, symObjAddr: 0x0, symBinAddr: 0x460C, symSize: 0x60 }
  - { offset: 0x94A7, size: 0x8, addend: 0x0, symName: __RNvNvMNtCs7dfkhshTrE4_4core5sliceSp18split_at_unchecked18precondition_checkCs1NyPVrLiP35_11crystal_toe, symObjAddr: 0x0, symBinAddr: 0x460C, symSize: 0x60 }
  - { offset: 0x9551, size: 0x8, addend: 0x0, symName: __RINvMNtCs7dfkhshTrE4_4core6optionINtB3_6OptionINtNtCsinFlhxATJYn_4pyo38instance8BorrowedNtNtNtBN_5types3any5PyAnyEE3mapIBJ_NtNtB1s_4dict6PyDictENCINvMs3_NtNtBN_5impl_16extract_argumentNtB2r_19FunctionDescription28extract_arguments_tuple_dictNtB2r_9NoVarargsNtB2r_13NoVarkeywordsE0ECs1NyPVrLiP35_11crystal_toe, symObjAddr: 0x0, symBinAddr: 0x466C, symSize: 0x50 }
  - { offset: 0x98D7, size: 0x8, addend: 0x0, symName: __RNcNtINtNtCs7dfkhshTrE4_4core6option6OptiondE4Some0Cs1NyPVrLiP35_11crystal_toe, symObjAddr: 0xFC, symBinAddr: 0x4768, symSize: 0x18 }
  - { offset: 0xC7CC, size: 0x8, addend: 0x0, symName: __RNvMNtNtCs7dfkhshTrE4_4core3ptr9const_ptrPINtNtB6_6option6OptionINtNtCsinFlhxATJYn_4pyo38instance8BorrowedNtNtNtB15_5types3any5PyAnyEE7is_nullCs1NyPVrLiP35_11crystal_toe, symObjAddr: 0x1BB0, symBinAddr: 0x621C, symSize: 0x18 }
  - { offset: 0xCB41, size: 0x8, addend: 0x0, symName: __RNvMNtCs7dfkhshTrE4_4core5sliceSINtNtB4_6option6OptionINtNtCsinFlhxATJYn_4pyo38instance8BorrowedNtNtNtBV_5types3any5PyAnyEE15copy_from_sliceCs1NyPVrLiP35_11crystal_toe, symObjAddr: 0x114, symBinAddr: 0x4780, symSize: 0x34 }
  - { offset: 0xCBAA, size: 0x8, addend: 0x0, symName: __RNvMNtCs7dfkhshTrE4_4core5sliceSINtNtB4_6option6OptionINtNtCsinFlhxATJYn_4pyo38instance8BorrowedNtNtNtBV_5types3any5PyAnyEE18split_at_uncheckedCs1NyPVrLiP35_11crystal_toe, symObjAddr: 0x148, symBinAddr: 0x47B4, symSize: 0xE8 }
  - { offset: 0xCCEF, size: 0x8, addend: 0x0, symName: __RNvMNtCs7dfkhshTrE4_4core5sliceSINtNtB4_6option6OptionINtNtCsinFlhxATJYn_4pyo38instance8BorrowedNtNtNtBV_5types3any5PyAnyEE8split_atCs1NyPVrLiP35_11crystal_toe, symObjAddr: 0x230, symBinAddr: 0x489C, symSize: 0xAC }
  - { offset: 0xE785, size: 0x8, addend: 0x0, symName: __RNvXs_NtNtCsinFlhxATJYn_4pyo35impl_4wrapINtNtCs7dfkhshTrE4_4core6option6OptiondEINtB4_8SomeWrapdE4wrapCs1NyPVrLiP35_11crystal_toe, symObjAddr: 0x1BC8, symBinAddr: 0x6234, symSize: 0x14 }
  - { offset: 0xED52, size: 0x8, addend: 0x0, symName: __RINvMNtCs7dfkhshTrE4_4core6optionINtB3_6OptionINtNtCsinFlhxATJYn_4pyo38instance8BorrowedNtNtNtBN_5types3any5PyAnyEE3mapIBJ_NtNtB1s_4dict6PyDictENCINvMs3_NtNtBN_5impl_16extract_argumentNtB2r_19FunctionDescription28extract_arguments_tuple_dictNtB2r_9NoVarargsNtB2r_13NoVarkeywordsE0ECs1NyPVrLiP35_11crystal_toe, symObjAddr: 0x0, symBinAddr: 0x466C, symSize: 0x50 }
  - { offset: 0xEDCA, size: 0x8, addend: 0x0, symName: __RINvMNtCs7dfkhshTrE4_4core6optionINtB3_6OptionINtNtCsinFlhxATJYn_4pyo38instance8BorrowedNtNtNtBN_5types3any5PyAnyEE3mapIBJ_NtNtB1s_5tuple7PyTupleENCINvMs3_NtNtBN_5impl_16extract_argumentNtB2t_19FunctionDescription26extract_arguments_fastcallNtB2t_9NoVarargsNtB2t_13NoVarkeywordsE0ECs1NyPVrLiP35_11crystal_toe, symObjAddr: 0x50, symBinAddr: 0x46BC, symSize: 0x50 }
  - { offset: 0xEE42, size: 0x8, addend: 0x0, symName: __RINvMNtCs7dfkhshTrE4_4core6optionINtB3_6OptionINtNtNtB5_3ptr8non_null7NonNullNtNtCsgKB9CBwAW8Q_8pyo3_ffi6object8PyObjectEE3mapINtNtCsinFlhxATJYn_4pyo38instance8BorrowedNtNtNtB25_5types3any5PyAnyENCNvMsb_B23_B20_15from_ptr_or_opt0ECs1NyPVrLiP35_11crystal_toe, symObjAddr: 0xA0, symBinAddr: 0x470C, symSize: 0x5C }
  - { offset: 0xEF79, size: 0x8, addend: 0x0, symName: __RNvMNtCs7dfkhshTrE4_4core6optionINtB2_6OptionFUKCONtNtB4_3ffi6c_voidEuE6expectCs1NyPVrLiP35_11crystal_toe, symObjAddr: 0x2DC, symBinAddr: 0x4948, symSize: 0x5C }
  - { offset: 0xF1EA, size: 0x8, addend: 0x0, symName: __RNvMNtCs7dfkhshTrE4_4core6optionINtB2_6OptionINtNtB4_6result6ResultINtNtCsinFlhxATJYn_4pyo38instance5BoundNtNtNtB18_5types3any5PyAnyENtNtB18_3err5PyErrEE7is_noneCs1NyPVrLiP35_11crystal_toe, symObjAddr: 0x338, symBinAddr: 0x49A4, symSize: 0x28 }
  - { offset: 0xF328, size: 0x8, addend: 0x0, symName: __RNvMNtCs7dfkhshTrE4_4core6optionINtB2_6OptionINtNtCs2iVXuAemrgm_5alloc6borrow3CowNtNtNtB4_3ffi5c_str4CStrEE4takeCs1NyPVrLiP35_11crystal_toe, symObjAddr: 0x360, symBinAddr: 0x49CC, symSize: 0x40 }
  - { offset: 0xF58E, size: 0x8, addend: 0x0, symName: __RNvMNtCs7dfkhshTrE4_4core6optionINtB2_6OptionINtNtCsinFlhxATJYn_4pyo36pycell5PyRefNtNtCs1NyPVrLiP35_11crystal_toe2py11PyClassicalEE6insertB1m_, symObjAddr: 0x3A0, symBinAddr: 0x4A0C, symSize: 0xA8 }
  - { offset: 0xF694, size: 0x8, addend: 0x0, symName: __RNvMNtCs7dfkhshTrE4_4core6optionINtB2_6OptionINtNtCsinFlhxATJYn_4pyo36pycell5PyRefNtNtCs1NyPVrLiP35_11crystal_toe2py11PyCondensedEE6insertB1m_, symObjAddr: 0x448, symBinAddr: 0x4AB4, symSize: 0xA8 }
  - { offset: 0xF79A, size: 0x8, addend: 0x0, symName: __RNvMNtCs7dfkhshTrE4_4core6optionINtB2_6OptionINtNtCsinFlhxATJYn_4pyo36pycell5PyRefNtNtCs1NyPVrLiP35_11crystal_toe2py11PyFriedmannEE6insertB1m_, symObjAddr: 0x4F0, symBinAddr: 0x4B5C, symSize: 0xA8 }
  - { offset: 0xF8A0, size: 0x8, addend: 0x0, symName: __RNvMNtCs7dfkhshTrE4_4core6optionINtB2_6OptionINtNtCsinFlhxATJYn_4pyo36pycell5PyRefNtNtCs1NyPVrLiP35_11crystal_toe2py11PyHierarchyEE6insertB1m_, symObjAddr: 0x598, symBinAddr: 0x4C04, symSize: 0xA8 }
  - { offset: 0xF9A6, size: 0x8, addend: 0x0, symName: __RNvMNtCs7dfkhshTrE4_4core6optionINtB2_6OptionINtNtCsinFlhxATJYn_4pyo36pycell5PyRefNtNtCs1NyPVrLiP35_11crystal_toe2py13PyAlphaProtonEE6insertB1m_, symObjAddr: 0x640, symBinAddr: 0x4CAC, symSize: 0xA8 }
  - { offset: 0xFAAC, size: 0x8, addend: 0x0, symName: __RNvMNtCs7dfkhshTrE4_4core6optionINtB2_6OptionINtNtCsinFlhxATJYn_4pyo36pycell5PyRefNtNtCs1NyPVrLiP35_11crystal_toe2py13PyCrossDomainEE6insertB1m_, symObjAddr: 0x6E8, symBinAddr: 0x4D54, symSize: 0xA8 }
  - { offset: 0xFBC6, size: 0x8, addend: 0x0, symName: __RNvMNtCs7dfkhshTrE4_4core6optionINtB2_6OptionINtNtCsinFlhxATJYn_4pyo36pycell5PyRefNtNtCs1NyPVrLiP35_11crystal_toe2py14PyAlgebraStateEE6insertB1m_, symObjAddr: 0x790, symBinAddr: 0x4DFC, symSize: 0xA8 }
  - { offset: 0xFCCC, size: 0x8, addend: 0x0, symName: __RNvMNtCs7dfkhshTrE4_4core6optionINtB2_6OptionINtNtCsinFlhxATJYn_4pyo36pycell5PyRefNtNtCs1NyPVrLiP35_11crystal_toe2py4PyEMEE6insertB1m_, symObjAddr: 0x838, symBinAddr: 0x4EA4, symSize: 0xA8 }
  - { offset: 0xFDD2, size: 0x8, addend: 0x0, symName: __RNvMNtCs7dfkhshTrE4_4core6optionINtB2_6OptionINtNtCsinFlhxATJYn_4pyo36pycell5PyRefNtNtCs1NyPVrLiP35_11crystal_toe2py4PyGREE6insertB1m_, symObjAddr: 0x8E0, symBinAddr: 0x4F4C, symSize: 0xA8 }
  - { offset: 0xFED8, size: 0x8, addend: 0x0, symName: __RNvMNtCs7dfkhshTrE4_4core6optionINtB2_6OptionINtNtCsinFlhxATJYn_4pyo36pycell5PyRefNtNtCs1NyPVrLiP35_11crystal_toe2py4PyGWEE6insertB1m_, symObjAddr: 0x988, symBinAddr: 0x4FF4, symSize: 0xA8 }
  - { offset: 0xFFDE, size: 0x8, addend: 0x0, symName: __RNvMNtCs7dfkhshTrE4_4core6optionINtB2_6OptionINtNtCsinFlhxATJYn_4pyo36pycell5PyRefNtNtCs1NyPVrLiP35_11crystal_toe2py4PyMDEE6insertB1m_, symObjAddr: 0xA30, symBinAddr: 0x509C, symSize: 0xA8 }
  - { offset: 0x100E4, size: 0x8, addend: 0x0, symName: __RNvMNtCs7dfkhshTrE4_4core6optionINtB2_6OptionINtNtCsinFlhxATJYn_4pyo36pycell5PyRefNtNtCs1NyPVrLiP35_11crystal_toe2py5PyBioEE6insertB1m_, symObjAddr: 0xAD8, symBinAddr: 0x5144, symSize: 0xA8 }
  - { offset: 0x101EA, size: 0x8, addend: 0x0, symName: __RNvMNtCs7dfkhshTrE4_4core6optionINtB2_6OptionINtNtCsinFlhxATJYn_4pyo36pycell5PyRefNtNtCs1NyPVrLiP35_11crystal_toe2py5PyCFDEE6insertB1m_, symObjAddr: 0xB80, symBinAddr: 0x51EC, symSize: 0xA8 }
  - { offset: 0x102F0, size: 0x8, addend: 0x0, symName: __RNvMNtCs7dfkhshTrE4_4core6optionINtB2_6OptionINtNtCsinFlhxATJYn_4pyo36pycell5PyRefNtNtCs1NyPVrLiP35_11crystal_toe2py5PyQCDEE6insertB1m_, symObjAddr: 0xC28, symBinAddr: 0x5294, symSize: 0xA8 }
  - { offset: 0x103F6, size: 0x8, addend: 0x0, symName: __RNvMNtCs7dfkhshTrE4_4core6optionINtB2_6OptionINtNtCsinFlhxATJYn_4pyo36pycell5PyRefNtNtCs1NyPVrLiP35_11crystal_toe2py5PyQFTEE6insertB1m_, symObjAddr: 0xCD0, symBinAddr: 0x533C, symSize: 0xA8 }
  - { offset: 0x104FC, size: 0x8, addend: 0x0, symName: __RNvMNtCs7dfkhshTrE4_4core6optionINtB2_6OptionINtNtCsinFlhxATJYn_4pyo36pycell5PyRefNtNtCs1NyPVrLiP35_11crystal_toe2py5PyToeEE6insertB1m_, symObjAddr: 0xD78, symBinAddr: 0x53E4, symSize: 0xA8 }
  - { offset: 0x10602, size: 0x8, addend: 0x0, symName: __RNvMNtCs7dfkhshTrE4_4core6optionINtB2_6OptionINtNtCsinFlhxATJYn_4pyo36pycell5PyRefNtNtCs1NyPVrLiP35_11crystal_toe2py6PyChemEE6insertB1m_, symObjAddr: 0xE20, symBinAddr: 0x548C, symSize: 0xA8 }
  - { offset: 0x10708, size: 0x8, addend: 0x0, symName: __RNvMNtCs7dfkhshTrE4_4core6optionINtB2_6OptionINtNtCsinFlhxATJYn_4pyo36pycell5PyRefNtNtCs1NyPVrLiP35_11crystal_toe2py7PyAstroEE6insertB1m_, symObjAddr: 0xEC8, symBinAddr: 0x5534, symSize: 0xA8 }
  - { offset: 0x1080E, size: 0x8, addend: 0x0, symName: __RNvMNtCs7dfkhshTrE4_4core6optionINtB2_6OptionINtNtCsinFlhxATJYn_4pyo36pycell5PyRefNtNtCs1NyPVrLiP35_11crystal_toe2py7PyCosmoEE6insertB1m_, symObjAddr: 0xF70, symBinAddr: 0x55DC, symSize: 0xA8 }
  - { offset: 0x10914, size: 0x8, addend: 0x0, symName: __RNvMNtCs7dfkhshTrE4_4core6optionINtB2_6OptionINtNtCsinFlhxATJYn_4pyo36pycell5PyRefNtNtCs1NyPVrLiP35_11crystal_toe2py7PyDecayEE6insertB1m_, symObjAddr: 0x1018, symBinAddr: 0x5684, symSize: 0xA8 }
  - { offset: 0x10A1A, size: 0x8, addend: 0x0, symName: __RNvMNtCs7dfkhshTrE4_4core6optionINtB2_6OptionINtNtCsinFlhxATJYn_4pyo36pycell5PyRefNtNtCs1NyPVrLiP35_11crystal_toe2py7PyGaugeEE6insertB1m_, symObjAddr: 0x10C0, symBinAddr: 0x572C, symSize: 0xA8 }
  - { offset: 0x10B20, size: 0x8, addend: 0x0, symName: __RNvMNtCs7dfkhshTrE4_4core6optionINtB2_6OptionINtNtCsinFlhxATJYn_4pyo36pycell5PyRefNtNtCs1NyPVrLiP35_11crystal_toe2py7PyNBodyEE6insertB1m_, symObjAddr: 0x1168, symBinAddr: 0x57D4, symSize: 0xA8 }
  - { offset: 0x10C26, size: 0x8, addend: 0x0, symName: __RNvMNtCs7dfkhshTrE4_4core6optionINtB2_6OptionINtNtCsinFlhxATJYn_4pyo36pycell5PyRefNtNtCs1NyPVrLiP35_11crystal_toe2py7PyQInfoEE6insertB1m_, symObjAddr: 0x1210, symBinAddr: 0x587C, symSize: 0xA8 }
  - { offset: 0x10D2C, size: 0x8, addend: 0x0, symName: __RNvMNtCs7dfkhshTrE4_4core6optionINtB2_6OptionINtNtCsinFlhxATJYn_4pyo36pycell5PyRefNtNtCs1NyPVrLiP35_11crystal_toe2py7PyRigidEE6insertB1m_, symObjAddr: 0x12B8, symBinAddr: 0x5924, symSize: 0xA8 }
  - { offset: 0x10E32, size: 0x8, addend: 0x0, symName: __RNvMNtCs7dfkhshTrE4_4core6optionINtB2_6OptionINtNtCsinFlhxATJYn_4pyo36pycell5PyRefNtNtCs1NyPVrLiP35_11crystal_toe2py7PyTowerEE6insertB1m_, symObjAddr: 0x1360, symBinAddr: 0x59CC, symSize: 0xA8 }
  - { offset: 0x10F38, size: 0x8, addend: 0x0, symName: __RNvMNtCs7dfkhshTrE4_4core6optionINtB2_6OptionINtNtCsinFlhxATJYn_4pyo36pycell5PyRefNtNtCs1NyPVrLiP35_11crystal_toe2py7PyTruthEE6insertB1m_, symObjAddr: 0x1408, symBinAddr: 0x5A74, symSize: 0xA8 }
  - { offset: 0x1103E, size: 0x8, addend: 0x0, symName: __RNvMNtCs7dfkhshTrE4_4core6optionINtB2_6OptionINtNtCsinFlhxATJYn_4pyo36pycell5PyRefNtNtCs1NyPVrLiP35_11crystal_toe2py8PyArcadeEE6insertB1m_, symObjAddr: 0x14B0, symBinAddr: 0x5B1C, symSize: 0xA8 }
  - { offset: 0x11144, size: 0x8, addend: 0x0, symName: __RNvMNtCs7dfkhshTrE4_4core6optionINtB2_6OptionINtNtCsinFlhxATJYn_4pyo36pycell5PyRefNtNtCs1NyPVrLiP35_11crystal_toe2py8PyMixingEE6insertB1m_, symObjAddr: 0x1558, symBinAddr: 0x5BC4, symSize: 0xA8 }
  - { offset: 0x1124A, size: 0x8, addend: 0x0, symName: __RNvMNtCs7dfkhshTrE4_4core6optionINtB2_6OptionINtNtCsinFlhxATJYn_4pyo36pycell5PyRefNtNtCs1NyPVrLiP35_11crystal_toe2py8PyOpticsEE6insertB1m_, symObjAddr: 0x1600, symBinAddr: 0x5C6C, symSize: 0xA8 }
  - { offset: 0x11350, size: 0x8, addend: 0x0, symName: __RNvMNtCs7dfkhshTrE4_4core6optionINtB2_6OptionINtNtCsinFlhxATJYn_4pyo36pycell5PyRefNtNtCs1NyPVrLiP35_11crystal_toe2py8PyPlasmaEE6insertB1m_, symObjAddr: 0x16A8, symBinAddr: 0x5D14, symSize: 0xA8 }
  - { offset: 0x11456, size: 0x8, addend: 0x0, symName: __RNvMNtCs7dfkhshTrE4_4core6optionINtB2_6OptionINtNtCsinFlhxATJYn_4pyo36pycell5PyRefNtNtCs1NyPVrLiP35_11crystal_toe2py8PyThermoEE6insertB1m_, symObjAddr: 0x1750, symBinAddr: 0x5DBC, symSize: 0xA8 }
  - { offset: 0x1155C, size: 0x8, addend: 0x0, symName: __RNvMNtCs7dfkhshTrE4_4core6optionINtB2_6OptionINtNtCsinFlhxATJYn_4pyo36pycell5PyRefNtNtCs1NyPVrLiP35_11crystal_toe2py9PyGravityEE6insertB1m_, symObjAddr: 0x17F8, symBinAddr: 0x5E64, symSize: 0xA8 }
  - { offset: 0x11662, size: 0x8, addend: 0x0, symName: __RNvMNtCs7dfkhshTrE4_4core6optionINtB2_6OptionINtNtCsinFlhxATJYn_4pyo36pycell5PyRefNtNtCs1NyPVrLiP35_11crystal_toe2py9PyNuclearEE6insertB1m_, symObjAddr: 0x18A0, symBinAddr: 0x5F0C, symSize: 0xA8 }
  - { offset: 0x11768, size: 0x8, addend: 0x0, symName: __RNvMNtCs7dfkhshTrE4_4core6optionINtB2_6OptionINtNtCsinFlhxATJYn_4pyo36pycell5PyRefNtNtCs1NyPVrLiP35_11crystal_toe2py9PyProteinEE6insertB1m_, symObjAddr: 0x1948, symBinAddr: 0x5FB4, symSize: 0xA8 }
  - { offset: 0x1186E, size: 0x8, addend: 0x0, symName: __RNvMNtCs7dfkhshTrE4_4core6optionINtB2_6OptionINtNtCsinFlhxATJYn_4pyo36pycell8PyRefMutNtNtCs1NyPVrLiP35_11crystal_toe2py14PyAlgebraStateEE6insertB1p_, symObjAddr: 0x19F0, symBinAddr: 0x605C, symSize: 0xA8 }
  - { offset: 0x11911, size: 0x8, addend: 0x0, symName: __RNvMNtCs7dfkhshTrE4_4core6optionINtB2_6OptionINtNtCsinFlhxATJYn_4pyo38instance8BorrowedNtNtNtBM_5types3any5PyAnyEE7is_someCs1NyPVrLiP35_11crystal_toe, symObjAddr: 0x1A98, symBinAddr: 0x6104, symSize: 0x28 }
  - { offset: 0x1194A, size: 0x8, addend: 0x0, symName: __RNvMNtCs7dfkhshTrE4_4core6optionINtB2_6OptionINtNtCsinFlhxATJYn_4pyo38instance8BorrowedNtNtNtBM_5types3any5PyAnyEE7replaceCs1NyPVrLiP35_11crystal_toe, symObjAddr: 0x1AC0, symBinAddr: 0x612C, symSize: 0x28 }
  - { offset: 0x11A5D, size: 0x8, addend: 0x0, symName: __RNvMNtCs7dfkhshTrE4_4core6optionINtB2_6OptionINtNtCsinFlhxATJYn_4pyo38instance8BorrowedNtNtNtBM_5types3any5PyAnyEE8as_derefCs1NyPVrLiP35_11crystal_toe, symObjAddr: 0x1AE8, symBinAddr: 0x6154, symSize: 0x6C }
  - { offset: 0x11B06, size: 0x8, addend: 0x0, symName: __RNvMNtCs7dfkhshTrE4_4core6optionINtB2_6OptionNtNtCsinFlhxATJYn_4pyo37pyclass9CompareOpE6expectCs1NyPVrLiP35_11crystal_toe, symObjAddr: 0x1B54, symBinAddr: 0x61C0, symSize: 0x5C }
  - { offset: 0x11B7D, size: 0x8, addend: 0x0, symName: __RNvNvMNtNtCs7dfkhshTrE4_4core3ptr9const_ptrPp20offset_from_unsigned18precondition_checkCs1NyPVrLiP35_11crystal_toe, symObjAddr: 0x0, symBinAddr: 0x6248, symSize: 0x60 }
  - { offset: 0x11BA3, size: 0x8, addend: 0x0, symName: __RNvNvMNtNtCs7dfkhshTrE4_4core3ptr9const_ptrPp20offset_from_unsigned18precondition_checkCs1NyPVrLiP35_11crystal_toe, symObjAddr: 0x0, symBinAddr: 0x6248, symSize: 0x60 }
  - { offset: 0x11C8C, size: 0x8, addend: 0x0, symName: __RNvNvMNtNtCs7dfkhshTrE4_4core3ptr9const_ptrPp6offset18precondition_checkCs1NyPVrLiP35_11crystal_toe, symObjAddr: 0x60, symBinAddr: 0x62A8, symSize: 0xC4 }
  - { offset: 0x12073, size: 0x8, addend: 0x0, symName: __RNCNvMs0_NtCsinFlhxATJYn_4pyo36pycellINtB7_5PyRefNtNtCs1NyPVrLiP35_11crystal_toe2py11PyClassicalE10try_borrow0BP_, symObjAddr: 0x0, symBinAddr: 0x636C, symSize: 0x24 }
  - { offset: 0x12119, size: 0x8, addend: 0x0, symName: __RNCNvMs0_NtCsinFlhxATJYn_4pyo36pycellINtB7_5PyRefNtNtCs1NyPVrLiP35_11crystal_toe2py11PyClassicalE10try_borrow0BP_, symObjAddr: 0x0, symBinAddr: 0x636C, symSize: 0x24 }
  - { offset: 0x1215D, size: 0x8, addend: 0x0, symName: __RNCNvMs0_NtCsinFlhxATJYn_4pyo36pycellINtB7_5PyRefNtNtCs1NyPVrLiP35_11crystal_toe2py11PyCondensedE10try_borrow0BP_, symObjAddr: 0x24, symBinAddr: 0x6390, symSize: 0x24 }
  - { offset: 0x121A1, size: 0x8, addend: 0x0, symName: __RNCNvMs0_NtCsinFlhxATJYn_4pyo36pycellINtB7_5PyRefNtNtCs1NyPVrLiP35_11crystal_toe2py11PyFriedmannE10try_borrow0BP_, symObjAddr: 0x48, symBinAddr: 0x63B4, symSize: 0x24 }
  - { offset: 0x121E5, size: 0x8, addend: 0x0, symName: __RNCNvMs0_NtCsinFlhxATJYn_4pyo36pycellINtB7_5PyRefNtNtCs1NyPVrLiP35_11crystal_toe2py11PyHierarchyE10try_borrow0BP_, symObjAddr: 0x6C, symBinAddr: 0x63D8, symSize: 0x24 }
  - { offset: 0x12229, size: 0x8, addend: 0x0, symName: __RNCNvMs0_NtCsinFlhxATJYn_4pyo36pycellINtB7_5PyRefNtNtCs1NyPVrLiP35_11crystal_toe2py13PyAlphaProtonE10try_borrow0BP_, symObjAddr: 0x90, symBinAddr: 0x63FC, symSize: 0x24 }
  - { offset: 0x1226D, size: 0x8, addend: 0x0, symName: __RNCNvMs0_NtCsinFlhxATJYn_4pyo36pycellINtB7_5PyRefNtNtCs1NyPVrLiP35_11crystal_toe2py13PyCrossDomainE10try_borrow0BP_, symObjAddr: 0xB4, symBinAddr: 0x6420, symSize: 0x24 }
  - { offset: 0x122B1, size: 0x8, addend: 0x0, symName: __RNCNvMs0_NtCsinFlhxATJYn_4pyo36pycellINtB7_5PyRefNtNtCs1NyPVrLiP35_11crystal_toe2py14PyAlgebraStateE10try_borrow0BP_, symObjAddr: 0xD8, symBinAddr: 0x6444, symSize: 0x24 }
  - { offset: 0x122F5, size: 0x8, addend: 0x0, symName: __RNCNvMs0_NtCsinFlhxATJYn_4pyo36pycellINtB7_5PyRefNtNtCs1NyPVrLiP35_11crystal_toe2py4PyEME10try_borrow0BP_, symObjAddr: 0xFC, symBinAddr: 0x6468, symSize: 0x24 }
  - { offset: 0x12339, size: 0x8, addend: 0x0, symName: __RNCNvMs0_NtCsinFlhxATJYn_4pyo36pycellINtB7_5PyRefNtNtCs1NyPVrLiP35_11crystal_toe2py4PyGRE10try_borrow0BP_, symObjAddr: 0x120, symBinAddr: 0x648C, symSize: 0x24 }
  - { offset: 0x1237D, size: 0x8, addend: 0x0, symName: __RNCNvMs0_NtCsinFlhxATJYn_4pyo36pycellINtB7_5PyRefNtNtCs1NyPVrLiP35_11crystal_toe2py4PyGWE10try_borrow0BP_, symObjAddr: 0x144, symBinAddr: 0x64B0, symSize: 0x24 }
  - { offset: 0x123C1, size: 0x8, addend: 0x0, symName: __RNCNvMs0_NtCsinFlhxATJYn_4pyo36pycellINtB7_5PyRefNtNtCs1NyPVrLiP35_11crystal_toe2py4PyMDE10try_borrow0BP_, symObjAddr: 0x168, symBinAddr: 0x64D4, symSize: 0x24 }
  - { offset: 0x12405, size: 0x8, addend: 0x0, symName: __RNCNvMs0_NtCsinFlhxATJYn_4pyo36pycellINtB7_5PyRefNtNtCs1NyPVrLiP35_11crystal_toe2py5PyBioE10try_borrow0BP_, symObjAddr: 0x18C, symBinAddr: 0x64F8, symSize: 0x24 }
  - { offset: 0x12449, size: 0x8, addend: 0x0, symName: __RNCNvMs0_NtCsinFlhxATJYn_4pyo36pycellINtB7_5PyRefNtNtCs1NyPVrLiP35_11crystal_toe2py5PyCFDE10try_borrow0BP_, symObjAddr: 0x1B0, symBinAddr: 0x651C, symSize: 0x24 }
  - { offset: 0x1248D, size: 0x8, addend: 0x0, symName: __RNCNvMs0_NtCsinFlhxATJYn_4pyo36pycellINtB7_5PyRefNtNtCs1NyPVrLiP35_11crystal_toe2py5PyQCDE10try_borrow0BP_, symObjAddr: 0x1D4, symBinAddr: 0x6540, symSize: 0x24 }
  - { offset: 0x124D1, size: 0x8, addend: 0x0, symName: __RNCNvMs0_NtCsinFlhxATJYn_4pyo36pycellINtB7_5PyRefNtNtCs1NyPVrLiP35_11crystal_toe2py5PyQFTE10try_borrow0BP_, symObjAddr: 0x1F8, symBinAddr: 0x6564, symSize: 0x24 }
  - { offset: 0x12515, size: 0x8, addend: 0x0, symName: __RNCNvMs0_NtCsinFlhxATJYn_4pyo36pycellINtB7_5PyRefNtNtCs1NyPVrLiP35_11crystal_toe2py5PyToeE10try_borrow0BP_, symObjAddr: 0x21C, symBinAddr: 0x6588, symSize: 0x24 }
  - { offset: 0x12559, size: 0x8, addend: 0x0, symName: __RNCNvMs0_NtCsinFlhxATJYn_4pyo36pycellINtB7_5PyRefNtNtCs1NyPVrLiP35_11crystal_toe2py6PyChemE10try_borrow0BP_, symObjAddr: 0x240, symBinAddr: 0x65AC, symSize: 0x24 }
  - { offset: 0x1259D, size: 0x8, addend: 0x0, symName: __RNCNvMs0_NtCsinFlhxATJYn_4pyo36pycellINtB7_5PyRefNtNtCs1NyPVrLiP35_11crystal_toe2py7PyAstroE10try_borrow0BP_, symObjAddr: 0x264, symBinAddr: 0x65D0, symSize: 0x24 }
  - { offset: 0x125E1, size: 0x8, addend: 0x0, symName: __RNCNvMs0_NtCsinFlhxATJYn_4pyo36pycellINtB7_5PyRefNtNtCs1NyPVrLiP35_11crystal_toe2py7PyCosmoE10try_borrow0BP_, symObjAddr: 0x288, symBinAddr: 0x65F4, symSize: 0x24 }
  - { offset: 0x12625, size: 0x8, addend: 0x0, symName: __RNCNvMs0_NtCsinFlhxATJYn_4pyo36pycellINtB7_5PyRefNtNtCs1NyPVrLiP35_11crystal_toe2py7PyDecayE10try_borrow0BP_, symObjAddr: 0x2AC, symBinAddr: 0x6618, symSize: 0x24 }
  - { offset: 0x12669, size: 0x8, addend: 0x0, symName: __RNCNvMs0_NtCsinFlhxATJYn_4pyo36pycellINtB7_5PyRefNtNtCs1NyPVrLiP35_11crystal_toe2py7PyGaugeE10try_borrow0BP_, symObjAddr: 0x2D0, symBinAddr: 0x663C, symSize: 0x24 }
  - { offset: 0x126AD, size: 0x8, addend: 0x0, symName: __RNCNvMs0_NtCsinFlhxATJYn_4pyo36pycellINtB7_5PyRefNtNtCs1NyPVrLiP35_11crystal_toe2py7PyNBodyE10try_borrow0BP_, symObjAddr: 0x2F4, symBinAddr: 0x6660, symSize: 0x24 }
  - { offset: 0x126F1, size: 0x8, addend: 0x0, symName: __RNCNvMs0_NtCsinFlhxATJYn_4pyo36pycellINtB7_5PyRefNtNtCs1NyPVrLiP35_11crystal_toe2py7PyQInfoE10try_borrow0BP_, symObjAddr: 0x318, symBinAddr: 0x6684, symSize: 0x24 }
  - { offset: 0x12735, size: 0x8, addend: 0x0, symName: __RNCNvMs0_NtCsinFlhxATJYn_4pyo36pycellINtB7_5PyRefNtNtCs1NyPVrLiP35_11crystal_toe2py7PyRigidE10try_borrow0BP_, symObjAddr: 0x33C, symBinAddr: 0x66A8, symSize: 0x24 }
  - { offset: 0x12779, size: 0x8, addend: 0x0, symName: __RNCNvMs0_NtCsinFlhxATJYn_4pyo36pycellINtB7_5PyRefNtNtCs1NyPVrLiP35_11crystal_toe2py7PyTowerE10try_borrow0BP_, symObjAddr: 0x360, symBinAddr: 0x66CC, symSize: 0x24 }
  - { offset: 0x127BD, size: 0x8, addend: 0x0, symName: __RNCNvMs0_NtCsinFlhxATJYn_4pyo36pycellINtB7_5PyRefNtNtCs1NyPVrLiP35_11crystal_toe2py7PyTruthE10try_borrow0BP_, symObjAddr: 0x384, symBinAddr: 0x66F0, symSize: 0x24 }
  - { offset: 0x12801, size: 0x8, addend: 0x0, symName: __RNCNvMs0_NtCsinFlhxATJYn_4pyo36pycellINtB7_5PyRefNtNtCs1NyPVrLiP35_11crystal_toe2py8PyArcadeE10try_borrow0BP_, symObjAddr: 0x3A8, symBinAddr: 0x6714, symSize: 0x24 }
  - { offset: 0x12845, size: 0x8, addend: 0x0, symName: __RNCNvMs0_NtCsinFlhxATJYn_4pyo36pycellINtB7_5PyRefNtNtCs1NyPVrLiP35_11crystal_toe2py8PyMixingE10try_borrow0BP_, symObjAddr: 0x3CC, symBinAddr: 0x6738, symSize: 0x24 }
  - { offset: 0x12889, size: 0x8, addend: 0x0, symName: __RNCNvMs0_NtCsinFlhxATJYn_4pyo36pycellINtB7_5PyRefNtNtCs1NyPVrLiP35_11crystal_toe2py8PyOpticsE10try_borrow0BP_, symObjAddr: 0x3F0, symBinAddr: 0x675C, symSize: 0x24 }
  - { offset: 0x128CD, size: 0x8, addend: 0x0, symName: __RNCNvMs0_NtCsinFlhxATJYn_4pyo36pycellINtB7_5PyRefNtNtCs1NyPVrLiP35_11crystal_toe2py8PyPlasmaE10try_borrow0BP_, symObjAddr: 0x414, symBinAddr: 0x6780, symSize: 0x24 }
  - { offset: 0x12911, size: 0x8, addend: 0x0, symName: __RNCNvMs0_NtCsinFlhxATJYn_4pyo36pycellINtB7_5PyRefNtNtCs1NyPVrLiP35_11crystal_toe2py8PyThermoE10try_borrow0BP_, symObjAddr: 0x438, symBinAddr: 0x67A4, symSize: 0x24 }
  - { offset: 0x12955, size: 0x8, addend: 0x0, symName: __RNCNvMs0_NtCsinFlhxATJYn_4pyo36pycellINtB7_5PyRefNtNtCs1NyPVrLiP35_11crystal_toe2py9PyGravityE10try_borrow0BP_, symObjAddr: 0x45C, symBinAddr: 0x67C8, symSize: 0x24 }
  - { offset: 0x12999, size: 0x8, addend: 0x0, symName: __RNCNvMs0_NtCsinFlhxATJYn_4pyo36pycellINtB7_5PyRefNtNtCs1NyPVrLiP35_11crystal_toe2py9PyNuclearE10try_borrow0BP_, symObjAddr: 0x480, symBinAddr: 0x67EC, symSize: 0x24 }
  - { offset: 0x129DD, size: 0x8, addend: 0x0, symName: __RNCNvMs0_NtCsinFlhxATJYn_4pyo36pycellINtB7_5PyRefNtNtCs1NyPVrLiP35_11crystal_toe2py9PyProteinE10try_borrow0BP_, symObjAddr: 0x4A4, symBinAddr: 0x6810, symSize: 0x24 }
  - { offset: 0x12A2D, size: 0x8, addend: 0x0, symName: __RNCNvMsd_NtCsinFlhxATJYn_4pyo36pycellINtB7_8PyRefMutNtNtCs1NyPVrLiP35_11crystal_toe2py14PyAlgebraStateE10try_borrow0BS_, symObjAddr: 0x4C8, symBinAddr: 0x6834, symSize: 0x24 }
  - { offset: 0x132F9, size: 0x8, addend: 0x0, symName: __RNvXs2_NtCsinFlhxATJYn_4pyo36pycellINtB5_5PyRefNtNtCs1NyPVrLiP35_11crystal_toe2py11PyClassicalENtNtNtCs7dfkhshTrE4_4core3ops5deref5Deref5derefBN_, symObjAddr: 0xF88, symBinAddr: 0x72F4, symSize: 0x78 }
  - { offset: 0x13330, size: 0x8, addend: 0x0, symName: __RNvXs2_NtCsinFlhxATJYn_4pyo36pycellINtB5_5PyRefNtNtCs1NyPVrLiP35_11crystal_toe2py11PyCondensedENtNtNtCs7dfkhshTrE4_4core3ops5deref5Deref5derefBN_, symObjAddr: 0x1000, symBinAddr: 0x736C, symSize: 0x78 }
  - { offset: 0x13367, size: 0x8, addend: 0x0, symName: __RNvXs2_NtCsinFlhxATJYn_4pyo36pycellINtB5_5PyRefNtNtCs1NyPVrLiP35_11crystal_toe2py11PyFriedmannENtNtNtCs7dfkhshTrE4_4core3ops5deref5Deref5derefBN_, symObjAddr: 0x1078, symBinAddr: 0x73E4, symSize: 0x78 }
  - { offset: 0x1339E, size: 0x8, addend: 0x0, symName: __RNvXs2_NtCsinFlhxATJYn_4pyo36pycellINtB5_5PyRefNtNtCs1NyPVrLiP35_11crystal_toe2py11PyHierarchyENtNtNtCs7dfkhshTrE4_4core3ops5deref5Deref5derefBN_, symObjAddr: 0x10F0, symBinAddr: 0x745C, symSize: 0x78 }
  - { offset: 0x133D5, size: 0x8, addend: 0x0, symName: __RNvXs2_NtCsinFlhxATJYn_4pyo36pycellINtB5_5PyRefNtNtCs1NyPVrLiP35_11crystal_toe2py13PyAlphaProtonENtNtNtCs7dfkhshTrE4_4core3ops5deref5Deref5derefBN_, symObjAddr: 0x1168, symBinAddr: 0x74D4, symSize: 0x78 }
  - { offset: 0x1340C, size: 0x8, addend: 0x0, symName: __RNvXs2_NtCsinFlhxATJYn_4pyo36pycellINtB5_5PyRefNtNtCs1NyPVrLiP35_11crystal_toe2py13PyCrossDomainENtNtNtCs7dfkhshTrE4_4core3ops5deref5Deref5derefBN_, symObjAddr: 0x11E0, symBinAddr: 0x754C, symSize: 0x78 }
  - { offset: 0x13443, size: 0x8, addend: 0x0, symName: __RNvXs2_NtCsinFlhxATJYn_4pyo36pycellINtB5_5PyRefNtNtCs1NyPVrLiP35_11crystal_toe2py14PyAlgebraStateENtNtNtCs7dfkhshTrE4_4core3ops5deref5Deref5derefBN_, symObjAddr: 0x1258, symBinAddr: 0x75C4, symSize: 0x74 }
  - { offset: 0x1347A, size: 0x8, addend: 0x0, symName: __RNvXs2_NtCsinFlhxATJYn_4pyo36pycellINtB5_5PyRefNtNtCs1NyPVrLiP35_11crystal_toe2py4PyEMENtNtNtCs7dfkhshTrE4_4core3ops5deref5Deref5derefBN_, symObjAddr: 0x12CC, symBinAddr: 0x7638, symSize: 0x78 }
  - { offset: 0x134B1, size: 0x8, addend: 0x0, symName: __RNvXs2_NtCsinFlhxATJYn_4pyo36pycellINtB5_5PyRefNtNtCs1NyPVrLiP35_11crystal_toe2py4PyGRENtNtNtCs7dfkhshTrE4_4core3ops5deref5Deref5derefBN_, symObjAddr: 0x1344, symBinAddr: 0x76B0, symSize: 0x78 }
  - { offset: 0x134E8, size: 0x8, addend: 0x0, symName: __RNvXs2_NtCsinFlhxATJYn_4pyo36pycellINtB5_5PyRefNtNtCs1NyPVrLiP35_11crystal_toe2py4PyGWENtNtNtCs7dfkhshTrE4_4core3ops5deref5Deref5derefBN_, symObjAddr: 0x13BC, symBinAddr: 0x7728, symSize: 0x78 }
  - { offset: 0x1351F, size: 0x8, addend: 0x0, symName: __RNvXs2_NtCsinFlhxATJYn_4pyo36pycellINtB5_5PyRefNtNtCs1NyPVrLiP35_11crystal_toe2py4PyMDENtNtNtCs7dfkhshTrE4_4core3ops5deref5Deref5derefBN_, symObjAddr: 0x1434, symBinAddr: 0x77A0, symSize: 0x78 }
  - { offset: 0x13556, size: 0x8, addend: 0x0, symName: __RNvXs2_NtCsinFlhxATJYn_4pyo36pycellINtB5_5PyRefNtNtCs1NyPVrLiP35_11crystal_toe2py5PyBioENtNtNtCs7dfkhshTrE4_4core3ops5deref5Deref5derefBN_, symObjAddr: 0x14AC, symBinAddr: 0x7818, symSize: 0x78 }
  - { offset: 0x1358D, size: 0x8, addend: 0x0, symName: __RNvXs2_NtCsinFlhxATJYn_4pyo36pycellINtB5_5PyRefNtNtCs1NyPVrLiP35_11crystal_toe2py5PyCFDENtNtNtCs7dfkhshTrE4_4core3ops5deref5Deref5derefBN_, symObjAddr: 0x1524, symBinAddr: 0x7890, symSize: 0x78 }
  - { offset: 0x135C4, size: 0x8, addend: 0x0, symName: __RNvXs2_NtCsinFlhxATJYn_4pyo36pycellINtB5_5PyRefNtNtCs1NyPVrLiP35_11crystal_toe2py5PyQCDENtNtNtCs7dfkhshTrE4_4core3ops5deref5Deref5derefBN_, symObjAddr: 0x159C, symBinAddr: 0x7908, symSize: 0x78 }
  - { offset: 0x135FB, size: 0x8, addend: 0x0, symName: __RNvXs2_NtCsinFlhxATJYn_4pyo36pycellINtB5_5PyRefNtNtCs1NyPVrLiP35_11crystal_toe2py5PyQFTENtNtNtCs7dfkhshTrE4_4core3ops5deref5Deref5derefBN_, symObjAddr: 0x1614, symBinAddr: 0x7980, symSize: 0x78 }
  - { offset: 0x13632, size: 0x8, addend: 0x0, symName: __RNvXs2_NtCsinFlhxATJYn_4pyo36pycellINtB5_5PyRefNtNtCs1NyPVrLiP35_11crystal_toe2py5PyToeENtNtNtCs7dfkhshTrE4_4core3ops5deref5Deref5derefBN_, symObjAddr: 0x168C, symBinAddr: 0x79F8, symSize: 0x74 }
  - { offset: 0x13669, size: 0x8, addend: 0x0, symName: __RNvXs2_NtCsinFlhxATJYn_4pyo36pycellINtB5_5PyRefNtNtCs1NyPVrLiP35_11crystal_toe2py6PyChemENtNtNtCs7dfkhshTrE4_4core3ops5deref5Deref5derefBN_, symObjAddr: 0x1700, symBinAddr: 0x7A6C, symSize: 0x78 }
  - { offset: 0x136A0, size: 0x8, addend: 0x0, symName: __RNvXs2_NtCsinFlhxATJYn_4pyo36pycellINtB5_5PyRefNtNtCs1NyPVrLiP35_11crystal_toe2py7PyAstroENtNtNtCs7dfkhshTrE4_4core3ops5deref5Deref5derefBN_, symObjAddr: 0x1778, symBinAddr: 0x7AE4, symSize: 0x78 }
  - { offset: 0x136D7, size: 0x8, addend: 0x0, symName: __RNvXs2_NtCsinFlhxATJYn_4pyo36pycellINtB5_5PyRefNtNtCs1NyPVrLiP35_11crystal_toe2py7PyCosmoENtNtNtCs7dfkhshTrE4_4core3ops5deref5Deref5derefBN_, symObjAddr: 0x17F0, symBinAddr: 0x7B5C, symSize: 0x78 }
  - { offset: 0x1370E, size: 0x8, addend: 0x0, symName: __RNvXs2_NtCsinFlhxATJYn_4pyo36pycellINtB5_5PyRefNtNtCs1NyPVrLiP35_11crystal_toe2py7PyDecayENtNtNtCs7dfkhshTrE4_4core3ops5deref5Deref5derefBN_, symObjAddr: 0x1868, symBinAddr: 0x7BD4, symSize: 0x78 }
  - { offset: 0x13745, size: 0x8, addend: 0x0, symName: __RNvXs2_NtCsinFlhxATJYn_4pyo36pycellINtB5_5PyRefNtNtCs1NyPVrLiP35_11crystal_toe2py7PyGaugeENtNtNtCs7dfkhshTrE4_4core3ops5deref5Deref5derefBN_, symObjAddr: 0x18E0, symBinAddr: 0x7C4C, symSize: 0x78 }
  - { offset: 0x1377C, size: 0x8, addend: 0x0, symName: __RNvXs2_NtCsinFlhxATJYn_4pyo36pycellINtB5_5PyRefNtNtCs1NyPVrLiP35_11crystal_toe2py7PyNBodyENtNtNtCs7dfkhshTrE4_4core3ops5deref5Deref5derefBN_, symObjAddr: 0x1958, symBinAddr: 0x7CC4, symSize: 0x78 }
  - { offset: 0x137B3, size: 0x8, addend: 0x0, symName: __RNvXs2_NtCsinFlhxATJYn_4pyo36pycellINtB5_5PyRefNtNtCs1NyPVrLiP35_11crystal_toe2py7PyQInfoENtNtNtCs7dfkhshTrE4_4core3ops5deref5Deref5derefBN_, symObjAddr: 0x19D0, symBinAddr: 0x7D3C, symSize: 0x78 }
  - { offset: 0x137EA, size: 0x8, addend: 0x0, symName: __RNvXs2_NtCsinFlhxATJYn_4pyo36pycellINtB5_5PyRefNtNtCs1NyPVrLiP35_11crystal_toe2py7PyRigidENtNtNtCs7dfkhshTrE4_4core3ops5deref5Deref5derefBN_, symObjAddr: 0x1A48, symBinAddr: 0x7DB4, symSize: 0x78 }
  - { offset: 0x13821, size: 0x8, addend: 0x0, symName: __RNvXs2_NtCsinFlhxATJYn_4pyo36pycellINtB5_5PyRefNtNtCs1NyPVrLiP35_11crystal_toe2py7PyTowerENtNtNtCs7dfkhshTrE4_4core3ops5deref5Deref5derefBN_, symObjAddr: 0x1AC0, symBinAddr: 0x7E2C, symSize: 0x78 }
  - { offset: 0x13858, size: 0x8, addend: 0x0, symName: __RNvXs2_NtCsinFlhxATJYn_4pyo36pycellINtB5_5PyRefNtNtCs1NyPVrLiP35_11crystal_toe2py7PyTruthENtNtNtCs7dfkhshTrE4_4core3ops5deref5Deref5derefBN_, symObjAddr: 0x1B38, symBinAddr: 0x7EA4, symSize: 0x74 }
  - { offset: 0x1388F, size: 0x8, addend: 0x0, symName: __RNvXs2_NtCsinFlhxATJYn_4pyo36pycellINtB5_5PyRefNtNtCs1NyPVrLiP35_11crystal_toe2py8PyArcadeENtNtNtCs7dfkhshTrE4_4core3ops5deref5Deref5derefBN_, symObjAddr: 0x1BAC, symBinAddr: 0x7F18, symSize: 0x78 }
  - { offset: 0x138C6, size: 0x8, addend: 0x0, symName: __RNvXs2_NtCsinFlhxATJYn_4pyo36pycellINtB5_5PyRefNtNtCs1NyPVrLiP35_11crystal_toe2py8PyMixingENtNtNtCs7dfkhshTrE4_4core3ops5deref5Deref5derefBN_, symObjAddr: 0x1C24, symBinAddr: 0x7F90, symSize: 0x78 }
  - { offset: 0x138FD, size: 0x8, addend: 0x0, symName: __RNvXs2_NtCsinFlhxATJYn_4pyo36pycellINtB5_5PyRefNtNtCs1NyPVrLiP35_11crystal_toe2py8PyOpticsENtNtNtCs7dfkhshTrE4_4core3ops5deref5Deref5derefBN_, symObjAddr: 0x1C9C, symBinAddr: 0x8008, symSize: 0x78 }
  - { offset: 0x13934, size: 0x8, addend: 0x0, symName: __RNvXs2_NtCsinFlhxATJYn_4pyo36pycellINtB5_5PyRefNtNtCs1NyPVrLiP35_11crystal_toe2py8PyPlasmaENtNtNtCs7dfkhshTrE4_4core3ops5deref5Deref5derefBN_, symObjAddr: 0x1D14, symBinAddr: 0x8080, symSize: 0x78 }
  - { offset: 0x1396B, size: 0x8, addend: 0x0, symName: __RNvXs2_NtCsinFlhxATJYn_4pyo36pycellINtB5_5PyRefNtNtCs1NyPVrLiP35_11crystal_toe2py8PyThermoENtNtNtCs7dfkhshTrE4_4core3ops5deref5Deref5derefBN_, symObjAddr: 0x1D8C, symBinAddr: 0x80F8, symSize: 0x78 }
  - { offset: 0x139A2, size: 0x8, addend: 0x0, symName: __RNvXs2_NtCsinFlhxATJYn_4pyo36pycellINtB5_5PyRefNtNtCs1NyPVrLiP35_11crystal_toe2py9PyGravityENtNtNtCs7dfkhshTrE4_4core3ops5deref5Deref5derefBN_, symObjAddr: 0x1E04, symBinAddr: 0x8170, symSize: 0x78 }
  - { offset: 0x139D9, size: 0x8, addend: 0x0, symName: __RNvXs2_NtCsinFlhxATJYn_4pyo36pycellINtB5_5PyRefNtNtCs1NyPVrLiP35_11crystal_toe2py9PyNuclearENtNtNtCs7dfkhshTrE4_4core3ops5deref5Deref5derefBN_, symObjAddr: 0x1E7C, symBinAddr: 0x81E8, symSize: 0x78 }
  - { offset: 0x13A10, size: 0x8, addend: 0x0, symName: __RNvXs2_NtCsinFlhxATJYn_4pyo36pycellINtB5_5PyRefNtNtCs1NyPVrLiP35_11crystal_toe2py9PyProteinENtNtNtCs7dfkhshTrE4_4core3ops5deref5Deref5derefBN_, symObjAddr: 0x1EF4, symBinAddr: 0x8260, symSize: 0x78 }
  - { offset: 0x13A4D, size: 0x8, addend: 0x0, symName: __RNvXsg_NtCsinFlhxATJYn_4pyo36pycellINtB5_8PyRefMutNtNtCs1NyPVrLiP35_11crystal_toe2py14PyAlgebraStateENtNtNtCs7dfkhshTrE4_4core3ops5deref8DerefMut9deref_mutBQ_, symObjAddr: 0x3CF4, symBinAddr: 0xA060, symSize: 0x74 }
  - { offset: 0x15B4A, size: 0x8, addend: 0x0, symName: __RNvXs6_NtCsinFlhxATJYn_4pyo310conversionINtNtB7_6pycell5PyRefNtNtCs1NyPVrLiP35_11crystal_toe2py11PyClassicalENtB5_17FromPyObjectBound20from_py_object_boundB11_, symObjAddr: 0x1F6C, symBinAddr: 0x82D8, symSize: 0x34 }
  - { offset: 0x15B81, size: 0x8, addend: 0x0, symName: __RNvXs6_NtCsinFlhxATJYn_4pyo310conversionINtNtB7_6pycell5PyRefNtNtCs1NyPVrLiP35_11crystal_toe2py11PyCondensedENtB5_17FromPyObjectBound20from_py_object_boundB11_, symObjAddr: 0x1FA0, symBinAddr: 0x830C, symSize: 0x34 }
  - { offset: 0x15BB8, size: 0x8, addend: 0x0, symName: __RNvXs6_NtCsinFlhxATJYn_4pyo310conversionINtNtB7_6pycell5PyRefNtNtCs1NyPVrLiP35_11crystal_toe2py11PyFriedmannENtB5_17FromPyObjectBound20from_py_object_boundB11_, symObjAddr: 0x1FD4, symBinAddr: 0x8340, symSize: 0x34 }
  - { offset: 0x15BEF, size: 0x8, addend: 0x0, symName: __RNvXs6_NtCsinFlhxATJYn_4pyo310conversionINtNtB7_6pycell5PyRefNtNtCs1NyPVrLiP35_11crystal_toe2py11PyHierarchyENtB5_17FromPyObjectBound20from_py_object_boundB11_, symObjAddr: 0x2008, symBinAddr: 0x8374, symSize: 0x34 }
  - { offset: 0x15C26, size: 0x8, addend: 0x0, symName: __RNvXs6_NtCsinFlhxATJYn_4pyo310conversionINtNtB7_6pycell5PyRefNtNtCs1NyPVrLiP35_11crystal_toe2py13PyAlphaProtonENtB5_17FromPyObjectBound20from_py_object_boundB11_, symObjAddr: 0x203C, symBinAddr: 0x83A8, symSize: 0x34 }
  - { offset: 0x15C5D, size: 0x8, addend: 0x0, symName: __RNvXs6_NtCsinFlhxATJYn_4pyo310conversionINtNtB7_6pycell5PyRefNtNtCs1NyPVrLiP35_11crystal_toe2py13PyCrossDomainENtB5_17FromPyObjectBound20from_py_object_boundB11_, symObjAddr: 0x2070, symBinAddr: 0x83DC, symSize: 0x34 }
  - { offset: 0x15C94, size: 0x8, addend: 0x0, symName: __RNvXs6_NtCsinFlhxATJYn_4pyo310conversionINtNtB7_6pycell5PyRefNtNtCs1NyPVrLiP35_11crystal_toe2py14PyAlgebraStateENtB5_17FromPyObjectBound20from_py_object_boundB11_, symObjAddr: 0x20A4, symBinAddr: 0x8410, symSize: 0x34 }
  - { offset: 0x15CCB, size: 0x8, addend: 0x0, symName: __RNvXs6_NtCsinFlhxATJYn_4pyo310conversionINtNtB7_6pycell5PyRefNtNtCs1NyPVrLiP35_11crystal_toe2py4PyEMENtB5_17FromPyObjectBound20from_py_object_boundB11_, symObjAddr: 0x20D8, symBinAddr: 0x8444, symSize: 0x34 }
  - { offset: 0x15D02, size: 0x8, addend: 0x0, symName: __RNvXs6_NtCsinFlhxATJYn_4pyo310conversionINtNtB7_6pycell5PyRefNtNtCs1NyPVrLiP35_11crystal_toe2py4PyGRENtB5_17FromPyObjectBound20from_py_object_boundB11_, symObjAddr: 0x210C, symBinAddr: 0x8478, symSize: 0x34 }
  - { offset: 0x15D39, size: 0x8, addend: 0x0, symName: __RNvXs6_NtCsinFlhxATJYn_4pyo310conversionINtNtB7_6pycell5PyRefNtNtCs1NyPVrLiP35_11crystal_toe2py4PyGWENtB5_17FromPyObjectBound20from_py_object_boundB11_, symObjAddr: 0x2140, symBinAddr: 0x84AC, symSize: 0x34 }
  - { offset: 0x15D70, size: 0x8, addend: 0x0, symName: __RNvXs6_NtCsinFlhxATJYn_4pyo310conversionINtNtB7_6pycell5PyRefNtNtCs1NyPVrLiP35_11crystal_toe2py4PyMDENtB5_17FromPyObjectBound20from_py_object_boundB11_, symObjAddr: 0x2174, symBinAddr: 0x84E0, symSize: 0x34 }
  - { offset: 0x15DA7, size: 0x8, addend: 0x0, symName: __RNvXs6_NtCsinFlhxATJYn_4pyo310conversionINtNtB7_6pycell5PyRefNtNtCs1NyPVrLiP35_11crystal_toe2py5PyBioENtB5_17FromPyObjectBound20from_py_object_boundB11_, symObjAddr: 0x21A8, symBinAddr: 0x8514, symSize: 0x34 }
  - { offset: 0x15DDE, size: 0x8, addend: 0x0, symName: __RNvXs6_NtCsinFlhxATJYn_4pyo310conversionINtNtB7_6pycell5PyRefNtNtCs1NyPVrLiP35_11crystal_toe2py5PyCFDENtB5_17FromPyObjectBound20from_py_object_boundB11_, symObjAddr: 0x21DC, symBinAddr: 0x8548, symSize: 0x34 }
  - { offset: 0x15E15, size: 0x8, addend: 0x0, symName: __RNvXs6_NtCsinFlhxATJYn_4pyo310conversionINtNtB7_6pycell5PyRefNtNtCs1NyPVrLiP35_11crystal_toe2py5PyQCDENtB5_17FromPyObjectBound20from_py_object_boundB11_, symObjAddr: 0x2210, symBinAddr: 0x857C, symSize: 0x34 }
  - { offset: 0x15E4C, size: 0x8, addend: 0x0, symName: __RNvXs6_NtCsinFlhxATJYn_4pyo310conversionINtNtB7_6pycell5PyRefNtNtCs1NyPVrLiP35_11crystal_toe2py5PyQFTENtB5_17FromPyObjectBound20from_py_object_boundB11_, symObjAddr: 0x2244, symBinAddr: 0x85B0, symSize: 0x34 }
  - { offset: 0x15E83, size: 0x8, addend: 0x0, symName: __RNvXs6_NtCsinFlhxATJYn_4pyo310conversionINtNtB7_6pycell5PyRefNtNtCs1NyPVrLiP35_11crystal_toe2py5PyToeENtB5_17FromPyObjectBound20from_py_object_boundB11_, symObjAddr: 0x2278, symBinAddr: 0x85E4, symSize: 0x34 }
  - { offset: 0x15EBA, size: 0x8, addend: 0x0, symName: __RNvXs6_NtCsinFlhxATJYn_4pyo310conversionINtNtB7_6pycell5PyRefNtNtCs1NyPVrLiP35_11crystal_toe2py6PyChemENtB5_17FromPyObjectBound20from_py_object_boundB11_, symObjAddr: 0x22AC, symBinAddr: 0x8618, symSize: 0x34 }
  - { offset: 0x15EF1, size: 0x8, addend: 0x0, symName: __RNvXs6_NtCsinFlhxATJYn_4pyo310conversionINtNtB7_6pycell5PyRefNtNtCs1NyPVrLiP35_11crystal_toe2py7PyAstroENtB5_17FromPyObjectBound20from_py_object_boundB11_, symObjAddr: 0x22E0, symBinAddr: 0x864C, symSize: 0x34 }
  - { offset: 0x15F28, size: 0x8, addend: 0x0, symName: __RNvXs6_NtCsinFlhxATJYn_4pyo310conversionINtNtB7_6pycell5PyRefNtNtCs1NyPVrLiP35_11crystal_toe2py7PyCosmoENtB5_17FromPyObjectBound20from_py_object_boundB11_, symObjAddr: 0x2314, symBinAddr: 0x8680, symSize: 0x34 }
  - { offset: 0x15F5F, size: 0x8, addend: 0x0, symName: __RNvXs6_NtCsinFlhxATJYn_4pyo310conversionINtNtB7_6pycell5PyRefNtNtCs1NyPVrLiP35_11crystal_toe2py7PyDecayENtB5_17FromPyObjectBound20from_py_object_boundB11_, symObjAddr: 0x2348, symBinAddr: 0x86B4, symSize: 0x34 }
  - { offset: 0x15F96, size: 0x8, addend: 0x0, symName: __RNvXs6_NtCsinFlhxATJYn_4pyo310conversionINtNtB7_6pycell5PyRefNtNtCs1NyPVrLiP35_11crystal_toe2py7PyGaugeENtB5_17FromPyObjectBound20from_py_object_boundB11_, symObjAddr: 0x237C, symBinAddr: 0x86E8, symSize: 0x34 }
  - { offset: 0x15FCD, size: 0x8, addend: 0x0, symName: __RNvXs6_NtCsinFlhxATJYn_4pyo310conversionINtNtB7_6pycell5PyRefNtNtCs1NyPVrLiP35_11crystal_toe2py7PyNBodyENtB5_17FromPyObjectBound20from_py_object_boundB11_, symObjAddr: 0x23B0, symBinAddr: 0x871C, symSize: 0x34 }
  - { offset: 0x16004, size: 0x8, addend: 0x0, symName: __RNvXs6_NtCsinFlhxATJYn_4pyo310conversionINtNtB7_6pycell5PyRefNtNtCs1NyPVrLiP35_11crystal_toe2py7PyQInfoENtB5_17FromPyObjectBound20from_py_object_boundB11_, symObjAddr: 0x23E4, symBinAddr: 0x8750, symSize: 0x34 }
  - { offset: 0x1603B, size: 0x8, addend: 0x0, symName: __RNvXs6_NtCsinFlhxATJYn_4pyo310conversionINtNtB7_6pycell5PyRefNtNtCs1NyPVrLiP35_11crystal_toe2py7PyRigidENtB5_17FromPyObjectBound20from_py_object_boundB11_, symObjAddr: 0x2418, symBinAddr: 0x8784, symSize: 0x34 }
  - { offset: 0x16072, size: 0x8, addend: 0x0, symName: __RNvXs6_NtCsinFlhxATJYn_4pyo310conversionINtNtB7_6pycell5PyRefNtNtCs1NyPVrLiP35_11crystal_toe2py7PyTowerENtB5_17FromPyObjectBound20from_py_object_boundB11_, symObjAddr: 0x244C, symBinAddr: 0x87B8, symSize: 0x34 }
  - { offset: 0x160A9, size: 0x8, addend: 0x0, symName: __RNvXs6_NtCsinFlhxATJYn_4pyo310conversionINtNtB7_6pycell5PyRefNtNtCs1NyPVrLiP35_11crystal_toe2py7PyTruthENtB5_17FromPyObjectBound20from_py_object_boundB11_, symObjAddr: 0x2480, symBinAddr: 0x87EC, symSize: 0x34 }
  - { offset: 0x160E0, size: 0x8, addend: 0x0, symName: __RNvXs6_NtCsinFlhxATJYn_4pyo310conversionINtNtB7_6pycell5PyRefNtNtCs1NyPVrLiP35_11crystal_toe2py8PyArcadeENtB5_17FromPyObjectBound20from_py_object_boundB11_, symObjAddr: 0x24B4, symBinAddr: 0x8820, symSize: 0x34 }
  - { offset: 0x16117, size: 0x8, addend: 0x0, symName: __RNvXs6_NtCsinFlhxATJYn_4pyo310conversionINtNtB7_6pycell5PyRefNtNtCs1NyPVrLiP35_11crystal_toe2py8PyMixingENtB5_17FromPyObjectBound20from_py_object_boundB11_, symObjAddr: 0x24E8, symBinAddr: 0x8854, symSize: 0x34 }
  - { offset: 0x1614E, size: 0x8, addend: 0x0, symName: __RNvXs6_NtCsinFlhxATJYn_4pyo310conversionINtNtB7_6pycell5PyRefNtNtCs1NyPVrLiP35_11crystal_toe2py8PyOpticsENtB5_17FromPyObjectBound20from_py_object_boundB11_, symObjAddr: 0x251C, symBinAddr: 0x8888, symSize: 0x34 }
  - { offset: 0x16185, size: 0x8, addend: 0x0, symName: __RNvXs6_NtCsinFlhxATJYn_4pyo310conversionINtNtB7_6pycell5PyRefNtNtCs1NyPVrLiP35_11crystal_toe2py8PyPlasmaENtB5_17FromPyObjectBound20from_py_object_boundB11_, symObjAddr: 0x2550, symBinAddr: 0x88BC, symSize: 0x34 }
  - { offset: 0x161BC, size: 0x8, addend: 0x0, symName: __RNvXs6_NtCsinFlhxATJYn_4pyo310conversionINtNtB7_6pycell5PyRefNtNtCs1NyPVrLiP35_11crystal_toe2py8PyThermoENtB5_17FromPyObjectBound20from_py_object_boundB11_, symObjAddr: 0x2584, symBinAddr: 0x88F0, symSize: 0x34 }
  - { offset: 0x161F3, size: 0x8, addend: 0x0, symName: __RNvXs6_NtCsinFlhxATJYn_4pyo310conversionINtNtB7_6pycell5PyRefNtNtCs1NyPVrLiP35_11crystal_toe2py9PyGravityENtB5_17FromPyObjectBound20from_py_object_boundB11_, symObjAddr: 0x25B8, symBinAddr: 0x8924, symSize: 0x34 }
  - { offset: 0x1622A, size: 0x8, addend: 0x0, symName: __RNvXs6_NtCsinFlhxATJYn_4pyo310conversionINtNtB7_6pycell5PyRefNtNtCs1NyPVrLiP35_11crystal_toe2py9PyNuclearENtB5_17FromPyObjectBound20from_py_object_boundB11_, symObjAddr: 0x25EC, symBinAddr: 0x8958, symSize: 0x34 }
  - { offset: 0x16261, size: 0x8, addend: 0x0, symName: __RNvXs6_NtCsinFlhxATJYn_4pyo310conversionINtNtB7_6pycell5PyRefNtNtCs1NyPVrLiP35_11crystal_toe2py9PyProteinENtB5_17FromPyObjectBound20from_py_object_boundB11_, symObjAddr: 0x2620, symBinAddr: 0x898C, symSize: 0x34 }
  - { offset: 0x16298, size: 0x8, addend: 0x0, symName: __RNvXs6_NtCsinFlhxATJYn_4pyo310conversionINtNtB7_6pycell8PyRefMutNtNtCs1NyPVrLiP35_11crystal_toe2py14PyAlgebraStateENtB5_17FromPyObjectBound20from_py_object_boundB14_, symObjAddr: 0x2654, symBinAddr: 0x89C0, symSize: 0x34 }
  - { offset: 0x162D5, size: 0x8, addend: 0x0, symName: __RNvXs9_NtCsinFlhxATJYn_4pyo310conversionINtNtB7_6pycell5PyRefNtNtCs1NyPVrLiP35_11crystal_toe2py11PyClassicalENtB5_12FromPyObject13extract_boundB11_, symObjAddr: 0x2688, symBinAddr: 0x89F4, symSize: 0xA4 }
  - { offset: 0x1632B, size: 0x8, addend: 0x0, symName: __RNvXs9_NtCsinFlhxATJYn_4pyo310conversionINtNtB7_6pycell5PyRefNtNtCs1NyPVrLiP35_11crystal_toe2py11PyCondensedENtB5_12FromPyObject13extract_boundB11_, symObjAddr: 0x272C, symBinAddr: 0x8A98, symSize: 0xA4 }
  - { offset: 0x16381, size: 0x8, addend: 0x0, symName: __RNvXs9_NtCsinFlhxATJYn_4pyo310conversionINtNtB7_6pycell5PyRefNtNtCs1NyPVrLiP35_11crystal_toe2py11PyFriedmannENtB5_12FromPyObject13extract_boundB11_, symObjAddr: 0x27D0, symBinAddr: 0x8B3C, symSize: 0xA4 }
  - { offset: 0x163D7, size: 0x8, addend: 0x0, symName: __RNvXs9_NtCsinFlhxATJYn_4pyo310conversionINtNtB7_6pycell5PyRefNtNtCs1NyPVrLiP35_11crystal_toe2py11PyHierarchyENtB5_12FromPyObject13extract_boundB11_, symObjAddr: 0x2874, symBinAddr: 0x8BE0, symSize: 0xA4 }
  - { offset: 0x1642D, size: 0x8, addend: 0x0, symName: __RNvXs9_NtCsinFlhxATJYn_4pyo310conversionINtNtB7_6pycell5PyRefNtNtCs1NyPVrLiP35_11crystal_toe2py13PyAlphaProtonENtB5_12FromPyObject13extract_boundB11_, symObjAddr: 0x2918, symBinAddr: 0x8C84, symSize: 0xA4 }
  - { offset: 0x16483, size: 0x8, addend: 0x0, symName: __RNvXs9_NtCsinFlhxATJYn_4pyo310conversionINtNtB7_6pycell5PyRefNtNtCs1NyPVrLiP35_11crystal_toe2py13PyCrossDomainENtB5_12FromPyObject13extract_boundB11_, symObjAddr: 0x29BC, symBinAddr: 0x8D28, symSize: 0xA4 }
  - { offset: 0x164D9, size: 0x8, addend: 0x0, symName: __RNvXs9_NtCsinFlhxATJYn_4pyo310conversionINtNtB7_6pycell5PyRefNtNtCs1NyPVrLiP35_11crystal_toe2py14PyAlgebraStateENtB5_12FromPyObject13extract_boundB11_, symObjAddr: 0x2A60, symBinAddr: 0x8DCC, symSize: 0xA4 }
  - { offset: 0x1652F, size: 0x8, addend: 0x0, symName: __RNvXs9_NtCsinFlhxATJYn_4pyo310conversionINtNtB7_6pycell5PyRefNtNtCs1NyPVrLiP35_11crystal_toe2py4PyEMENtB5_12FromPyObject13extract_boundB11_, symObjAddr: 0x2B04, symBinAddr: 0x8E70, symSize: 0xA4 }
  - { offset: 0x16585, size: 0x8, addend: 0x0, symName: __RNvXs9_NtCsinFlhxATJYn_4pyo310conversionINtNtB7_6pycell5PyRefNtNtCs1NyPVrLiP35_11crystal_toe2py4PyGRENtB5_12FromPyObject13extract_boundB11_, symObjAddr: 0x2BA8, symBinAddr: 0x8F14, symSize: 0xA4 }
  - { offset: 0x165DB, size: 0x8, addend: 0x0, symName: __RNvXs9_NtCsinFlhxATJYn_4pyo310conversionINtNtB7_6pycell5PyRefNtNtCs1NyPVrLiP35_11crystal_toe2py4PyGWENtB5_12FromPyObject13extract_boundB11_, symObjAddr: 0x2C4C, symBinAddr: 0x8FB8, symSize: 0xA4 }
  - { offset: 0x16631, size: 0x8, addend: 0x0, symName: __RNvXs9_NtCsinFlhxATJYn_4pyo310conversionINtNtB7_6pycell5PyRefNtNtCs1NyPVrLiP35_11crystal_toe2py4PyMDENtB5_12FromPyObject13extract_boundB11_, symObjAddr: 0x2CF0, symBinAddr: 0x905C, symSize: 0xA4 }
  - { offset: 0x16687, size: 0x8, addend: 0x0, symName: __RNvXs9_NtCsinFlhxATJYn_4pyo310conversionINtNtB7_6pycell5PyRefNtNtCs1NyPVrLiP35_11crystal_toe2py5PyBioENtB5_12FromPyObject13extract_boundB11_, symObjAddr: 0x2D94, symBinAddr: 0x9100, symSize: 0xA4 }
  - { offset: 0x166DD, size: 0x8, addend: 0x0, symName: __RNvXs9_NtCsinFlhxATJYn_4pyo310conversionINtNtB7_6pycell5PyRefNtNtCs1NyPVrLiP35_11crystal_toe2py5PyCFDENtB5_12FromPyObject13extract_boundB11_, symObjAddr: 0x2E38, symBinAddr: 0x91A4, symSize: 0xA4 }
  - { offset: 0x16733, size: 0x8, addend: 0x0, symName: __RNvXs9_NtCsinFlhxATJYn_4pyo310conversionINtNtB7_6pycell5PyRefNtNtCs1NyPVrLiP35_11crystal_toe2py5PyQCDENtB5_12FromPyObject13extract_boundB11_, symObjAddr: 0x2EDC, symBinAddr: 0x9248, symSize: 0xA4 }
  - { offset: 0x16789, size: 0x8, addend: 0x0, symName: __RNvXs9_NtCsinFlhxATJYn_4pyo310conversionINtNtB7_6pycell5PyRefNtNtCs1NyPVrLiP35_11crystal_toe2py5PyQFTENtB5_12FromPyObject13extract_boundB11_, symObjAddr: 0x2F80, symBinAddr: 0x92EC, symSize: 0xA4 }
  - { offset: 0x167DF, size: 0x8, addend: 0x0, symName: __RNvXs9_NtCsinFlhxATJYn_4pyo310conversionINtNtB7_6pycell5PyRefNtNtCs1NyPVrLiP35_11crystal_toe2py5PyToeENtB5_12FromPyObject13extract_boundB11_, symObjAddr: 0x3024, symBinAddr: 0x9390, symSize: 0xA4 }
  - { offset: 0x16835, size: 0x8, addend: 0x0, symName: __RNvXs9_NtCsinFlhxATJYn_4pyo310conversionINtNtB7_6pycell5PyRefNtNtCs1NyPVrLiP35_11crystal_toe2py6PyChemENtB5_12FromPyObject13extract_boundB11_, symObjAddr: 0x30C8, symBinAddr: 0x9434, symSize: 0xA4 }
  - { offset: 0x1688B, size: 0x8, addend: 0x0, symName: __RNvXs9_NtCsinFlhxATJYn_4pyo310conversionINtNtB7_6pycell5PyRefNtNtCs1NyPVrLiP35_11crystal_toe2py7PyAstroENtB5_12FromPyObject13extract_boundB11_, symObjAddr: 0x316C, symBinAddr: 0x94D8, symSize: 0xA4 }
  - { offset: 0x168E1, size: 0x8, addend: 0x0, symName: __RNvXs9_NtCsinFlhxATJYn_4pyo310conversionINtNtB7_6pycell5PyRefNtNtCs1NyPVrLiP35_11crystal_toe2py7PyCosmoENtB5_12FromPyObject13extract_boundB11_, symObjAddr: 0x3210, symBinAddr: 0x957C, symSize: 0xA4 }
  - { offset: 0x16937, size: 0x8, addend: 0x0, symName: __RNvXs9_NtCsinFlhxATJYn_4pyo310conversionINtNtB7_6pycell5PyRefNtNtCs1NyPVrLiP35_11crystal_toe2py7PyDecayENtB5_12FromPyObject13extract_boundB11_, symObjAddr: 0x32B4, symBinAddr: 0x9620, symSize: 0xA4 }
  - { offset: 0x1698D, size: 0x8, addend: 0x0, symName: __RNvXs9_NtCsinFlhxATJYn_4pyo310conversionINtNtB7_6pycell5PyRefNtNtCs1NyPVrLiP35_11crystal_toe2py7PyGaugeENtB5_12FromPyObject13extract_boundB11_, symObjAddr: 0x3358, symBinAddr: 0x96C4, symSize: 0xA4 }
  - { offset: 0x169E3, size: 0x8, addend: 0x0, symName: __RNvXs9_NtCsinFlhxATJYn_4pyo310conversionINtNtB7_6pycell5PyRefNtNtCs1NyPVrLiP35_11crystal_toe2py7PyNBodyENtB5_12FromPyObject13extract_boundB11_, symObjAddr: 0x33FC, symBinAddr: 0x9768, symSize: 0xA4 }
  - { offset: 0x16A39, size: 0x8, addend: 0x0, symName: __RNvXs9_NtCsinFlhxATJYn_4pyo310conversionINtNtB7_6pycell5PyRefNtNtCs1NyPVrLiP35_11crystal_toe2py7PyQInfoENtB5_12FromPyObject13extract_boundB11_, symObjAddr: 0x34A0, symBinAddr: 0x980C, symSize: 0xA4 }
  - { offset: 0x16A8F, size: 0x8, addend: 0x0, symName: __RNvXs9_NtCsinFlhxATJYn_4pyo310conversionINtNtB7_6pycell5PyRefNtNtCs1NyPVrLiP35_11crystal_toe2py7PyRigidENtB5_12FromPyObject13extract_boundB11_, symObjAddr: 0x3544, symBinAddr: 0x98B0, symSize: 0xA4 }
  - { offset: 0x16AE5, size: 0x8, addend: 0x0, symName: __RNvXs9_NtCsinFlhxATJYn_4pyo310conversionINtNtB7_6pycell5PyRefNtNtCs1NyPVrLiP35_11crystal_toe2py7PyTowerENtB5_12FromPyObject13extract_boundB11_, symObjAddr: 0x35E8, symBinAddr: 0x9954, symSize: 0xA4 }
  - { offset: 0x16B3B, size: 0x8, addend: 0x0, symName: __RNvXs9_NtCsinFlhxATJYn_4pyo310conversionINtNtB7_6pycell5PyRefNtNtCs1NyPVrLiP35_11crystal_toe2py7PyTruthENtB5_12FromPyObject13extract_boundB11_, symObjAddr: 0x368C, symBinAddr: 0x99F8, symSize: 0xA4 }
  - { offset: 0x16B91, size: 0x8, addend: 0x0, symName: __RNvXs9_NtCsinFlhxATJYn_4pyo310conversionINtNtB7_6pycell5PyRefNtNtCs1NyPVrLiP35_11crystal_toe2py8PyArcadeENtB5_12FromPyObject13extract_boundB11_, symObjAddr: 0x3730, symBinAddr: 0x9A9C, symSize: 0xA4 }
  - { offset: 0x16BE7, size: 0x8, addend: 0x0, symName: __RNvXs9_NtCsinFlhxATJYn_4pyo310conversionINtNtB7_6pycell5PyRefNtNtCs1NyPVrLiP35_11crystal_toe2py8PyMixingENtB5_12FromPyObject13extract_boundB11_, symObjAddr: 0x37D4, symBinAddr: 0x9B40, symSize: 0xA4 }
  - { offset: 0x16C3D, size: 0x8, addend: 0x0, symName: __RNvXs9_NtCsinFlhxATJYn_4pyo310conversionINtNtB7_6pycell5PyRefNtNtCs1NyPVrLiP35_11crystal_toe2py8PyOpticsENtB5_12FromPyObject13extract_boundB11_, symObjAddr: 0x3878, symBinAddr: 0x9BE4, symSize: 0xA4 }
  - { offset: 0x16C93, size: 0x8, addend: 0x0, symName: __RNvXs9_NtCsinFlhxATJYn_4pyo310conversionINtNtB7_6pycell5PyRefNtNtCs1NyPVrLiP35_11crystal_toe2py8PyPlasmaENtB5_12FromPyObject13extract_boundB11_, symObjAddr: 0x391C, symBinAddr: 0x9C88, symSize: 0xA4 }
  - { offset: 0x16CE9, size: 0x8, addend: 0x0, symName: __RNvXs9_NtCsinFlhxATJYn_4pyo310conversionINtNtB7_6pycell5PyRefNtNtCs1NyPVrLiP35_11crystal_toe2py8PyThermoENtB5_12FromPyObject13extract_boundB11_, symObjAddr: 0x39C0, symBinAddr: 0x9D2C, symSize: 0xA4 }
  - { offset: 0x16D3F, size: 0x8, addend: 0x0, symName: __RNvXs9_NtCsinFlhxATJYn_4pyo310conversionINtNtB7_6pycell5PyRefNtNtCs1NyPVrLiP35_11crystal_toe2py9PyGravityENtB5_12FromPyObject13extract_boundB11_, symObjAddr: 0x3A64, symBinAddr: 0x9DD0, symSize: 0xA4 }
  - { offset: 0x16D95, size: 0x8, addend: 0x0, symName: __RNvXs9_NtCsinFlhxATJYn_4pyo310conversionINtNtB7_6pycell5PyRefNtNtCs1NyPVrLiP35_11crystal_toe2py9PyNuclearENtB5_12FromPyObject13extract_boundB11_, symObjAddr: 0x3B08, symBinAddr: 0x9E74, symSize: 0xA4 }
  - { offset: 0x16DEB, size: 0x8, addend: 0x0, symName: __RNvXs9_NtCsinFlhxATJYn_4pyo310conversionINtNtB7_6pycell5PyRefNtNtCs1NyPVrLiP35_11crystal_toe2py9PyProteinENtB5_12FromPyObject13extract_boundB11_, symObjAddr: 0x3BAC, symBinAddr: 0x9F18, symSize: 0xA4 }
  - { offset: 0x16E47, size: 0x8, addend: 0x0, symName: __RNvXsa_NtCsinFlhxATJYn_4pyo310conversionINtNtB7_6pycell8PyRefMutNtNtCs1NyPVrLiP35_11crystal_toe2py14PyAlgebraStateENtB5_12FromPyObject13extract_boundB14_, symObjAddr: 0x3C50, symBinAddr: 0x9FBC, symSize: 0xA4 }
  - { offset: 0x1A858, size: 0x8, addend: 0x0, symName: __RNvXs1_NtCs7dfkhshTrE4_4core7convertNtNtCsinFlhxATJYn_4pyo36pycell13PyBorrowErrorINtB5_4IntoNtNtBC_3err5PyErrE4intoCs1NyPVrLiP35_11crystal_toe, symObjAddr: 0xF50, symBinAddr: 0x72BC, symSize: 0x1C }
  - { offset: 0x1A898, size: 0x8, addend: 0x0, symName: __RNvXs1_NtCs7dfkhshTrE4_4core7convertNtNtCsinFlhxATJYn_4pyo36pycell16PyBorrowMutErrorINtB5_4IntoNtNtBC_3err5PyErrE4intoCs1NyPVrLiP35_11crystal_toe, symObjAddr: 0xF6C, symBinAddr: 0x72D8, symSize: 0x1C }
  - { offset: 0x1B008, size: 0x8, addend: 0x0, symName: __RNvMs0_NtCsinFlhxATJYn_4pyo36pycellINtB5_5PyRefNtNtCs1NyPVrLiP35_11crystal_toe2py11PyClassicalE10try_borrowBN_, symObjAddr: 0x4EC, symBinAddr: 0x6858, symSize: 0x4C }
  - { offset: 0x1B05F, size: 0x8, addend: 0x0, symName: __RNvMs0_NtCsinFlhxATJYn_4pyo36pycellINtB5_5PyRefNtNtCs1NyPVrLiP35_11crystal_toe2py11PyCondensedE10try_borrowBN_, symObjAddr: 0x538, symBinAddr: 0x68A4, symSize: 0x4C }
  - { offset: 0x1B0B6, size: 0x8, addend: 0x0, symName: __RNvMs0_NtCsinFlhxATJYn_4pyo36pycellINtB5_5PyRefNtNtCs1NyPVrLiP35_11crystal_toe2py11PyFriedmannE10try_borrowBN_, symObjAddr: 0x584, symBinAddr: 0x68F0, symSize: 0x4C }
  - { offset: 0x1B10D, size: 0x8, addend: 0x0, symName: __RNvMs0_NtCsinFlhxATJYn_4pyo36pycellINtB5_5PyRefNtNtCs1NyPVrLiP35_11crystal_toe2py11PyHierarchyE10try_borrowBN_, symObjAddr: 0x5D0, symBinAddr: 0x693C, symSize: 0x4C }
  - { offset: 0x1B164, size: 0x8, addend: 0x0, symName: __RNvMs0_NtCsinFlhxATJYn_4pyo36pycellINtB5_5PyRefNtNtCs1NyPVrLiP35_11crystal_toe2py13PyAlphaProtonE10try_borrowBN_, symObjAddr: 0x61C, symBinAddr: 0x6988, symSize: 0x4C }
  - { offset: 0x1B1BB, size: 0x8, addend: 0x0, symName: __RNvMs0_NtCsinFlhxATJYn_4pyo36pycellINtB5_5PyRefNtNtCs1NyPVrLiP35_11crystal_toe2py13PyCrossDomainE10try_borrowBN_, symObjAddr: 0x668, symBinAddr: 0x69D4, symSize: 0x4C }
  - { offset: 0x1B226, size: 0x8, addend: 0x0, symName: __RNvMs0_NtCsinFlhxATJYn_4pyo36pycellINtB5_5PyRefNtNtCs1NyPVrLiP35_11crystal_toe2py14PyAlgebraStateE10try_borrowBN_, symObjAddr: 0x6B4, symBinAddr: 0x6A20, symSize: 0x4C }
  - { offset: 0x1B27D, size: 0x8, addend: 0x0, symName: __RNvMs0_NtCsinFlhxATJYn_4pyo36pycellINtB5_5PyRefNtNtCs1NyPVrLiP35_11crystal_toe2py4PyEME10try_borrowBN_, symObjAddr: 0x700, symBinAddr: 0x6A6C, symSize: 0x4C }
  - { offset: 0x1B2D4, size: 0x8, addend: 0x0, symName: __RNvMs0_NtCsinFlhxATJYn_4pyo36pycellINtB5_5PyRefNtNtCs1NyPVrLiP35_11crystal_toe2py4PyGRE10try_borrowBN_, symObjAddr: 0x74C, symBinAddr: 0x6AB8, symSize: 0x4C }
  - { offset: 0x1B32B, size: 0x8, addend: 0x0, symName: __RNvMs0_NtCsinFlhxATJYn_4pyo36pycellINtB5_5PyRefNtNtCs1NyPVrLiP35_11crystal_toe2py4PyGWE10try_borrowBN_, symObjAddr: 0x798, symBinAddr: 0x6B04, symSize: 0x4C }
  - { offset: 0x1B382, size: 0x8, addend: 0x0, symName: __RNvMs0_NtCsinFlhxATJYn_4pyo36pycellINtB5_5PyRefNtNtCs1NyPVrLiP35_11crystal_toe2py4PyMDE10try_borrowBN_, symObjAddr: 0x7E4, symBinAddr: 0x6B50, symSize: 0x4C }
  - { offset: 0x1B3D9, size: 0x8, addend: 0x0, symName: __RNvMs0_NtCsinFlhxATJYn_4pyo36pycellINtB5_5PyRefNtNtCs1NyPVrLiP35_11crystal_toe2py5PyBioE10try_borrowBN_, symObjAddr: 0x830, symBinAddr: 0x6B9C, symSize: 0x4C }
  - { offset: 0x1B430, size: 0x8, addend: 0x0, symName: __RNvMs0_NtCsinFlhxATJYn_4pyo36pycellINtB5_5PyRefNtNtCs1NyPVrLiP35_11crystal_toe2py5PyCFDE10try_borrowBN_, symObjAddr: 0x87C, symBinAddr: 0x6BE8, symSize: 0x4C }
  - { offset: 0x1B487, size: 0x8, addend: 0x0, symName: __RNvMs0_NtCsinFlhxATJYn_4pyo36pycellINtB5_5PyRefNtNtCs1NyPVrLiP35_11crystal_toe2py5PyQCDE10try_borrowBN_, symObjAddr: 0x8C8, symBinAddr: 0x6C34, symSize: 0x4C }
  - { offset: 0x1B4DE, size: 0x8, addend: 0x0, symName: __RNvMs0_NtCsinFlhxATJYn_4pyo36pycellINtB5_5PyRefNtNtCs1NyPVrLiP35_11crystal_toe2py5PyQFTE10try_borrowBN_, symObjAddr: 0x914, symBinAddr: 0x6C80, symSize: 0x4C }
  - { offset: 0x1B535, size: 0x8, addend: 0x0, symName: __RNvMs0_NtCsinFlhxATJYn_4pyo36pycellINtB5_5PyRefNtNtCs1NyPVrLiP35_11crystal_toe2py5PyToeE10try_borrowBN_, symObjAddr: 0x960, symBinAddr: 0x6CCC, symSize: 0x4C }
  - { offset: 0x1B58C, size: 0x8, addend: 0x0, symName: __RNvMs0_NtCsinFlhxATJYn_4pyo36pycellINtB5_5PyRefNtNtCs1NyPVrLiP35_11crystal_toe2py6PyChemE10try_borrowBN_, symObjAddr: 0x9AC, symBinAddr: 0x6D18, symSize: 0x4C }
  - { offset: 0x1B5E3, size: 0x8, addend: 0x0, symName: __RNvMs0_NtCsinFlhxATJYn_4pyo36pycellINtB5_5PyRefNtNtCs1NyPVrLiP35_11crystal_toe2py7PyAstroE10try_borrowBN_, symObjAddr: 0x9F8, symBinAddr: 0x6D64, symSize: 0x4C }
  - { offset: 0x1B63A, size: 0x8, addend: 0x0, symName: __RNvMs0_NtCsinFlhxATJYn_4pyo36pycellINtB5_5PyRefNtNtCs1NyPVrLiP35_11crystal_toe2py7PyCosmoE10try_borrowBN_, symObjAddr: 0xA44, symBinAddr: 0x6DB0, symSize: 0x4C }
  - { offset: 0x1B691, size: 0x8, addend: 0x0, symName: __RNvMs0_NtCsinFlhxATJYn_4pyo36pycellINtB5_5PyRefNtNtCs1NyPVrLiP35_11crystal_toe2py7PyDecayE10try_borrowBN_, symObjAddr: 0xA90, symBinAddr: 0x6DFC, symSize: 0x4C }
  - { offset: 0x1B6E8, size: 0x8, addend: 0x0, symName: __RNvMs0_NtCsinFlhxATJYn_4pyo36pycellINtB5_5PyRefNtNtCs1NyPVrLiP35_11crystal_toe2py7PyGaugeE10try_borrowBN_, symObjAddr: 0xADC, symBinAddr: 0x6E48, symSize: 0x4C }
  - { offset: 0x1B73F, size: 0x8, addend: 0x0, symName: __RNvMs0_NtCsinFlhxATJYn_4pyo36pycellINtB5_5PyRefNtNtCs1NyPVrLiP35_11crystal_toe2py7PyNBodyE10try_borrowBN_, symObjAddr: 0xB28, symBinAddr: 0x6E94, symSize: 0x4C }
  - { offset: 0x1B796, size: 0x8, addend: 0x0, symName: __RNvMs0_NtCsinFlhxATJYn_4pyo36pycellINtB5_5PyRefNtNtCs1NyPVrLiP35_11crystal_toe2py7PyQInfoE10try_borrowBN_, symObjAddr: 0xB74, symBinAddr: 0x6EE0, symSize: 0x4C }
  - { offset: 0x1B7ED, size: 0x8, addend: 0x0, symName: __RNvMs0_NtCsinFlhxATJYn_4pyo36pycellINtB5_5PyRefNtNtCs1NyPVrLiP35_11crystal_toe2py7PyRigidE10try_borrowBN_, symObjAddr: 0xBC0, symBinAddr: 0x6F2C, symSize: 0x4C }
  - { offset: 0x1B844, size: 0x8, addend: 0x0, symName: __RNvMs0_NtCsinFlhxATJYn_4pyo36pycellINtB5_5PyRefNtNtCs1NyPVrLiP35_11crystal_toe2py7PyTowerE10try_borrowBN_, symObjAddr: 0xC0C, symBinAddr: 0x6F78, symSize: 0x4C }
  - { offset: 0x1B89B, size: 0x8, addend: 0x0, symName: __RNvMs0_NtCsinFlhxATJYn_4pyo36pycellINtB5_5PyRefNtNtCs1NyPVrLiP35_11crystal_toe2py7PyTruthE10try_borrowBN_, symObjAddr: 0xC58, symBinAddr: 0x6FC4, symSize: 0x4C }
  - { offset: 0x1B8F2, size: 0x8, addend: 0x0, symName: __RNvMs0_NtCsinFlhxATJYn_4pyo36pycellINtB5_5PyRefNtNtCs1NyPVrLiP35_11crystal_toe2py8PyArcadeE10try_borrowBN_, symObjAddr: 0xCA4, symBinAddr: 0x7010, symSize: 0x4C }
  - { offset: 0x1B949, size: 0x8, addend: 0x0, symName: __RNvMs0_NtCsinFlhxATJYn_4pyo36pycellINtB5_5PyRefNtNtCs1NyPVrLiP35_11crystal_toe2py8PyMixingE10try_borrowBN_, symObjAddr: 0xCF0, symBinAddr: 0x705C, symSize: 0x4C }
  - { offset: 0x1B9A0, size: 0x8, addend: 0x0, symName: __RNvMs0_NtCsinFlhxATJYn_4pyo36pycellINtB5_5PyRefNtNtCs1NyPVrLiP35_11crystal_toe2py8PyOpticsE10try_borrowBN_, symObjAddr: 0xD3C, symBinAddr: 0x70A8, symSize: 0x4C }
  - { offset: 0x1B9F7, size: 0x8, addend: 0x0, symName: __RNvMs0_NtCsinFlhxATJYn_4pyo36pycellINtB5_5PyRefNtNtCs1NyPVrLiP35_11crystal_toe2py8PyPlasmaE10try_borrowBN_, symObjAddr: 0xD88, symBinAddr: 0x70F4, symSize: 0x4C }
  - { offset: 0x1BA4E, size: 0x8, addend: 0x0, symName: __RNvMs0_NtCsinFlhxATJYn_4pyo36pycellINtB5_5PyRefNtNtCs1NyPVrLiP35_11crystal_toe2py8PyThermoE10try_borrowBN_, symObjAddr: 0xDD4, symBinAddr: 0x7140, symSize: 0x4C }
  - { offset: 0x1BAA5, size: 0x8, addend: 0x0, symName: __RNvMs0_NtCsinFlhxATJYn_4pyo36pycellINtB5_5PyRefNtNtCs1NyPVrLiP35_11crystal_toe2py9PyGravityE10try_borrowBN_, symObjAddr: 0xE20, symBinAddr: 0x718C, symSize: 0x4C }
  - { offset: 0x1BAFC, size: 0x8, addend: 0x0, symName: __RNvMs0_NtCsinFlhxATJYn_4pyo36pycellINtB5_5PyRefNtNtCs1NyPVrLiP35_11crystal_toe2py9PyNuclearE10try_borrowBN_, symObjAddr: 0xE6C, symBinAddr: 0x71D8, symSize: 0x4C }
  - { offset: 0x1BB53, size: 0x8, addend: 0x0, symName: __RNvMs0_NtCsinFlhxATJYn_4pyo36pycellINtB5_5PyRefNtNtCs1NyPVrLiP35_11crystal_toe2py9PyProteinE10try_borrowBN_, symObjAddr: 0xEB8, symBinAddr: 0x7224, symSize: 0x4C }
  - { offset: 0x1BB9D, size: 0x8, addend: 0x0, symName: __RNvMsd_NtCsinFlhxATJYn_4pyo36pycellINtB5_8PyRefMutNtNtCs1NyPVrLiP35_11crystal_toe2py14PyAlgebraStateE10try_borrowBQ_, symObjAddr: 0xF04, symBinAddr: 0x7270, symSize: 0x4C }
  - { offset: 0x1C4F2, size: 0x8, addend: 0x0, symName: __RNvNtCs1NyPVrLiP35_11crystal_toe12cross_domain12cross_traces, symObjAddr: 0x0, symBinAddr: 0xA0D4, symSize: 0x644 }
  - { offset: 0x1C509, size: 0x8, addend: 0x0, symName: __RNvNtCs1NyPVrLiP35_11crystal_toe12cross_domain12cross_traces, symObjAddr: 0x0, symBinAddr: 0xA0D4, symSize: 0x644 }
  - { offset: 0x1C526, size: 0x8, addend: 0x0, symName: __RNvNtCs1NyPVrLiP35_11crystal_toe12cross_domain13n_cross_links, symObjAddr: 0x644, symBinAddr: 0xA718, symSize: 0xB0 }
  - { offset: 0x1C543, size: 0x8, addend: 0x0, symName: __RNvNtCs1NyPVrLiP35_11crystal_toe12cross_domain15n_shared_ratios, symObjAddr: 0x6F4, symBinAddr: 0xA7C8, symSize: 0x68 }
  - { offset: 0x1C790, size: 0x8, addend: 0x0, symName: __RNvMNvNvXs2g_NtCs1NyPVrLiP35_11crystal_toe2pyINtNtNtCsinFlhxATJYn_4pyo35impl_7pyclass20PyClassImplCollectorNtBb_7PyTruthEINtBK_9PyMethodsB1H_E10py_methods5ITEMSB1H_24___pymethod___richcmp____, symObjAddr: 0x0, symBinAddr: 0xA830, symSize: 0x48 }
  - { offset: 0x1C7BE, size: 0x8, addend: 0x0, symName: __RNvNvXs10_NtCs1NyPVrLiP35_11crystal_toe2pyNtB8_8PyMixingNtNtNtCsinFlhxATJYn_4pyo35impl_7pyclass11PyClassImpl10items_iter15INTRINSIC_ITEMS, symObjAddr: 0x55588, symBinAddr: 0x1180A8, symSize: 0x0 }
  - { offset: 0x1C7DE, size: 0x8, addend: 0x0, symName: __RNvNvXs10_NtCs1NyPVrLiP35_11crystal_toe2pyNtB8_8PyMixingNtNtNtCsinFlhxATJYn_4pyo35impl_7pyclass11PyClassImpl16lazy_type_object11TYPE_OBJECT, symObjAddr: 0x55A58, symBinAddr: 0x194420, symSize: 0x0 }
  - { offset: 0x1C7FE, size: 0x8, addend: 0x0, symName: __RNvNvXs10_NtCs1NyPVrLiP35_11crystal_toe2pyNtB8_8PyMixingNtNtNtCsinFlhxATJYn_4pyo35impl_7pyclass11PyClassImpl3doc3DOC, symObjAddr: 0x55AB0, symBinAddr: 0x194478, symSize: 0x0 }
  - { offset: 0x1C80C, size: 0x8, addend: 0x0, symName: __RNvXs10_NtCs1NyPVrLiP35_11crystal_toe2pyNtB6_8PyMixingNtNtNtCsinFlhxATJYn_4pyo35impl_7pyclass11PyClassImpl10items_iter, symObjAddr: 0x40600, symBinAddr: 0x4AE30, symSize: 0x38 }
  - { offset: 0x1C847, size: 0x8, addend: 0x0, symName: __RNvXs10_NtCs1NyPVrLiP35_11crystal_toe2pyNtB6_8PyMixingNtNtNtCsinFlhxATJYn_4pyo35impl_7pyclass11PyClassImpl16lazy_type_object, symObjAddr: 0x40638, symBinAddr: 0x4AE68, symSize: 0xC }
  - { offset: 0x1C864, size: 0x8, addend: 0x0, symName: __RNvXs10_NtCs1NyPVrLiP35_11crystal_toe2pyNtB6_8PyMixingNtNtNtCsinFlhxATJYn_4pyo35impl_7pyclass11PyClassImpl3doc, symObjAddr: 0x40644, symBinAddr: 0x4AE74, symSize: 0x3C }
  - { offset: 0x1CBAC, size: 0x8, addend: 0x0, symName: __RNvNvXs15_NtCs1NyPVrLiP35_11crystal_toe2pyINtNtNtCsinFlhxATJYn_4pyo35impl_7pyclass20PyClassImplCollectorNtB8_8PyMixingEINtBH_9PyMethodsB1E_E10py_methods5ITEMS, symObjAddr: 0x50180, symBinAddr: 0x188980, symSize: 0x0 }
  - { offset: 0x1CBBE, size: 0x8, addend: 0x0, symName: __RNvNvNvXs15_NtCs1NyPVrLiP35_11crystal_toe2pyINtNtNtCsinFlhxATJYn_4pyo35impl_7pyclass20PyClassImplCollectorNtBa_8PyMixingEINtBJ_9PyMethodsB1G_E10py_methods5ITEMS10trampoline, symObjAddr: 0x3A8B8, symBinAddr: 0x450E8, symSize: 0x44 }
  - { offset: 0x1CBF8, size: 0x8, addend: 0x0, symName: __RNvNvNvXs15_NtCs1NyPVrLiP35_11crystal_toe2pyINtNtNtCsinFlhxATJYn_4pyo35impl_7pyclass20PyClassImplCollectorNtBa_8PyMixingEINtBJ_9PyMethodsB1G_E10py_methods5ITEMSs0_10trampoline, symObjAddr: 0x3A8FC, symBinAddr: 0x4512C, symSize: 0x44 }
  - { offset: 0x1CC32, size: 0x8, addend: 0x0, symName: __RNvNvNvXs15_NtCs1NyPVrLiP35_11crystal_toe2pyINtNtNtCsinFlhxATJYn_4pyo35impl_7pyclass20PyClassImplCollectorNtBa_8PyMixingEINtBJ_9PyMethodsB1G_E10py_methods5ITEMSs1_10trampoline, symObjAddr: 0x3A940, symBinAddr: 0x45170, symSize: 0x44 }
  - { offset: 0x1CC6C, size: 0x8, addend: 0x0, symName: __RNvNvNvXs15_NtCs1NyPVrLiP35_11crystal_toe2pyINtNtNtCsinFlhxATJYn_4pyo35impl_7pyclass20PyClassImplCollectorNtBa_8PyMixingEINtBJ_9PyMethodsB1G_E10py_methods5ITEMSs2_10trampoline, symObjAddr: 0x3A984, symBinAddr: 0x451B4, symSize: 0x44 }
  - { offset: 0x1CCA6, size: 0x8, addend: 0x0, symName: __RNvNvNvXs15_NtCs1NyPVrLiP35_11crystal_toe2pyINtNtNtCsinFlhxATJYn_4pyo35impl_7pyclass20PyClassImplCollectorNtBa_8PyMixingEINtBJ_9PyMethodsB1G_E10py_methods5ITEMSs3_10trampoline, symObjAddr: 0x3A9C8, symBinAddr: 0x451F8, symSize: 0x44 }
  - { offset: 0x1CCE0, size: 0x8, addend: 0x0, symName: __RNvNvNvXs15_NtCs1NyPVrLiP35_11crystal_toe2pyINtNtNtCsinFlhxATJYn_4pyo35impl_7pyclass20PyClassImplCollectorNtBa_8PyMixingEINtBJ_9PyMethodsB1G_E10py_methods5ITEMSs4_10trampoline, symObjAddr: 0x3AA0C, symBinAddr: 0x4523C, symSize: 0x44 }
  - { offset: 0x1CD1A, size: 0x8, addend: 0x0, symName: __RNvNvNvXs15_NtCs1NyPVrLiP35_11crystal_toe2pyINtNtNtCsinFlhxATJYn_4pyo35impl_7pyclass20PyClassImplCollectorNtBa_8PyMixingEINtBJ_9PyMethodsB1G_E10py_methods5ITEMSs5_10trampoline, symObjAddr: 0x3AA50, symBinAddr: 0x45280, symSize: 0x44 }
  - { offset: 0x1CD54, size: 0x8, addend: 0x0, symName: __RNvNvNvXs15_NtCs1NyPVrLiP35_11crystal_toe2pyINtNtNtCsinFlhxATJYn_4pyo35impl_7pyclass20PyClassImplCollectorNtBa_8PyMixingEINtBJ_9PyMethodsB1G_E10py_methods5ITEMSs6_10trampoline, symObjAddr: 0x3AA94, symBinAddr: 0x452C4, symSize: 0x44 }
  - { offset: 0x1CD8E, size: 0x8, addend: 0x0, symName: __RNvNvNvXs15_NtCs1NyPVrLiP35_11crystal_toe2pyINtNtNtCsinFlhxATJYn_4pyo35impl_7pyclass20PyClassImplCollectorNtBa_8PyMixingEINtBJ_9PyMethodsB1G_E10py_methods5ITEMSs7_10trampoline, symObjAddr: 0x3AAD8, symBinAddr: 0x45308, symSize: 0x44 }
  - { offset: 0x1CDC8, size: 0x8, addend: 0x0, symName: __RNvNvNvXs15_NtCs1NyPVrLiP35_11crystal_toe2pyINtNtNtCsinFlhxATJYn_4pyo35impl_7pyclass20PyClassImplCollectorNtBa_8PyMixingEINtBJ_9PyMethodsB1G_E10py_methods5ITEMSs8_10trampoline, symObjAddr: 0x3AB1C, symBinAddr: 0x4534C, symSize: 0x44 }
  - { offset: 0x1CE02, size: 0x8, addend: 0x0, symName: __RNvNvNvXs15_NtCs1NyPVrLiP35_11crystal_toe2pyINtNtNtCsinFlhxATJYn_4pyo35impl_7pyclass20PyClassImplCollectorNtBa_8PyMixingEINtBJ_9PyMethodsB1G_E10py_methods5ITEMSs9_10trampoline, symObjAddr: 0x3AB60, symBinAddr: 0x45390, symSize: 0x44 }
  - { offset: 0x1CE3C, size: 0x8, addend: 0x0, symName: __RNvNvNvXs15_NtCs1NyPVrLiP35_11crystal_toe2pyINtNtNtCsinFlhxATJYn_4pyo35impl_7pyclass20PyClassImplCollectorNtBa_8PyMixingEINtBJ_9PyMethodsB1G_E10py_methods5ITEMSs_10trampoline, symObjAddr: 0x3ABA4, symBinAddr: 0x453D4, symSize: 0x44 }
  - { offset: 0x1CE76, size: 0x8, addend: 0x0, symName: __RNvNvNvXs15_NtCs1NyPVrLiP35_11crystal_toe2pyINtNtNtCsinFlhxATJYn_4pyo35impl_7pyclass20PyClassImplCollectorNtBa_8PyMixingEINtBJ_9PyMethodsB1G_E10py_methods5ITEMSsa_10trampoline, symObjAddr: 0x3ABE8, symBinAddr: 0x45418, symSize: 0x44 }
  - { offset: 0x1CEB0, size: 0x8, addend: 0x0, symName: __RNvNvNvXs15_NtCs1NyPVrLiP35_11crystal_toe2pyINtNtNtCsinFlhxATJYn_4pyo35impl_7pyclass20PyClassImplCollectorNtBa_8PyMixingEINtBJ_9PyMethodsB1G_E10py_methods5ITEMSsb_10trampoline, symObjAddr: 0x3AC2C, symBinAddr: 0x4545C, symSize: 0x44 }
  - { offset: 0x1CEEA, size: 0x8, addend: 0x0, symName: __RNvNvNvXs15_NtCs1NyPVrLiP35_11crystal_toe2pyINtNtNtCsinFlhxATJYn_4pyo35impl_7pyclass20PyClassImplCollectorNtBa_8PyMixingEINtBJ_9PyMethodsB1G_E10py_methods5ITEMSsc_10trampoline, symObjAddr: 0x3AC70, symBinAddr: 0x454A0, symSize: 0x44 }
  - { offset: 0x1CF24, size: 0x8, addend: 0x0, symName: __RNvNvNvXs15_NtCs1NyPVrLiP35_11crystal_toe2pyINtNtNtCsinFlhxATJYn_4pyo35impl_7pyclass20PyClassImplCollectorNtBa_8PyMixingEINtBJ_9PyMethodsB1G_E10py_methods5ITEMSsd_10trampoline, symObjAddr: 0x3ACB4, symBinAddr: 0x454E4, symSize: 0x4C }
  - { offset: 0x1CF86, size: 0x8, addend: 0x0, symName: __RNvNvXs1G_NtCs1NyPVrLiP35_11crystal_toe2pyNtB8_9PyProteinNtNtNtCsinFlhxATJYn_4pyo35impl_7pyclass11PyClassImpl10items_iter15INTRINSIC_ITEMS, symObjAddr: 0x555A8, symBinAddr: 0x1180C8, symSize: 0x0 }
  - { offset: 0x1CFA6, size: 0x8, addend: 0x0, symName: __RNvNvXs1G_NtCs1NyPVrLiP35_11crystal_toe2pyNtB8_9PyProteinNtNtNtCsinFlhxATJYn_4pyo35impl_7pyclass11PyClassImpl16lazy_type_object11TYPE_OBJECT, symObjAddr: 0x55AD0, symBinAddr: 0x194498, symSize: 0x0 }
  - { offset: 0x1CFC6, size: 0x8, addend: 0x0, symName: __RNvNvXs1G_NtCs1NyPVrLiP35_11crystal_toe2pyNtB8_9PyProteinNtNtNtCsinFlhxATJYn_4pyo35impl_7pyclass11PyClassImpl3doc3DOC, symObjAddr: 0x55B28, symBinAddr: 0x1944F0, symSize: 0x0 }
  - { offset: 0x1CFD4, size: 0x8, addend: 0x0, symName: __RNvXs1G_NtCs1NyPVrLiP35_11crystal_toe2pyNtB6_9PyProteinNtNtNtCsinFlhxATJYn_4pyo35impl_7pyclass11PyClassImpl10items_iter, symObjAddr: 0x406C8, symBinAddr: 0x4AEF8, symSize: 0x38 }
  - { offset: 0x1D00F, size: 0x8, addend: 0x0, symName: __RNvXs1G_NtCs1NyPVrLiP35_11crystal_toe2pyNtB6_9PyProteinNtNtNtCsinFlhxATJYn_4pyo35impl_7pyclass11PyClassImpl16lazy_type_object, symObjAddr: 0x40700, symBinAddr: 0x4AF30, symSize: 0xC }
  - { offset: 0x1D02C, size: 0x8, addend: 0x0, symName: __RNvXs1G_NtCs1NyPVrLiP35_11crystal_toe2pyNtB6_9PyProteinNtNtNtCsinFlhxATJYn_4pyo35impl_7pyclass11PyClassImpl3doc, symObjAddr: 0x4070C, symBinAddr: 0x4AF3C, symSize: 0x3C }
  - { offset: 0x1D457, size: 0x8, addend: 0x0, symName: __RNvNvXs1L_NtCs1NyPVrLiP35_11crystal_toe2pyINtNtNtCsinFlhxATJYn_4pyo35impl_7pyclass20PyClassImplCollectorNtB8_9PyProteinEINtBH_9PyMethodsB1E_E10py_methods5ITEMS, symObjAddr: 0x505B0, symBinAddr: 0x188DB0, symSize: 0x0 }
  - { offset: 0x1D469, size: 0x8, addend: 0x0, symName: __RNvNvNvXs1L_NtCs1NyPVrLiP35_11crystal_toe2pyINtNtNtCsinFlhxATJYn_4pyo35impl_7pyclass20PyClassImplCollectorNtBa_9PyProteinEINtBJ_9PyMethodsB1G_E10py_methods5ITEMS10trampoline, symObjAddr: 0x3AD00, symBinAddr: 0x45530, symSize: 0x50 }
  - { offset: 0x1D4BF, size: 0x8, addend: 0x0, symName: __RNvNvNvXs1L_NtCs1NyPVrLiP35_11crystal_toe2pyINtNtNtCsinFlhxATJYn_4pyo35impl_7pyclass20PyClassImplCollectorNtBa_9PyProteinEINtBJ_9PyMethodsB1G_E10py_methods5ITEMSs0_10trampoline, symObjAddr: 0x3AD50, symBinAddr: 0x45580, symSize: 0x50 }
  - { offset: 0x1D515, size: 0x8, addend: 0x0, symName: __RNvNvNvXs1L_NtCs1NyPVrLiP35_11crystal_toe2pyINtNtNtCsinFlhxATJYn_4pyo35impl_7pyclass20PyClassImplCollectorNtBa_9PyProteinEINtBJ_9PyMethodsB1G_E10py_methods5ITEMSs1_10trampoline, symObjAddr: 0x3ADA0, symBinAddr: 0x455D0, symSize: 0x50 }
  - { offset: 0x1D56B, size: 0x8, addend: 0x0, symName: __RNvNvNvXs1L_NtCs1NyPVrLiP35_11crystal_toe2pyINtNtNtCsinFlhxATJYn_4pyo35impl_7pyclass20PyClassImplCollectorNtBa_9PyProteinEINtBJ_9PyMethodsB1G_E10py_methods5ITEMSs2_10trampoline, symObjAddr: 0x3ADF0, symBinAddr: 0x45620, symSize: 0x50 }
  - { offset: 0x1D5C1, size: 0x8, addend: 0x0, symName: __RNvNvNvXs1L_NtCs1NyPVrLiP35_11crystal_toe2pyINtNtNtCsinFlhxATJYn_4pyo35impl_7pyclass20PyClassImplCollectorNtBa_9PyProteinEINtBJ_9PyMethodsB1G_E10py_methods5ITEMSs3_10trampoline, symObjAddr: 0x3AE40, symBinAddr: 0x45670, symSize: 0x50 }
  - { offset: 0x1D617, size: 0x8, addend: 0x0, symName: __RNvNvNvXs1L_NtCs1NyPVrLiP35_11crystal_toe2pyINtNtNtCsinFlhxATJYn_4pyo35impl_7pyclass20PyClassImplCollectorNtBa_9PyProteinEINtBJ_9PyMethodsB1G_E10py_methods5ITEMSs4_10trampoline, symObjAddr: 0x3AE90, symBinAddr: 0x456C0, symSize: 0x50 }
  - { offset: 0x1D66D, size: 0x8, addend: 0x0, symName: __RNvNvNvXs1L_NtCs1NyPVrLiP35_11crystal_toe2pyINtNtNtCsinFlhxATJYn_4pyo35impl_7pyclass20PyClassImplCollectorNtBa_9PyProteinEINtBJ_9PyMethodsB1G_E10py_methods5ITEMSs5_10trampoline, symObjAddr: 0x3AEE0, symBinAddr: 0x45710, symSize: 0x50 }
  - { offset: 0x1D6C3, size: 0x8, addend: 0x0, symName: __RNvNvNvXs1L_NtCs1NyPVrLiP35_11crystal_toe2pyINtNtNtCsinFlhxATJYn_4pyo35impl_7pyclass20PyClassImplCollectorNtBa_9PyProteinEINtBJ_9PyMethodsB1G_E10py_methods5ITEMSs6_10trampoline, symObjAddr: 0x3AF30, symBinAddr: 0x45760, symSize: 0x50 }
  - { offset: 0x1D719, size: 0x8, addend: 0x0, symName: __RNvNvNvXs1L_NtCs1NyPVrLiP35_11crystal_toe2pyINtNtNtCsinFlhxATJYn_4pyo35impl_7pyclass20PyClassImplCollectorNtBa_9PyProteinEINtBJ_9PyMethodsB1G_E10py_methods5ITEMSs7_10trampoline, symObjAddr: 0x3AF80, symBinAddr: 0x457B0, symSize: 0x44 }
  - { offset: 0x1D753, size: 0x8, addend: 0x0, symName: __RNvNvNvXs1L_NtCs1NyPVrLiP35_11crystal_toe2pyINtNtNtCsinFlhxATJYn_4pyo35impl_7pyclass20PyClassImplCollectorNtBa_9PyProteinEINtBJ_9PyMethodsB1G_E10py_methods5ITEMSs8_10trampoline, symObjAddr: 0x3AFC4, symBinAddr: 0x457F4, symSize: 0x44 }
  - { offset: 0x1D78D, size: 0x8, addend: 0x0, symName: __RNvNvNvXs1L_NtCs1NyPVrLiP35_11crystal_toe2pyINtNtNtCsinFlhxATJYn_4pyo35impl_7pyclass20PyClassImplCollectorNtBa_9PyProteinEINtBJ_9PyMethodsB1G_E10py_methods5ITEMSs9_10trampoline, symObjAddr: 0x3B008, symBinAddr: 0x45838, symSize: 0x44 }
  - { offset: 0x1D7C7, size: 0x8, addend: 0x0, symName: __RNvNvNvXs1L_NtCs1NyPVrLiP35_11crystal_toe2pyINtNtNtCsinFlhxATJYn_4pyo35impl_7pyclass20PyClassImplCollectorNtBa_9PyProteinEINtBJ_9PyMethodsB1G_E10py_methods5ITEMSs_10trampoline, symObjAddr: 0x3B04C, symBinAddr: 0x4587C, symSize: 0x50 }
  - { offset: 0x1D81D, size: 0x8, addend: 0x0, symName: __RNvNvNvXs1L_NtCs1NyPVrLiP35_11crystal_toe2pyINtNtNtCsinFlhxATJYn_4pyo35impl_7pyclass20PyClassImplCollectorNtBa_9PyProteinEINtBJ_9PyMethodsB1G_E10py_methods5ITEMSsa_10trampoline, symObjAddr: 0x3B09C, symBinAddr: 0x458CC, symSize: 0x44 }
  - { offset: 0x1D857, size: 0x8, addend: 0x0, symName: __RNvNvNvXs1L_NtCs1NyPVrLiP35_11crystal_toe2pyINtNtNtCsinFlhxATJYn_4pyo35impl_7pyclass20PyClassImplCollectorNtBa_9PyProteinEINtBJ_9PyMethodsB1G_E10py_methods5ITEMSsb_10trampoline, symObjAddr: 0x3B0E0, symBinAddr: 0x45910, symSize: 0x44 }
  - { offset: 0x1D891, size: 0x8, addend: 0x0, symName: __RNvNvNvXs1L_NtCs1NyPVrLiP35_11crystal_toe2pyINtNtNtCsinFlhxATJYn_4pyo35impl_7pyclass20PyClassImplCollectorNtBa_9PyProteinEINtBJ_9PyMethodsB1G_E10py_methods5ITEMSsc_10trampoline, symObjAddr: 0x3B124, symBinAddr: 0x45954, symSize: 0x44 }
  - { offset: 0x1D8CB, size: 0x8, addend: 0x0, symName: __RNvNvNvXs1L_NtCs1NyPVrLiP35_11crystal_toe2pyINtNtNtCsinFlhxATJYn_4pyo35impl_7pyclass20PyClassImplCollectorNtBa_9PyProteinEINtBJ_9PyMethodsB1G_E10py_methods5ITEMSsd_10trampoline, symObjAddr: 0x3B168, symBinAddr: 0x45998, symSize: 0x44 }
  - { offset: 0x1D905, size: 0x8, addend: 0x0, symName: __RNvNvNvXs1L_NtCs1NyPVrLiP35_11crystal_toe2pyINtNtNtCsinFlhxATJYn_4pyo35impl_7pyclass20PyClassImplCollectorNtBa_9PyProteinEINtBJ_9PyMethodsB1G_E10py_methods5ITEMSse_10trampoline, symObjAddr: 0x3B1AC, symBinAddr: 0x459DC, symSize: 0x4C }
  - { offset: 0x1D967, size: 0x8, addend: 0x0, symName: __RNvNvXs1U_NtCs1NyPVrLiP35_11crystal_toe2pyNtB8_13PyCrossDomainNtNtNtCsinFlhxATJYn_4pyo35impl_7pyclass11PyClassImpl10items_iter15INTRINSIC_ITEMS, symObjAddr: 0x555C8, symBinAddr: 0x1180E8, symSize: 0x0 }
  - { offset: 0x1D987, size: 0x8, addend: 0x0, symName: __RNvNvXs1U_NtCs1NyPVrLiP35_11crystal_toe2pyNtB8_13PyCrossDomainNtNtNtCsinFlhxATJYn_4pyo35impl_7pyclass11PyClassImpl16lazy_type_object11TYPE_OBJECT, symObjAddr: 0x55B48, symBinAddr: 0x194510, symSize: 0x0 }
  - { offset: 0x1D9A7, size: 0x8, addend: 0x0, symName: __RNvNvXs1U_NtCs1NyPVrLiP35_11crystal_toe2pyNtB8_13PyCrossDomainNtNtNtCsinFlhxATJYn_4pyo35impl_7pyclass11PyClassImpl3doc3DOC, symObjAddr: 0x55BA0, symBinAddr: 0x194568, symSize: 0x0 }
  - { offset: 0x1D9B5, size: 0x8, addend: 0x0, symName: __RNvXs1U_NtCs1NyPVrLiP35_11crystal_toe2pyNtB6_13PyCrossDomainNtNtNtCsinFlhxATJYn_4pyo35impl_7pyclass11PyClassImpl10items_iter, symObjAddr: 0x4076C, symBinAddr: 0x4AF9C, symSize: 0x38 }
  - { offset: 0x1D9F0, size: 0x8, addend: 0x0, symName: __RNvXs1U_NtCs1NyPVrLiP35_11crystal_toe2pyNtB6_13PyCrossDomainNtNtNtCsinFlhxATJYn_4pyo35impl_7pyclass11PyClassImpl16lazy_type_object, symObjAddr: 0x407A4, symBinAddr: 0x4AFD4, symSize: 0xC }
  - { offset: 0x1DA0D, size: 0x8, addend: 0x0, symName: __RNvXs1U_NtCs1NyPVrLiP35_11crystal_toe2pyNtB6_13PyCrossDomainNtNtNtCsinFlhxATJYn_4pyo35impl_7pyclass11PyClassImpl3doc, symObjAddr: 0x407B0, symBinAddr: 0x4AFE0, symSize: 0x3C }
  - { offset: 0x1DB21, size: 0x8, addend: 0x0, symName: __RNvNvXs1Z_NtCs1NyPVrLiP35_11crystal_toe2pyINtNtNtCsinFlhxATJYn_4pyo35impl_7pyclass20PyClassImplCollectorNtB8_13PyCrossDomainEINtBH_9PyMethodsB1E_E10py_methods5ITEMS, symObjAddr: 0x506A0, symBinAddr: 0x188EA0, symSize: 0x0 }
  - { offset: 0x1DB33, size: 0x8, addend: 0x0, symName: __RNvNvNvXs1Z_NtCs1NyPVrLiP35_11crystal_toe2pyINtNtNtCsinFlhxATJYn_4pyo35impl_7pyclass20PyClassImplCollectorNtBa_13PyCrossDomainEINtBJ_9PyMethodsB1G_E10py_methods5ITEMS10trampoline, symObjAddr: 0x3B1F8, symBinAddr: 0x45A28, symSize: 0x44 }
  - { offset: 0x1DB6D, size: 0x8, addend: 0x0, symName: __RNvNvNvXs1Z_NtCs1NyPVrLiP35_11crystal_toe2pyINtNtNtCsinFlhxATJYn_4pyo35impl_7pyclass20PyClassImplCollectorNtBa_13PyCrossDomainEINtBJ_9PyMethodsB1G_E10py_methods5ITEMSs0_10trampoline, symObjAddr: 0x3B23C, symBinAddr: 0x45A6C, symSize: 0x44 }
  - { offset: 0x1DBA7, size: 0x8, addend: 0x0, symName: __RNvNvNvXs1Z_NtCs1NyPVrLiP35_11crystal_toe2pyINtNtNtCsinFlhxATJYn_4pyo35impl_7pyclass20PyClassImplCollectorNtBa_13PyCrossDomainEINtBJ_9PyMethodsB1G_E10py_methods5ITEMSs1_10trampoline, symObjAddr: 0x3B280, symBinAddr: 0x45AB0, symSize: 0x4C }
  - { offset: 0x1DBEF, size: 0x8, addend: 0x0, symName: __RNvNvNvXs1Z_NtCs1NyPVrLiP35_11crystal_toe2pyINtNtNtCsinFlhxATJYn_4pyo35impl_7pyclass20PyClassImplCollectorNtBa_13PyCrossDomainEINtBJ_9PyMethodsB1G_E10py_methods5ITEMSs_10trampoline, symObjAddr: 0x3B2CC, symBinAddr: 0x45AFC, symSize: 0x44 }
  - { offset: 0x1DC43, size: 0x8, addend: 0x0, symName: __RNvNvXs1e_NtCs1NyPVrLiP35_11crystal_toe2pyNtB8_13PyAlphaProtonNtNtNtCsinFlhxATJYn_4pyo35impl_7pyclass11PyClassImpl10items_iter15INTRINSIC_ITEMS, symObjAddr: 0x555E8, symBinAddr: 0x118108, symSize: 0x0 }
  - { offset: 0x1DC63, size: 0x8, addend: 0x0, symName: __RNvNvXs1e_NtCs1NyPVrLiP35_11crystal_toe2pyNtB8_13PyAlphaProtonNtNtNtCsinFlhxATJYn_4pyo35impl_7pyclass11PyClassImpl16lazy_type_object11TYPE_OBJECT, symObjAddr: 0x55BC0, symBinAddr: 0x194588, symSize: 0x0 }
  - { offset: 0x1DC83, size: 0x8, addend: 0x0, symName: __RNvNvXs1e_NtCs1NyPVrLiP35_11crystal_toe2pyNtB8_13PyAlphaProtonNtNtNtCsinFlhxATJYn_4pyo35impl_7pyclass11PyClassImpl3doc3DOC, symObjAddr: 0x55C18, symBinAddr: 0x1945E0, symSize: 0x0 }
  - { offset: 0x1DC91, size: 0x8, addend: 0x0, symName: __RNvXs1e_NtCs1NyPVrLiP35_11crystal_toe2pyNtB6_13PyAlphaProtonNtNtNtCsinFlhxATJYn_4pyo35impl_7pyclass11PyClassImpl10items_iter, symObjAddr: 0x40818, symBinAddr: 0x4B048, symSize: 0x38 }
  - { offset: 0x1DCCC, size: 0x8, addend: 0x0, symName: __RNvXs1e_NtCs1NyPVrLiP35_11crystal_toe2pyNtB6_13PyAlphaProtonNtNtNtCsinFlhxATJYn_4pyo35impl_7pyclass11PyClassImpl16lazy_type_object, symObjAddr: 0x40850, symBinAddr: 0x4B080, symSize: 0xC }
  - { offset: 0x1DCE9, size: 0x8, addend: 0x0, symName: __RNvXs1e_NtCs1NyPVrLiP35_11crystal_toe2pyNtB6_13PyAlphaProtonNtNtNtCsinFlhxATJYn_4pyo35impl_7pyclass11PyClassImpl3doc, symObjAddr: 0x4085C, symBinAddr: 0x4B08C, symSize: 0x3C }
  - { offset: 0x1DE2C, size: 0x8, addend: 0x0, symName: __RNvNvXs1j_NtCs1NyPVrLiP35_11crystal_toe2pyINtNtNtCsinFlhxATJYn_4pyo35impl_7pyclass20PyClassImplCollectorNtB8_13PyAlphaProtonEINtBH_9PyMethodsB1E_E10py_methods5ITEMS, symObjAddr: 0x507D0, symBinAddr: 0x188FD0, symSize: 0x0 }
  - { offset: 0x1DE3E, size: 0x8, addend: 0x0, symName: __RNvNvNvXs1j_NtCs1NyPVrLiP35_11crystal_toe2pyINtNtNtCsinFlhxATJYn_4pyo35impl_7pyclass20PyClassImplCollectorNtBa_13PyAlphaProtonEINtBJ_9PyMethodsB1G_E10py_methods5ITEMS10trampoline, symObjAddr: 0x3B310, symBinAddr: 0x45B40, symSize: 0x44 }
  - { offset: 0x1DE78, size: 0x8, addend: 0x0, symName: __RNvNvNvXs1j_NtCs1NyPVrLiP35_11crystal_toe2pyINtNtNtCsinFlhxATJYn_4pyo35impl_7pyclass20PyClassImplCollectorNtBa_13PyAlphaProtonEINtBJ_9PyMethodsB1G_E10py_methods5ITEMSs0_10trampoline, symObjAddr: 0x3B354, symBinAddr: 0x45B84, symSize: 0x44 }
  - { offset: 0x1DEB2, size: 0x8, addend: 0x0, symName: __RNvNvNvXs1j_NtCs1NyPVrLiP35_11crystal_toe2pyINtNtNtCsinFlhxATJYn_4pyo35impl_7pyclass20PyClassImplCollectorNtBa_13PyAlphaProtonEINtBJ_9PyMethodsB1G_E10py_methods5ITEMSs1_10trampoline, symObjAddr: 0x3B398, symBinAddr: 0x45BC8, symSize: 0x44 }
  - { offset: 0x1DEEC, size: 0x8, addend: 0x0, symName: __RNvNvNvXs1j_NtCs1NyPVrLiP35_11crystal_toe2pyINtNtNtCsinFlhxATJYn_4pyo35impl_7pyclass20PyClassImplCollectorNtBa_13PyAlphaProtonEINtBJ_9PyMethodsB1G_E10py_methods5ITEMSs2_10trampoline, symObjAddr: 0x3B3DC, symBinAddr: 0x45C0C, symSize: 0x4C }
  - { offset: 0x1DF34, size: 0x8, addend: 0x0, symName: __RNvNvNvXs1j_NtCs1NyPVrLiP35_11crystal_toe2pyINtNtNtCsinFlhxATJYn_4pyo35impl_7pyclass20PyClassImplCollectorNtBa_13PyAlphaProtonEINtBJ_9PyMethodsB1G_E10py_methods5ITEMSs_10trampoline, symObjAddr: 0x3B428, symBinAddr: 0x45C58, symSize: 0x44 }
  - { offset: 0x1DF88, size: 0x8, addend: 0x0, symName: __RNvNvXs1s_NtCs1NyPVrLiP35_11crystal_toe2pyNtB8_9PyGravityNtNtNtCsinFlhxATJYn_4pyo35impl_7pyclass11PyClassImpl10items_iter15INTRINSIC_ITEMS, symObjAddr: 0x55608, symBinAddr: 0x118128, symSize: 0x0 }
  - { offset: 0x1DFA8, size: 0x8, addend: 0x0, symName: __RNvNvXs1s_NtCs1NyPVrLiP35_11crystal_toe2pyNtB8_9PyGravityNtNtNtCsinFlhxATJYn_4pyo35impl_7pyclass11PyClassImpl16lazy_type_object11TYPE_OBJECT, symObjAddr: 0x55C38, symBinAddr: 0x194600, symSize: 0x0 }
  - { offset: 0x1DFC8, size: 0x8, addend: 0x0, symName: __RNvNvXs1s_NtCs1NyPVrLiP35_11crystal_toe2pyNtB8_9PyGravityNtNtNtCsinFlhxATJYn_4pyo35impl_7pyclass11PyClassImpl3doc3DOC, symObjAddr: 0x55C90, symBinAddr: 0x194658, symSize: 0x0 }
  - { offset: 0x1DFD6, size: 0x8, addend: 0x0, symName: __RNvXs1s_NtCs1NyPVrLiP35_11crystal_toe2pyNtB6_9PyGravityNtNtNtCsinFlhxATJYn_4pyo35impl_7pyclass11PyClassImpl10items_iter, symObjAddr: 0x408BC, symBinAddr: 0x4B0EC, symSize: 0x38 }
  - { offset: 0x1E011, size: 0x8, addend: 0x0, symName: __RNvXs1s_NtCs1NyPVrLiP35_11crystal_toe2pyNtB6_9PyGravityNtNtNtCsinFlhxATJYn_4pyo35impl_7pyclass11PyClassImpl16lazy_type_object, symObjAddr: 0x408F4, symBinAddr: 0x4B124, symSize: 0xC }
  - { offset: 0x1E02E, size: 0x8, addend: 0x0, symName: __RNvXs1s_NtCs1NyPVrLiP35_11crystal_toe2pyNtB6_9PyGravityNtNtNtCsinFlhxATJYn_4pyo35impl_7pyclass11PyClassImpl3doc, symObjAddr: 0x40900, symBinAddr: 0x4B130, symSize: 0x3C }
  - { offset: 0x1E38A, size: 0x8, addend: 0x0, symName: __RNvNvXs1x_NtCs1NyPVrLiP35_11crystal_toe2pyINtNtNtCsinFlhxATJYn_4pyo35impl_7pyclass20PyClassImplCollectorNtB8_9PyGravityEINtBH_9PyMethodsB1E_E10py_methods5ITEMS, symObjAddr: 0x50BC0, symBinAddr: 0x1893C0, symSize: 0x0 }
  - { offset: 0x1E39C, size: 0x8, addend: 0x0, symName: __RNvNvNvXs1x_NtCs1NyPVrLiP35_11crystal_toe2pyINtNtNtCsinFlhxATJYn_4pyo35impl_7pyclass20PyClassImplCollectorNtBa_9PyGravityEINtBJ_9PyMethodsB1G_E10py_methods5ITEMS10trampoline, symObjAddr: 0x3B46C, symBinAddr: 0x45C9C, symSize: 0x44 }
  - { offset: 0x1E3D6, size: 0x8, addend: 0x0, symName: __RNvNvNvXs1x_NtCs1NyPVrLiP35_11crystal_toe2pyINtNtNtCsinFlhxATJYn_4pyo35impl_7pyclass20PyClassImplCollectorNtBa_9PyGravityEINtBJ_9PyMethodsB1G_E10py_methods5ITEMSs0_10trampoline, symObjAddr: 0x3B4B0, symBinAddr: 0x45CE0, symSize: 0x44 }
  - { offset: 0x1E410, size: 0x8, addend: 0x0, symName: __RNvNvNvXs1x_NtCs1NyPVrLiP35_11crystal_toe2pyINtNtNtCsinFlhxATJYn_4pyo35impl_7pyclass20PyClassImplCollectorNtBa_9PyGravityEINtBJ_9PyMethodsB1G_E10py_methods5ITEMSs1_10trampoline, symObjAddr: 0x3B4F4, symBinAddr: 0x45D24, symSize: 0x44 }
  - { offset: 0x1E44A, size: 0x8, addend: 0x0, symName: __RNvNvNvXs1x_NtCs1NyPVrLiP35_11crystal_toe2pyINtNtNtCsinFlhxATJYn_4pyo35impl_7pyclass20PyClassImplCollectorNtBa_9PyGravityEINtBJ_9PyMethodsB1G_E10py_methods5ITEMSs2_10trampoline, symObjAddr: 0x3B538, symBinAddr: 0x45D68, symSize: 0x44 }
  - { offset: 0x1E484, size: 0x8, addend: 0x0, symName: __RNvNvNvXs1x_NtCs1NyPVrLiP35_11crystal_toe2pyINtNtNtCsinFlhxATJYn_4pyo35impl_7pyclass20PyClassImplCollectorNtBa_9PyGravityEINtBJ_9PyMethodsB1G_E10py_methods5ITEMSs3_10trampoline, symObjAddr: 0x3B57C, symBinAddr: 0x45DAC, symSize: 0x44 }
  - { offset: 0x1E4BE, size: 0x8, addend: 0x0, symName: __RNvNvNvXs1x_NtCs1NyPVrLiP35_11crystal_toe2pyINtNtNtCsinFlhxATJYn_4pyo35impl_7pyclass20PyClassImplCollectorNtBa_9PyGravityEINtBJ_9PyMethodsB1G_E10py_methods5ITEMSs4_10trampoline, symObjAddr: 0x3B5C0, symBinAddr: 0x45DF0, symSize: 0x44 }
  - { offset: 0x1E4F8, size: 0x8, addend: 0x0, symName: __RNvNvNvXs1x_NtCs1NyPVrLiP35_11crystal_toe2pyINtNtNtCsinFlhxATJYn_4pyo35impl_7pyclass20PyClassImplCollectorNtBa_9PyGravityEINtBJ_9PyMethodsB1G_E10py_methods5ITEMSs5_10trampoline, symObjAddr: 0x3B604, symBinAddr: 0x45E34, symSize: 0x44 }
  - { offset: 0x1E532, size: 0x8, addend: 0x0, symName: __RNvNvNvXs1x_NtCs1NyPVrLiP35_11crystal_toe2pyINtNtNtCsinFlhxATJYn_4pyo35impl_7pyclass20PyClassImplCollectorNtBa_9PyGravityEINtBJ_9PyMethodsB1G_E10py_methods5ITEMSs6_10trampoline, symObjAddr: 0x3B648, symBinAddr: 0x45E78, symSize: 0x44 }
  - { offset: 0x1E56C, size: 0x8, addend: 0x0, symName: __RNvNvNvXs1x_NtCs1NyPVrLiP35_11crystal_toe2pyINtNtNtCsinFlhxATJYn_4pyo35impl_7pyclass20PyClassImplCollectorNtBa_9PyGravityEINtBJ_9PyMethodsB1G_E10py_methods5ITEMSs7_10trampoline, symObjAddr: 0x3B68C, symBinAddr: 0x45EBC, symSize: 0x44 }
  - { offset: 0x1E5A6, size: 0x8, addend: 0x0, symName: __RNvNvNvXs1x_NtCs1NyPVrLiP35_11crystal_toe2pyINtNtNtCsinFlhxATJYn_4pyo35impl_7pyclass20PyClassImplCollectorNtBa_9PyGravityEINtBJ_9PyMethodsB1G_E10py_methods5ITEMSs8_10trampoline, symObjAddr: 0x3B6D0, symBinAddr: 0x45F00, symSize: 0x44 }
  - { offset: 0x1E5E0, size: 0x8, addend: 0x0, symName: __RNvNvNvXs1x_NtCs1NyPVrLiP35_11crystal_toe2pyINtNtNtCsinFlhxATJYn_4pyo35impl_7pyclass20PyClassImplCollectorNtBa_9PyGravityEINtBJ_9PyMethodsB1G_E10py_methods5ITEMSs9_10trampoline, symObjAddr: 0x3B714, symBinAddr: 0x45F44, symSize: 0x50 }
  - { offset: 0x1E636, size: 0x8, addend: 0x0, symName: __RNvNvNvXs1x_NtCs1NyPVrLiP35_11crystal_toe2pyINtNtNtCsinFlhxATJYn_4pyo35impl_7pyclass20PyClassImplCollectorNtBa_9PyGravityEINtBJ_9PyMethodsB1G_E10py_methods5ITEMSs_10trampoline, symObjAddr: 0x3B764, symBinAddr: 0x45F94, symSize: 0x44 }
  - { offset: 0x1E670, size: 0x8, addend: 0x0, symName: __RNvNvNvXs1x_NtCs1NyPVrLiP35_11crystal_toe2pyINtNtNtCsinFlhxATJYn_4pyo35impl_7pyclass20PyClassImplCollectorNtBa_9PyGravityEINtBJ_9PyMethodsB1G_E10py_methods5ITEMSsa_10trampoline, symObjAddr: 0x3B7A8, symBinAddr: 0x45FD8, symSize: 0x44 }
  - { offset: 0x1E6AA, size: 0x8, addend: 0x0, symName: __RNvNvNvXs1x_NtCs1NyPVrLiP35_11crystal_toe2pyINtNtNtCsinFlhxATJYn_4pyo35impl_7pyclass20PyClassImplCollectorNtBa_9PyGravityEINtBJ_9PyMethodsB1G_E10py_methods5ITEMSsb_10trampoline, symObjAddr: 0x3B7EC, symBinAddr: 0x4601C, symSize: 0x44 }
  - { offset: 0x1E6E4, size: 0x8, addend: 0x0, symName: __RNvNvNvXs1x_NtCs1NyPVrLiP35_11crystal_toe2pyINtNtNtCsinFlhxATJYn_4pyo35impl_7pyclass20PyClassImplCollectorNtBa_9PyGravityEINtBJ_9PyMethodsB1G_E10py_methods5ITEMSsc_10trampoline, symObjAddr: 0x3B830, symBinAddr: 0x46060, symSize: 0x44 }
  - { offset: 0x1E71E, size: 0x8, addend: 0x0, symName: __RNvNvNvXs1x_NtCs1NyPVrLiP35_11crystal_toe2pyINtNtNtCsinFlhxATJYn_4pyo35impl_7pyclass20PyClassImplCollectorNtBa_9PyGravityEINtBJ_9PyMethodsB1G_E10py_methods5ITEMSsd_10trampoline, symObjAddr: 0x3B874, symBinAddr: 0x460A4, symSize: 0x4C }
  - { offset: 0x1E780, size: 0x8, addend: 0x0, symName: __RNvNvXs28_NtCs1NyPVrLiP35_11crystal_toe2pyNtB8_7PyTruthNtNtNtCsinFlhxATJYn_4pyo35impl_7pyclass11PyClassImpl10items_iter15INTRINSIC_ITEMS, symObjAddr: 0x55628, symBinAddr: 0x118148, symSize: 0x0 }
  - { offset: 0x1E7A0, size: 0x8, addend: 0x0, symName: __RNvNvXs28_NtCs1NyPVrLiP35_11crystal_toe2pyNtB8_7PyTruthNtNtNtCsinFlhxATJYn_4pyo35impl_7pyclass11PyClassImpl16lazy_type_object11TYPE_OBJECT, symObjAddr: 0x55CB0, symBinAddr: 0x194678, symSize: 0x0 }
  - { offset: 0x1E7C0, size: 0x8, addend: 0x0, symName: __RNvNvXs28_NtCs1NyPVrLiP35_11crystal_toe2pyNtB8_7PyTruthNtNtNtCsinFlhxATJYn_4pyo35impl_7pyclass11PyClassImpl3doc3DOC, symObjAddr: 0x55D08, symBinAddr: 0x1946D0, symSize: 0x0 }
  - { offset: 0x1E7CE, size: 0x8, addend: 0x0, symName: __RNvXs28_NtCs1NyPVrLiP35_11crystal_toe2pyNtB6_7PyTruthNtNtNtCsinFlhxATJYn_4pyo35impl_7pyclass11PyClassImpl10items_iter, symObjAddr: 0x409B0, symBinAddr: 0x4B1E0, symSize: 0x38 }
  - { offset: 0x1E809, size: 0x8, addend: 0x0, symName: __RNvXs28_NtCs1NyPVrLiP35_11crystal_toe2pyNtB6_7PyTruthNtNtNtCsinFlhxATJYn_4pyo35impl_7pyclass11PyClassImpl16lazy_type_object, symObjAddr: 0x409E8, symBinAddr: 0x4B218, symSize: 0xC }
  - { offset: 0x1E826, size: 0x8, addend: 0x0, symName: __RNvXs28_NtCs1NyPVrLiP35_11crystal_toe2pyNtB6_7PyTruthNtNtNtCsinFlhxATJYn_4pyo35impl_7pyclass11PyClassImpl3doc, symObjAddr: 0x409F4, symBinAddr: 0x4B224, symSize: 0x3C }
  - { offset: 0x1EB15, size: 0x8, addend: 0x0, symName: __RNvNvXs2D_NtCs1NyPVrLiP35_11crystal_toe2pyNtB8_11PyHierarchyNtNtNtCsinFlhxATJYn_4pyo35impl_7pyclass11PyClassImpl10items_iter15INTRINSIC_ITEMS, symObjAddr: 0x55648, symBinAddr: 0x118168, symSize: 0x0 }
  - { offset: 0x1EB35, size: 0x8, addend: 0x0, symName: __RNvNvXs2D_NtCs1NyPVrLiP35_11crystal_toe2pyNtB8_11PyHierarchyNtNtNtCsinFlhxATJYn_4pyo35impl_7pyclass11PyClassImpl16lazy_type_object11TYPE_OBJECT, symObjAddr: 0x55D28, symBinAddr: 0x1946F0, symSize: 0x0 }
  - { offset: 0x1EB55, size: 0x8, addend: 0x0, symName: __RNvNvXs2D_NtCs1NyPVrLiP35_11crystal_toe2pyNtB8_11PyHierarchyNtNtNtCsinFlhxATJYn_4pyo35impl_7pyclass11PyClassImpl3doc3DOC, symObjAddr: 0x55D80, symBinAddr: 0x194748, symSize: 0x0 }
  - { offset: 0x1EB63, size: 0x8, addend: 0x0, symName: __RNvXs2D_NtCs1NyPVrLiP35_11crystal_toe2pyNtB6_11PyHierarchyNtNtNtCsinFlhxATJYn_4pyo35impl_7pyclass11PyClassImpl10items_iter, symObjAddr: 0x40A30, symBinAddr: 0x4B260, symSize: 0x38 }
  - { offset: 0x1EB9E, size: 0x8, addend: 0x0, symName: __RNvXs2D_NtCs1NyPVrLiP35_11crystal_toe2pyNtB6_11PyHierarchyNtNtNtCsinFlhxATJYn_4pyo35impl_7pyclass11PyClassImpl16lazy_type_object, symObjAddr: 0x40A68, symBinAddr: 0x4B298, symSize: 0xC }
  - { offset: 0x1EBBB, size: 0x8, addend: 0x0, symName: __RNvXs2D_NtCs1NyPVrLiP35_11crystal_toe2pyNtB6_11PyHierarchyNtNtNtCsinFlhxATJYn_4pyo35impl_7pyclass11PyClassImpl3doc, symObjAddr: 0x40A74, symBinAddr: 0x4B2A4, symSize: 0x3C }
  - { offset: 0x1ED8B, size: 0x8, addend: 0x0, symName: __RNvNvXs2I_NtCs1NyPVrLiP35_11crystal_toe2pyINtNtNtCsinFlhxATJYn_4pyo35impl_7pyclass20PyClassImplCollectorNtB8_11PyHierarchyEINtBH_9PyMethodsB1E_E10py_methods5ITEMS, symObjAddr: 0x50DB0, symBinAddr: 0x1895B0, symSize: 0x0 }
  - { offset: 0x1ED9D, size: 0x8, addend: 0x0, symName: __RNvNvNvXs2I_NtCs1NyPVrLiP35_11crystal_toe2pyINtNtNtCsinFlhxATJYn_4pyo35impl_7pyclass20PyClassImplCollectorNtBa_11PyHierarchyEINtBJ_9PyMethodsB1G_E10py_methods5ITEMS10trampoline, symObjAddr: 0x3B8C0, symBinAddr: 0x460F0, symSize: 0x44 }
  - { offset: 0x1EDD7, size: 0x8, addend: 0x0, symName: __RNvNvNvXs2I_NtCs1NyPVrLiP35_11crystal_toe2pyINtNtNtCsinFlhxATJYn_4pyo35impl_7pyclass20PyClassImplCollectorNtBa_11PyHierarchyEINtBJ_9PyMethodsB1G_E10py_methods5ITEMSs0_10trampoline, symObjAddr: 0x3B904, symBinAddr: 0x46134, symSize: 0x44 }
  - { offset: 0x1EE11, size: 0x8, addend: 0x0, symName: __RNvNvNvXs2I_NtCs1NyPVrLiP35_11crystal_toe2pyINtNtNtCsinFlhxATJYn_4pyo35impl_7pyclass20PyClassImplCollectorNtBa_11PyHierarchyEINtBJ_9PyMethodsB1G_E10py_methods5ITEMSs1_10trampoline, symObjAddr: 0x3B948, symBinAddr: 0x46178, symSize: 0x44 }
  - { offset: 0x1EE4B, size: 0x8, addend: 0x0, symName: __RNvNvNvXs2I_NtCs1NyPVrLiP35_11crystal_toe2pyINtNtNtCsinFlhxATJYn_4pyo35impl_7pyclass20PyClassImplCollectorNtBa_11PyHierarchyEINtBJ_9PyMethodsB1G_E10py_methods5ITEMSs2_10trampoline, symObjAddr: 0x3B98C, symBinAddr: 0x461BC, symSize: 0x44 }
  - { offset: 0x1EE85, size: 0x8, addend: 0x0, symName: __RNvNvNvXs2I_NtCs1NyPVrLiP35_11crystal_toe2pyINtNtNtCsinFlhxATJYn_4pyo35impl_7pyclass20PyClassImplCollectorNtBa_11PyHierarchyEINtBJ_9PyMethodsB1G_E10py_methods5ITEMSs3_10trampoline, symObjAddr: 0x3B9D0, symBinAddr: 0x46200, symSize: 0x44 }
  - { offset: 0x1EEBF, size: 0x8, addend: 0x0, symName: __RNvNvNvXs2I_NtCs1NyPVrLiP35_11crystal_toe2pyINtNtNtCsinFlhxATJYn_4pyo35impl_7pyclass20PyClassImplCollectorNtBa_11PyHierarchyEINtBJ_9PyMethodsB1G_E10py_methods5ITEMSs4_10trampoline, symObjAddr: 0x3BA14, symBinAddr: 0x46244, symSize: 0x44 }
  - { offset: 0x1EEF9, size: 0x8, addend: 0x0, symName: __RNvNvNvXs2I_NtCs1NyPVrLiP35_11crystal_toe2pyINtNtNtCsinFlhxATJYn_4pyo35impl_7pyclass20PyClassImplCollectorNtBa_11PyHierarchyEINtBJ_9PyMethodsB1G_E10py_methods5ITEMSs5_10trampoline, symObjAddr: 0x3BA58, symBinAddr: 0x46288, symSize: 0x4C }
  - { offset: 0x1EF41, size: 0x8, addend: 0x0, symName: __RNvNvNvXs2I_NtCs1NyPVrLiP35_11crystal_toe2pyINtNtNtCsinFlhxATJYn_4pyo35impl_7pyclass20PyClassImplCollectorNtBa_11PyHierarchyEINtBJ_9PyMethodsB1G_E10py_methods5ITEMSs_10trampoline, symObjAddr: 0x3BAA4, symBinAddr: 0x462D4, symSize: 0x44 }
  - { offset: 0x1EF95, size: 0x8, addend: 0x0, symName: __RNvNvXs2R_NtCs1NyPVrLiP35_11crystal_toe2pyNtB8_14PyAlgebraStateNtNtNtCsinFlhxATJYn_4pyo35impl_7pyclass11PyClassImpl10items_iter15INTRINSIC_ITEMS, symObjAddr: 0x55668, symBinAddr: 0x118188, symSize: 0x0 }
  - { offset: 0x1EFB5, size: 0x8, addend: 0x0, symName: __RNvNvXs2R_NtCs1NyPVrLiP35_11crystal_toe2pyNtB8_14PyAlgebraStateNtNtNtCsinFlhxATJYn_4pyo35impl_7pyclass11PyClassImpl16lazy_type_object11TYPE_OBJECT, symObjAddr: 0x55DA0, symBinAddr: 0x194768, symSize: 0x0 }
  - { offset: 0x1EFD5, size: 0x8, addend: 0x0, symName: __RNvNvXs2R_NtCs1NyPVrLiP35_11crystal_toe2pyNtB8_14PyAlgebraStateNtNtNtCsinFlhxATJYn_4pyo35impl_7pyclass11PyClassImpl3doc3DOC, symObjAddr: 0x55DF8, symBinAddr: 0x1947C0, symSize: 0x0 }
  - { offset: 0x1EFE3, size: 0x8, addend: 0x0, symName: __RNvXs2R_NtCs1NyPVrLiP35_11crystal_toe2pyNtB6_14PyAlgebraStateNtNtNtCsinFlhxATJYn_4pyo35impl_7pyclass11PyClassImpl10items_iter, symObjAddr: 0x40B14, symBinAddr: 0x4B344, symSize: 0x38 }
  - { offset: 0x1F01E, size: 0x8, addend: 0x0, symName: __RNvXs2R_NtCs1NyPVrLiP35_11crystal_toe2pyNtB6_14PyAlgebraStateNtNtNtCsinFlhxATJYn_4pyo35impl_7pyclass11PyClassImpl16lazy_type_object, symObjAddr: 0x40B4C, symBinAddr: 0x4B37C, symSize: 0xC }
  - { offset: 0x1F03B, size: 0x8, addend: 0x0, symName: __RNvXs2R_NtCs1NyPVrLiP35_11crystal_toe2pyNtB6_14PyAlgebraStateNtNtNtCsinFlhxATJYn_4pyo35impl_7pyclass11PyClassImpl3doc, symObjAddr: 0x40B58, symBinAddr: 0x4B388, symSize: 0x3C }
  - { offset: 0x1F32B, size: 0x8, addend: 0x0, symName: __RNvNvXs2X_NtCs1NyPVrLiP35_11crystal_toe2pyINtNtNtCsinFlhxATJYn_4pyo35impl_7pyclass20PyClassImplCollectorNtB8_14PyAlgebraStateEINtBH_9PyMethodsB1E_E10py_methods5ITEMS, symObjAddr: 0x510B0, symBinAddr: 0x1898B0, symSize: 0x0 }
  - { offset: 0x1F33D, size: 0x8, addend: 0x0, symName: __RNvNvNvXs2X_NtCs1NyPVrLiP35_11crystal_toe2pyINtNtNtCsinFlhxATJYn_4pyo35impl_7pyclass20PyClassImplCollectorNtBa_14PyAlgebraStateEINtBJ_9PyMethodsB1G_E10py_methods5ITEMS10trampoline, symObjAddr: 0x3BAE8, symBinAddr: 0x46318, symSize: 0x50 }
  - { offset: 0x1F393, size: 0x8, addend: 0x0, symName: __RNvNvNvXs2X_NtCs1NyPVrLiP35_11crystal_toe2pyINtNtNtCsinFlhxATJYn_4pyo35impl_7pyclass20PyClassImplCollectorNtBa_14PyAlgebraStateEINtBJ_9PyMethodsB1G_E10py_methods5ITEMSs0_10trampoline, symObjAddr: 0x3BB38, symBinAddr: 0x46368, symSize: 0x50 }
  - { offset: 0x1F3E9, size: 0x8, addend: 0x0, symName: __RNvNvNvXs2X_NtCs1NyPVrLiP35_11crystal_toe2pyINtNtNtCsinFlhxATJYn_4pyo35impl_7pyclass20PyClassImplCollectorNtBa_14PyAlgebraStateEINtBJ_9PyMethodsB1G_E10py_methods5ITEMSs1_10trampoline, symObjAddr: 0x3BB88, symBinAddr: 0x463B8, symSize: 0x4C }
  - { offset: 0x1F431, size: 0x8, addend: 0x0, symName: __RNvNvNvXs2X_NtCs1NyPVrLiP35_11crystal_toe2pyINtNtNtCsinFlhxATJYn_4pyo35impl_7pyclass20PyClassImplCollectorNtBa_14PyAlgebraStateEINtBJ_9PyMethodsB1G_E10py_methods5ITEMSs2_10trampoline, symObjAddr: 0x3BBD4, symBinAddr: 0x46404, symSize: 0x3C }
  - { offset: 0x1F45D, size: 0x8, addend: 0x0, symName: __RNvNvNvXs2X_NtCs1NyPVrLiP35_11crystal_toe2pyINtNtNtCsinFlhxATJYn_4pyo35impl_7pyclass20PyClassImplCollectorNtBa_14PyAlgebraStateEINtBJ_9PyMethodsB1G_E10py_methods5ITEMSs_10trampoline, symObjAddr: 0x3BC10, symBinAddr: 0x46440, symSize: 0x44 }
  - { offset: 0x1F4B1, size: 0x8, addend: 0x0, symName: __RNvNvXs2g_NtCs1NyPVrLiP35_11crystal_toe2pyINtNtNtCsinFlhxATJYn_4pyo35impl_7pyclass20PyClassImplCollectorNtB8_7PyTruthEINtBH_9PyMethodsB1E_E10py_methods5ITEMS, symObjAddr: 0x51370, symBinAddr: 0x189B70, symSize: 0x0 }
  - { offset: 0x1F4C3, size: 0x8, addend: 0x0, symName: __RNvNvNvXs2g_NtCs1NyPVrLiP35_11crystal_toe2pyINtNtNtCsinFlhxATJYn_4pyo35impl_7pyclass20PyClassImplCollectorNtBa_7PyTruthEINtBJ_9PyMethodsB1G_E10py_methods5ITEMS10trampoline, symObjAddr: 0x3BC54, symBinAddr: 0x46484, symSize: 0x44 }
  - { offset: 0x1F4FD, size: 0x8, addend: 0x0, symName: __RNvNvNvXs2g_NtCs1NyPVrLiP35_11crystal_toe2pyINtNtNtCsinFlhxATJYn_4pyo35impl_7pyclass20PyClassImplCollectorNtBa_7PyTruthEINtBJ_9PyMethodsB1G_E10py_methods5ITEMSs0_10trampoline, symObjAddr: 0x3BC98, symBinAddr: 0x464C8, symSize: 0x44 }
  - { offset: 0x1F537, size: 0x8, addend: 0x0, symName: __RNvNvNvXs2g_NtCs1NyPVrLiP35_11crystal_toe2pyINtNtNtCsinFlhxATJYn_4pyo35impl_7pyclass20PyClassImplCollectorNtBa_7PyTruthEINtBJ_9PyMethodsB1G_E10py_methods5ITEMSs1_10trampoline, symObjAddr: 0x3BCDC, symBinAddr: 0x4650C, symSize: 0x44 }
  - { offset: 0x1F571, size: 0x8, addend: 0x0, symName: __RNvNvNvXs2g_NtCs1NyPVrLiP35_11crystal_toe2pyINtNtNtCsinFlhxATJYn_4pyo35impl_7pyclass20PyClassImplCollectorNtBa_7PyTruthEINtBJ_9PyMethodsB1G_E10py_methods5ITEMSs2_10trampoline, symObjAddr: 0x3BD20, symBinAddr: 0x46550, symSize: 0x44 }
  - { offset: 0x1F5AB, size: 0x8, addend: 0x0, symName: __RNvNvNvXs2g_NtCs1NyPVrLiP35_11crystal_toe2pyINtNtNtCsinFlhxATJYn_4pyo35impl_7pyclass20PyClassImplCollectorNtBa_7PyTruthEINtBJ_9PyMethodsB1G_E10py_methods5ITEMSs3_10trampoline, symObjAddr: 0x3BD64, symBinAddr: 0x46594, symSize: 0x44 }
  - { offset: 0x1F5E5, size: 0x8, addend: 0x0, symName: __RNvNvNvXs2g_NtCs1NyPVrLiP35_11crystal_toe2pyINtNtNtCsinFlhxATJYn_4pyo35impl_7pyclass20PyClassImplCollectorNtBa_7PyTruthEINtBJ_9PyMethodsB1G_E10py_methods5ITEMSs4_10trampoline, symObjAddr: 0x3BDA8, symBinAddr: 0x465D8, symSize: 0x50 }
  - { offset: 0x1F63B, size: 0x8, addend: 0x0, symName: __RNvNvNvXs2g_NtCs1NyPVrLiP35_11crystal_toe2pyINtNtNtCsinFlhxATJYn_4pyo35impl_7pyclass20PyClassImplCollectorNtBa_7PyTruthEINtBJ_9PyMethodsB1G_E10py_methods5ITEMSs5_10trampoline, symObjAddr: 0x3BDF8, symBinAddr: 0x46628, symSize: 0x50 }
  - { offset: 0x1F691, size: 0x8, addend: 0x0, symName: __RNvNvNvXs2g_NtCs1NyPVrLiP35_11crystal_toe2pyINtNtNtCsinFlhxATJYn_4pyo35impl_7pyclass20PyClassImplCollectorNtBa_7PyTruthEINtBJ_9PyMethodsB1G_E10py_methods5ITEMSs6_10trampoline, symObjAddr: 0x3BE48, symBinAddr: 0x46678, symSize: 0x50 }
  - { offset: 0x1F6E7, size: 0x8, addend: 0x0, symName: __RNvNvNvXs2g_NtCs1NyPVrLiP35_11crystal_toe2pyINtNtNtCsinFlhxATJYn_4pyo35impl_7pyclass20PyClassImplCollectorNtBa_7PyTruthEINtBJ_9PyMethodsB1G_E10py_methods5ITEMSs7_10trampoline, symObjAddr: 0x3BE98, symBinAddr: 0x466C8, symSize: 0x50 }
  - { offset: 0x1F73D, size: 0x8, addend: 0x0, symName: __RNvNvNvXs2g_NtCs1NyPVrLiP35_11crystal_toe2pyINtNtNtCsinFlhxATJYn_4pyo35impl_7pyclass20PyClassImplCollectorNtBa_7PyTruthEINtBJ_9PyMethodsB1G_E10py_methods5ITEMSs8_10trampoline, symObjAddr: 0x3BEE8, symBinAddr: 0x46718, symSize: 0x3C }
  - { offset: 0x1F769, size: 0x8, addend: 0x0, symName: __RNvNvNvXs2g_NtCs1NyPVrLiP35_11crystal_toe2pyINtNtNtCsinFlhxATJYn_4pyo35impl_7pyclass20PyClassImplCollectorNtBa_7PyTruthEINtBJ_9PyMethodsB1G_E10py_methods5ITEMSs_10trampoline, symObjAddr: 0x3BF24, symBinAddr: 0x46754, symSize: 0x44 }
  - { offset: 0x1F7BD, size: 0x8, addend: 0x0, symName: __RNvNvXs2p_NtCs1NyPVrLiP35_11crystal_toe2pyNtB8_7PyTowerNtNtNtCsinFlhxATJYn_4pyo35impl_7pyclass11PyClassImpl10items_iter15INTRINSIC_ITEMS, symObjAddr: 0x55688, symBinAddr: 0x1181A8, symSize: 0x0 }
  - { offset: 0x1F7DD, size: 0x8, addend: 0x0, symName: __RNvNvXs2p_NtCs1NyPVrLiP35_11crystal_toe2pyNtB8_7PyTowerNtNtNtCsinFlhxATJYn_4pyo35impl_7pyclass11PyClassImpl16lazy_type_object11TYPE_OBJECT, symObjAddr: 0x55E18, symBinAddr: 0x1947E0, symSize: 0x0 }
  - { offset: 0x1F7FD, size: 0x8, addend: 0x0, symName: __RNvNvXs2p_NtCs1NyPVrLiP35_11crystal_toe2pyNtB8_7PyTowerNtNtNtCsinFlhxATJYn_4pyo35impl_7pyclass11PyClassImpl3doc3DOC, symObjAddr: 0x55E70, symBinAddr: 0x194838, symSize: 0x0 }
  - { offset: 0x1F80B, size: 0x8, addend: 0x0, symName: __RNvXs2p_NtCs1NyPVrLiP35_11crystal_toe2pyNtB6_7PyTowerNtNtNtCsinFlhxATJYn_4pyo35impl_7pyclass11PyClassImpl10items_iter, symObjAddr: 0x40BB8, symBinAddr: 0x4B3E8, symSize: 0x38 }
  - { offset: 0x1F846, size: 0x8, addend: 0x0, symName: __RNvXs2p_NtCs1NyPVrLiP35_11crystal_toe2pyNtB6_7PyTowerNtNtNtCsinFlhxATJYn_4pyo35impl_7pyclass11PyClassImpl16lazy_type_object, symObjAddr: 0x40BF0, symBinAddr: 0x4B420, symSize: 0xC }
  - { offset: 0x1F863, size: 0x8, addend: 0x0, symName: __RNvXs2p_NtCs1NyPVrLiP35_11crystal_toe2pyNtB6_7PyTowerNtNtNtCsinFlhxATJYn_4pyo35impl_7pyclass11PyClassImpl3doc, symObjAddr: 0x40BFC, symBinAddr: 0x4B42C, symSize: 0x3C }
  - { offset: 0x1F9CE, size: 0x8, addend: 0x0, symName: __RNvNvXs2u_NtCs1NyPVrLiP35_11crystal_toe2pyINtNtNtCsinFlhxATJYn_4pyo35impl_7pyclass20PyClassImplCollectorNtB8_7PyTowerEINtBH_9PyMethodsB1E_E10py_methods5ITEMS, symObjAddr: 0x514A0, symBinAddr: 0x189CA0, symSize: 0x0 }
  - { offset: 0x1F9E0, size: 0x8, addend: 0x0, symName: __RNvNvNvXs2u_NtCs1NyPVrLiP35_11crystal_toe2pyINtNtNtCsinFlhxATJYn_4pyo35impl_7pyclass20PyClassImplCollectorNtBa_7PyTowerEINtBJ_9PyMethodsB1G_E10py_methods5ITEMS10trampoline, symObjAddr: 0x3BF68, symBinAddr: 0x46798, symSize: 0x50 }
  - { offset: 0x1FA36, size: 0x8, addend: 0x0, symName: __RNvNvNvXs2u_NtCs1NyPVrLiP35_11crystal_toe2pyINtNtNtCsinFlhxATJYn_4pyo35impl_7pyclass20PyClassImplCollectorNtBa_7PyTowerEINtBJ_9PyMethodsB1G_E10py_methods5ITEMSs0_10trampoline, symObjAddr: 0x3BFB8, symBinAddr: 0x467E8, symSize: 0x44 }
  - { offset: 0x1FA70, size: 0x8, addend: 0x0, symName: __RNvNvNvXs2u_NtCs1NyPVrLiP35_11crystal_toe2pyINtNtNtCsinFlhxATJYn_4pyo35impl_7pyclass20PyClassImplCollectorNtBa_7PyTowerEINtBJ_9PyMethodsB1G_E10py_methods5ITEMSs1_10trampoline, symObjAddr: 0x3BFFC, symBinAddr: 0x4682C, symSize: 0x44 }
  - { offset: 0x1FAAA, size: 0x8, addend: 0x0, symName: __RNvNvNvXs2u_NtCs1NyPVrLiP35_11crystal_toe2pyINtNtNtCsinFlhxATJYn_4pyo35impl_7pyclass20PyClassImplCollectorNtBa_7PyTowerEINtBJ_9PyMethodsB1G_E10py_methods5ITEMSs2_10trampoline, symObjAddr: 0x3C040, symBinAddr: 0x46870, symSize: 0x4C }
  - { offset: 0x1FAF2, size: 0x8, addend: 0x0, symName: __RNvNvNvXs2u_NtCs1NyPVrLiP35_11crystal_toe2pyINtNtNtCsinFlhxATJYn_4pyo35impl_7pyclass20PyClassImplCollectorNtBa_7PyTowerEINtBJ_9PyMethodsB1G_E10py_methods5ITEMSs_10trampoline, symObjAddr: 0x3C08C, symBinAddr: 0x468BC, symSize: 0x50 }
  - { offset: 0x1FB63, size: 0x8, addend: 0x0, symName: __RNvNvXs36_NtCs1NyPVrLiP35_11crystal_toe2pyNtB8_11PyClassicalNtNtNtCsinFlhxATJYn_4pyo35impl_7pyclass11PyClassImpl10items_iter15INTRINSIC_ITEMS, symObjAddr: 0x556A8, symBinAddr: 0x1181C8, symSize: 0x0 }
  - { offset: 0x1FB84, size: 0x8, addend: 0x0, symName: __RNvNvXs36_NtCs1NyPVrLiP35_11crystal_toe2pyNtB8_11PyClassicalNtNtNtCsinFlhxATJYn_4pyo35impl_7pyclass11PyClassImpl16lazy_type_object11TYPE_OBJECT, symObjAddr: 0x55E90, symBinAddr: 0x194858, symSize: 0x0 }
  - { offset: 0x1FBA5, size: 0x8, addend: 0x0, symName: __RNvNvXs36_NtCs1NyPVrLiP35_11crystal_toe2pyNtB8_11PyClassicalNtNtNtCsinFlhxATJYn_4pyo35impl_7pyclass11PyClassImpl3doc3DOC, symObjAddr: 0x55EE8, symBinAddr: 0x1948B0, symSize: 0x0 }
  - { offset: 0x1FBB3, size: 0x8, addend: 0x0, symName: __RNvXs36_NtCs1NyPVrLiP35_11crystal_toe2pyNtB6_11PyClassicalNtNtNtCsinFlhxATJYn_4pyo35impl_7pyclass11PyClassImpl10items_iter, symObjAddr: 0x40C80, symBinAddr: 0x4B4B0, symSize: 0x38 }
  - { offset: 0x1FBF0, size: 0x8, addend: 0x0, symName: __RNvXs36_NtCs1NyPVrLiP35_11crystal_toe2pyNtB6_11PyClassicalNtNtNtCsinFlhxATJYn_4pyo35impl_7pyclass11PyClassImpl16lazy_type_object, symObjAddr: 0x40CB8, symBinAddr: 0x4B4E8, symSize: 0xC }
  - { offset: 0x1FC0E, size: 0x8, addend: 0x0, symName: __RNvXs36_NtCs1NyPVrLiP35_11crystal_toe2pyNtB6_11PyClassicalNtNtNtCsinFlhxATJYn_4pyo35impl_7pyclass11PyClassImpl3doc, symObjAddr: 0x40CC4, symBinAddr: 0x4B4F4, symSize: 0x3C }
  - { offset: 0x1FE16, size: 0x8, addend: 0x0, symName: __RNvNvXs3D_NtCs1NyPVrLiP35_11crystal_toe2pyINtNtNtCsinFlhxATJYn_4pyo35impl_7pyclass20PyClassImplCollectorNtB8_4PyGWEINtBH_9PyMethodsB1E_E10py_methods5ITEMS, symObjAddr: 0x51610, symBinAddr: 0x189E10, symSize: 0x0 }
  - { offset: 0x1FE28, size: 0x8, addend: 0x0, symName: __RNvNvNvXs3D_NtCs1NyPVrLiP35_11crystal_toe2pyINtNtNtCsinFlhxATJYn_4pyo35impl_7pyclass20PyClassImplCollectorNtBa_4PyGWEINtBJ_9PyMethodsB1G_E10py_methods5ITEMS10trampoline, symObjAddr: 0x3C0DC, symBinAddr: 0x4690C, symSize: 0x44 }
  - { offset: 0x1FE65, size: 0x8, addend: 0x0, symName: __RNvNvNvXs3D_NtCs1NyPVrLiP35_11crystal_toe2pyINtNtNtCsinFlhxATJYn_4pyo35impl_7pyclass20PyClassImplCollectorNtBa_4PyGWEINtBJ_9PyMethodsB1G_E10py_methods5ITEMSs0_10trampoline, symObjAddr: 0x3C120, symBinAddr: 0x46950, symSize: 0x44 }
  - { offset: 0x1FEA2, size: 0x8, addend: 0x0, symName: __RNvNvNvXs3D_NtCs1NyPVrLiP35_11crystal_toe2pyINtNtNtCsinFlhxATJYn_4pyo35impl_7pyclass20PyClassImplCollectorNtBa_4PyGWEINtBJ_9PyMethodsB1G_E10py_methods5ITEMSs1_10trampoline, symObjAddr: 0x3C164, symBinAddr: 0x46994, symSize: 0x50 }
  - { offset: 0x1FEFD, size: 0x8, addend: 0x0, symName: __RNvNvNvXs3D_NtCs1NyPVrLiP35_11crystal_toe2pyINtNtNtCsinFlhxATJYn_4pyo35impl_7pyclass20PyClassImplCollectorNtBa_4PyGWEINtBJ_9PyMethodsB1G_E10py_methods5ITEMSs2_10trampoline, symObjAddr: 0x3C1B4, symBinAddr: 0x469E4, symSize: 0x50 }
  - { offset: 0x1FF58, size: 0x8, addend: 0x0, symName: __RNvNvNvXs3D_NtCs1NyPVrLiP35_11crystal_toe2pyINtNtNtCsinFlhxATJYn_4pyo35impl_7pyclass20PyClassImplCollectorNtBa_4PyGWEINtBJ_9PyMethodsB1G_E10py_methods5ITEMSs3_10trampoline, symObjAddr: 0x3C204, symBinAddr: 0x46A34, symSize: 0x4C }
  - { offset: 0x1FFA4, size: 0x8, addend: 0x0, symName: __RNvNvNvXs3D_NtCs1NyPVrLiP35_11crystal_toe2pyINtNtNtCsinFlhxATJYn_4pyo35impl_7pyclass20PyClassImplCollectorNtBa_4PyGWEINtBJ_9PyMethodsB1G_E10py_methods5ITEMSs_10trampoline, symObjAddr: 0x3C250, symBinAddr: 0x46A80, symSize: 0x44 }
  - { offset: 0x1FFFC, size: 0x8, addend: 0x0, symName: __RNvNvXs3M_NtCs1NyPVrLiP35_11crystal_toe2pyNtB8_4PyEMNtNtNtCsinFlhxATJYn_4pyo35impl_7pyclass11PyClassImpl10items_iter15INTRINSIC_ITEMS, symObjAddr: 0x556C8, symBinAddr: 0x1181E8, symSize: 0x0 }
  - { offset: 0x2001D, size: 0x8, addend: 0x0, symName: __RNvNvXs3M_NtCs1NyPVrLiP35_11crystal_toe2pyNtB8_4PyEMNtNtNtCsinFlhxATJYn_4pyo35impl_7pyclass11PyClassImpl16lazy_type_object11TYPE_OBJECT, symObjAddr: 0x55F08, symBinAddr: 0x1948D0, symSize: 0x0 }
  - { offset: 0x2003E, size: 0x8, addend: 0x0, symName: __RNvNvXs3M_NtCs1NyPVrLiP35_11crystal_toe2pyNtB8_4PyEMNtNtNtCsinFlhxATJYn_4pyo35impl_7pyclass11PyClassImpl3doc3DOC, symObjAddr: 0x55F60, symBinAddr: 0x194928, symSize: 0x0 }
  - { offset: 0x2004C, size: 0x8, addend: 0x0, symName: __RNvXs3M_NtCs1NyPVrLiP35_11crystal_toe2pyNtB6_4PyEMNtNtNtCsinFlhxATJYn_4pyo35impl_7pyclass11PyClassImpl10items_iter, symObjAddr: 0x40D24, symBinAddr: 0x4B554, symSize: 0x38 }
  - { offset: 0x20089, size: 0x8, addend: 0x0, symName: __RNvXs3M_NtCs1NyPVrLiP35_11crystal_toe2pyNtB6_4PyEMNtNtNtCsinFlhxATJYn_4pyo35impl_7pyclass11PyClassImpl16lazy_type_object, symObjAddr: 0x40D5C, symBinAddr: 0x4B58C, symSize: 0xC }
  - { offset: 0x200A7, size: 0x8, addend: 0x0, symName: __RNvXs3M_NtCs1NyPVrLiP35_11crystal_toe2pyNtB6_4PyEMNtNtNtCsinFlhxATJYn_4pyo35impl_7pyclass11PyClassImpl3doc, symObjAddr: 0x40D68, symBinAddr: 0x4B598, symSize: 0x3C }
  - { offset: 0x20260, size: 0x8, addend: 0x0, symName: __RNvNvXs3R_NtCs1NyPVrLiP35_11crystal_toe2pyINtNtNtCsinFlhxATJYn_4pyo35impl_7pyclass20PyClassImplCollectorNtB8_4PyEMEINtBH_9PyMethodsB1E_E10py_methods5ITEMS, symObjAddr: 0x51780, symBinAddr: 0x189F80, symSize: 0x0 }
  - { offset: 0x20272, size: 0x8, addend: 0x0, symName: __RNvNvNvXs3R_NtCs1NyPVrLiP35_11crystal_toe2pyINtNtNtCsinFlhxATJYn_4pyo35impl_7pyclass20PyClassImplCollectorNtBa_4PyEMEINtBJ_9PyMethodsB1G_E10py_methods5ITEMS10trampoline, symObjAddr: 0x3C294, symBinAddr: 0x46AC4, symSize: 0x44 }
  - { offset: 0x202AF, size: 0x8, addend: 0x0, symName: __RNvNvNvXs3R_NtCs1NyPVrLiP35_11crystal_toe2pyINtNtNtCsinFlhxATJYn_4pyo35impl_7pyclass20PyClassImplCollectorNtBa_4PyEMEINtBJ_9PyMethodsB1G_E10py_methods5ITEMSs0_10trampoline, symObjAddr: 0x3C2D8, symBinAddr: 0x46B08, symSize: 0x44 }
  - { offset: 0x202EC, size: 0x8, addend: 0x0, symName: __RNvNvNvXs3R_NtCs1NyPVrLiP35_11crystal_toe2pyINtNtNtCsinFlhxATJYn_4pyo35impl_7pyclass20PyClassImplCollectorNtBa_4PyEMEINtBJ_9PyMethodsB1G_E10py_methods5ITEMSs1_10trampoline, symObjAddr: 0x3C31C, symBinAddr: 0x46B4C, symSize: 0x50 }
  - { offset: 0x20347, size: 0x8, addend: 0x0, symName: __RNvNvNvXs3R_NtCs1NyPVrLiP35_11crystal_toe2pyINtNtNtCsinFlhxATJYn_4pyo35impl_7pyclass20PyClassImplCollectorNtBa_4PyEMEINtBJ_9PyMethodsB1G_E10py_methods5ITEMSs2_10trampoline, symObjAddr: 0x3C36C, symBinAddr: 0x46B9C, symSize: 0x50 }
  - { offset: 0x203A2, size: 0x8, addend: 0x0, symName: __RNvNvNvXs3R_NtCs1NyPVrLiP35_11crystal_toe2pyINtNtNtCsinFlhxATJYn_4pyo35impl_7pyclass20PyClassImplCollectorNtBa_4PyEMEINtBJ_9PyMethodsB1G_E10py_methods5ITEMSs3_10trampoline, symObjAddr: 0x3C3BC, symBinAddr: 0x46BEC, symSize: 0x4C }
  - { offset: 0x203EE, size: 0x8, addend: 0x0, symName: __RNvNvNvXs3R_NtCs1NyPVrLiP35_11crystal_toe2pyINtNtNtCsinFlhxATJYn_4pyo35impl_7pyclass20PyClassImplCollectorNtBa_4PyEMEINtBJ_9PyMethodsB1G_E10py_methods5ITEMSs_10trampoline, symObjAddr: 0x3C408, symBinAddr: 0x46C38, symSize: 0x44 }
  - { offset: 0x20446, size: 0x8, addend: 0x0, symName: __RNvNvXs3b_NtCs1NyPVrLiP35_11crystal_toe2pyINtNtNtCsinFlhxATJYn_4pyo35impl_7pyclass20PyClassImplCollectorNtB8_11PyClassicalEINtBH_9PyMethodsB1E_E10py_methods5ITEMS, symObjAddr: 0x51930, symBinAddr: 0x18A130, symSize: 0x0 }
  - { offset: 0x20458, size: 0x8, addend: 0x0, symName: __RNvNvNvXs3b_NtCs1NyPVrLiP35_11crystal_toe2pyINtNtNtCsinFlhxATJYn_4pyo35impl_7pyclass20PyClassImplCollectorNtBa_11PyClassicalEINtBJ_9PyMethodsB1G_E10py_methods5ITEMS10trampoline, symObjAddr: 0x3C44C, symBinAddr: 0x46C7C, symSize: 0x44 }
  - { offset: 0x20495, size: 0x8, addend: 0x0, symName: __RNvNvNvXs3b_NtCs1NyPVrLiP35_11crystal_toe2pyINtNtNtCsinFlhxATJYn_4pyo35impl_7pyclass20PyClassImplCollectorNtBa_11PyClassicalEINtBJ_9PyMethodsB1G_E10py_methods5ITEMSs0_10trampoline, symObjAddr: 0x3C490, symBinAddr: 0x46CC0, symSize: 0x44 }
  - { offset: 0x204D2, size: 0x8, addend: 0x0, symName: __RNvNvNvXs3b_NtCs1NyPVrLiP35_11crystal_toe2pyINtNtNtCsinFlhxATJYn_4pyo35impl_7pyclass20PyClassImplCollectorNtBa_11PyClassicalEINtBJ_9PyMethodsB1G_E10py_methods5ITEMSs1_10trampoline, symObjAddr: 0x3C4D4, symBinAddr: 0x46D04, symSize: 0x50 }
  - { offset: 0x2052D, size: 0x8, addend: 0x0, symName: __RNvNvNvXs3b_NtCs1NyPVrLiP35_11crystal_toe2pyINtNtNtCsinFlhxATJYn_4pyo35impl_7pyclass20PyClassImplCollectorNtBa_11PyClassicalEINtBJ_9PyMethodsB1G_E10py_methods5ITEMSs2_10trampoline, symObjAddr: 0x3C524, symBinAddr: 0x46D54, symSize: 0x50 }
  - { offset: 0x20588, size: 0x8, addend: 0x0, symName: __RNvNvNvXs3b_NtCs1NyPVrLiP35_11crystal_toe2pyINtNtNtCsinFlhxATJYn_4pyo35impl_7pyclass20PyClassImplCollectorNtBa_11PyClassicalEINtBJ_9PyMethodsB1G_E10py_methods5ITEMSs3_10trampoline, symObjAddr: 0x3C574, symBinAddr: 0x46DA4, symSize: 0x50 }
  - { offset: 0x205E3, size: 0x8, addend: 0x0, symName: __RNvNvNvXs3b_NtCs1NyPVrLiP35_11crystal_toe2pyINtNtNtCsinFlhxATJYn_4pyo35impl_7pyclass20PyClassImplCollectorNtBa_11PyClassicalEINtBJ_9PyMethodsB1G_E10py_methods5ITEMSs4_10trampoline, symObjAddr: 0x3C5C4, symBinAddr: 0x46DF4, symSize: 0x4C }
  - { offset: 0x2062F, size: 0x8, addend: 0x0, symName: __RNvNvNvXs3b_NtCs1NyPVrLiP35_11crystal_toe2pyINtNtNtCsinFlhxATJYn_4pyo35impl_7pyclass20PyClassImplCollectorNtBa_11PyClassicalEINtBJ_9PyMethodsB1G_E10py_methods5ITEMSs_10trampoline, symObjAddr: 0x3C610, symBinAddr: 0x46E40, symSize: 0x44 }
  - { offset: 0x20687, size: 0x8, addend: 0x0, symName: __RNvNvXs3k_NtCs1NyPVrLiP35_11crystal_toe2pyNtB8_4PyGRNtNtNtCsinFlhxATJYn_4pyo35impl_7pyclass11PyClassImpl10items_iter15INTRINSIC_ITEMS, symObjAddr: 0x556E8, symBinAddr: 0x118208, symSize: 0x0 }
  - { offset: 0x206A8, size: 0x8, addend: 0x0, symName: __RNvNvXs3k_NtCs1NyPVrLiP35_11crystal_toe2pyNtB8_4PyGRNtNtNtCsinFlhxATJYn_4pyo35impl_7pyclass11PyClassImpl16lazy_type_object11TYPE_OBJECT, symObjAddr: 0x55F80, symBinAddr: 0x194948, symSize: 0x0 }
  - { offset: 0x206C9, size: 0x8, addend: 0x0, symName: __RNvNvXs3k_NtCs1NyPVrLiP35_11crystal_toe2pyNtB8_4PyGRNtNtNtCsinFlhxATJYn_4pyo35impl_7pyclass11PyClassImpl3doc3DOC, symObjAddr: 0x55FD8, symBinAddr: 0x1949A0, symSize: 0x0 }
  - { offset: 0x206D7, size: 0x8, addend: 0x0, symName: __RNvXs3k_NtCs1NyPVrLiP35_11crystal_toe2pyNtB6_4PyGRNtNtNtCsinFlhxATJYn_4pyo35impl_7pyclass11PyClassImpl10items_iter, symObjAddr: 0x40DEC, symBinAddr: 0x4B61C, symSize: 0x38 }
  - { offset: 0x20714, size: 0x8, addend: 0x0, symName: __RNvXs3k_NtCs1NyPVrLiP35_11crystal_toe2pyNtB6_4PyGRNtNtNtCsinFlhxATJYn_4pyo35impl_7pyclass11PyClassImpl16lazy_type_object, symObjAddr: 0x40E24, symBinAddr: 0x4B654, symSize: 0xC }
  - { offset: 0x20732, size: 0x8, addend: 0x0, symName: __RNvXs3k_NtCs1NyPVrLiP35_11crystal_toe2pyNtB6_4PyGRNtNtNtCsinFlhxATJYn_4pyo35impl_7pyclass11PyClassImpl3doc, symObjAddr: 0x40E30, symBinAddr: 0x4B660, symSize: 0x3C }
  - { offset: 0x209B0, size: 0x8, addend: 0x0, symName: __RNvNvXs3p_NtCs1NyPVrLiP35_11crystal_toe2pyINtNtNtCsinFlhxATJYn_4pyo35impl_7pyclass20PyClassImplCollectorNtB8_4PyGREINtBH_9PyMethodsB1E_E10py_methods5ITEMS, symObjAddr: 0x51B60, symBinAddr: 0x18A360, symSize: 0x0 }
  - { offset: 0x209C2, size: 0x8, addend: 0x0, symName: __RNvNvNvXs3p_NtCs1NyPVrLiP35_11crystal_toe2pyINtNtNtCsinFlhxATJYn_4pyo35impl_7pyclass20PyClassImplCollectorNtBa_4PyGREINtBJ_9PyMethodsB1G_E10py_methods5ITEMS10trampoline, symObjAddr: 0x3C654, symBinAddr: 0x46E84, symSize: 0x44 }
  - { offset: 0x209FF, size: 0x8, addend: 0x0, symName: __RNvNvNvXs3p_NtCs1NyPVrLiP35_11crystal_toe2pyINtNtNtCsinFlhxATJYn_4pyo35impl_7pyclass20PyClassImplCollectorNtBa_4PyGREINtBJ_9PyMethodsB1G_E10py_methods5ITEMSs0_10trampoline, symObjAddr: 0x3C698, symBinAddr: 0x46EC8, symSize: 0x44 }
  - { offset: 0x20A3C, size: 0x8, addend: 0x0, symName: __RNvNvNvXs3p_NtCs1NyPVrLiP35_11crystal_toe2pyINtNtNtCsinFlhxATJYn_4pyo35impl_7pyclass20PyClassImplCollectorNtBa_4PyGREINtBJ_9PyMethodsB1G_E10py_methods5ITEMSs1_10trampoline, symObjAddr: 0x3C6DC, symBinAddr: 0x46F0C, symSize: 0x44 }
  - { offset: 0x20A79, size: 0x8, addend: 0x0, symName: __RNvNvNvXs3p_NtCs1NyPVrLiP35_11crystal_toe2pyINtNtNtCsinFlhxATJYn_4pyo35impl_7pyclass20PyClassImplCollectorNtBa_4PyGREINtBJ_9PyMethodsB1G_E10py_methods5ITEMSs2_10trampoline, symObjAddr: 0x3C720, symBinAddr: 0x46F50, symSize: 0x50 }
  - { offset: 0x20AD4, size: 0x8, addend: 0x0, symName: __RNvNvNvXs3p_NtCs1NyPVrLiP35_11crystal_toe2pyINtNtNtCsinFlhxATJYn_4pyo35impl_7pyclass20PyClassImplCollectorNtBa_4PyGREINtBJ_9PyMethodsB1G_E10py_methods5ITEMSs3_10trampoline, symObjAddr: 0x3C770, symBinAddr: 0x46FA0, symSize: 0x50 }
  - { offset: 0x20B2F, size: 0x8, addend: 0x0, symName: __RNvNvNvXs3p_NtCs1NyPVrLiP35_11crystal_toe2pyINtNtNtCsinFlhxATJYn_4pyo35impl_7pyclass20PyClassImplCollectorNtBa_4PyGREINtBJ_9PyMethodsB1G_E10py_methods5ITEMSs4_10trampoline, symObjAddr: 0x3C7C0, symBinAddr: 0x46FF0, symSize: 0x50 }
  - { offset: 0x20B8A, size: 0x8, addend: 0x0, symName: __RNvNvNvXs3p_NtCs1NyPVrLiP35_11crystal_toe2pyINtNtNtCsinFlhxATJYn_4pyo35impl_7pyclass20PyClassImplCollectorNtBa_4PyGREINtBJ_9PyMethodsB1G_E10py_methods5ITEMSs5_10trampoline, symObjAddr: 0x3C810, symBinAddr: 0x47040, symSize: 0x50 }
  - { offset: 0x20BE5, size: 0x8, addend: 0x0, symName: __RNvNvNvXs3p_NtCs1NyPVrLiP35_11crystal_toe2pyINtNtNtCsinFlhxATJYn_4pyo35impl_7pyclass20PyClassImplCollectorNtBa_4PyGREINtBJ_9PyMethodsB1G_E10py_methods5ITEMSs6_10trampoline, symObjAddr: 0x3C860, symBinAddr: 0x47090, symSize: 0x4C }
  - { offset: 0x20C31, size: 0x8, addend: 0x0, symName: __RNvNvNvXs3p_NtCs1NyPVrLiP35_11crystal_toe2pyINtNtNtCsinFlhxATJYn_4pyo35impl_7pyclass20PyClassImplCollectorNtBa_4PyGREINtBJ_9PyMethodsB1G_E10py_methods5ITEMSs_10trampoline, symObjAddr: 0x3C8AC, symBinAddr: 0x470DC, symSize: 0x44 }
  - { offset: 0x20C89, size: 0x8, addend: 0x0, symName: __RNvNvXs3y_NtCs1NyPVrLiP35_11crystal_toe2pyNtB8_4PyGWNtNtNtCsinFlhxATJYn_4pyo35impl_7pyclass11PyClassImpl10items_iter15INTRINSIC_ITEMS, symObjAddr: 0x55708, symBinAddr: 0x118228, symSize: 0x0 }
  - { offset: 0x20CAA, size: 0x8, addend: 0x0, symName: __RNvNvXs3y_NtCs1NyPVrLiP35_11crystal_toe2pyNtB8_4PyGWNtNtNtCsinFlhxATJYn_4pyo35impl_7pyclass11PyClassImpl16lazy_type_object11TYPE_OBJECT, symObjAddr: 0x55FF8, symBinAddr: 0x1949C0, symSize: 0x0 }
  - { offset: 0x20CCB, size: 0x8, addend: 0x0, symName: __RNvNvXs3y_NtCs1NyPVrLiP35_11crystal_toe2pyNtB8_4PyGWNtNtNtCsinFlhxATJYn_4pyo35impl_7pyclass11PyClassImpl3doc3DOC, symObjAddr: 0x56050, symBinAddr: 0x194A18, symSize: 0x0 }
  - { offset: 0x20CD9, size: 0x8, addend: 0x0, symName: __RNvXs3y_NtCs1NyPVrLiP35_11crystal_toe2pyNtB6_4PyGWNtNtNtCsinFlhxATJYn_4pyo35impl_7pyclass11PyClassImpl10items_iter, symObjAddr: 0x40E90, symBinAddr: 0x4B6C0, symSize: 0x38 }
  - { offset: 0x20D16, size: 0x8, addend: 0x0, symName: __RNvXs3y_NtCs1NyPVrLiP35_11crystal_toe2pyNtB6_4PyGWNtNtNtCsinFlhxATJYn_4pyo35impl_7pyclass11PyClassImpl16lazy_type_object, symObjAddr: 0x40EC8, symBinAddr: 0x4B6F8, symSize: 0xC }
  - { offset: 0x20D34, size: 0x8, addend: 0x0, symName: __RNvXs3y_NtCs1NyPVrLiP35_11crystal_toe2pyNtB6_4PyGWNtNtNtCsinFlhxATJYn_4pyo35impl_7pyclass11PyClassImpl3doc, symObjAddr: 0x40ED4, symBinAddr: 0x4B704, symSize: 0x3C }
  - { offset: 0x20EED, size: 0x8, addend: 0x0, symName: __RNvNvXs40_NtCs1NyPVrLiP35_11crystal_toe2pyNtB8_11PyFriedmannNtNtNtCsinFlhxATJYn_4pyo35impl_7pyclass11PyClassImpl10items_iter15INTRINSIC_ITEMS, symObjAddr: 0x55728, symBinAddr: 0x118248, symSize: 0x0 }
  - { offset: 0x20F0E, size: 0x8, addend: 0x0, symName: __RNvNvXs40_NtCs1NyPVrLiP35_11crystal_toe2pyNtB8_11PyFriedmannNtNtNtCsinFlhxATJYn_4pyo35impl_7pyclass11PyClassImpl16lazy_type_object11TYPE_OBJECT, symObjAddr: 0x56070, symBinAddr: 0x194A38, symSize: 0x0 }
  - { offset: 0x20F2F, size: 0x8, addend: 0x0, symName: __RNvNvXs40_NtCs1NyPVrLiP35_11crystal_toe2pyNtB8_11PyFriedmannNtNtNtCsinFlhxATJYn_4pyo35impl_7pyclass11PyClassImpl3doc3DOC, symObjAddr: 0x560C8, symBinAddr: 0x194A90, symSize: 0x0 }
  - { offset: 0x20F3D, size: 0x8, addend: 0x0, symName: __RNvXs40_NtCs1NyPVrLiP35_11crystal_toe2pyNtB6_11PyFriedmannNtNtNtCsinFlhxATJYn_4pyo35impl_7pyclass11PyClassImpl10items_iter, symObjAddr: 0x40F10, symBinAddr: 0x4B740, symSize: 0x38 }
  - { offset: 0x20F7A, size: 0x8, addend: 0x0, symName: __RNvXs40_NtCs1NyPVrLiP35_11crystal_toe2pyNtB6_11PyFriedmannNtNtNtCsinFlhxATJYn_4pyo35impl_7pyclass11PyClassImpl16lazy_type_object, symObjAddr: 0x40F48, symBinAddr: 0x4B778, symSize: 0xC }
  - { offset: 0x20F98, size: 0x8, addend: 0x0, symName: __RNvXs40_NtCs1NyPVrLiP35_11crystal_toe2pyNtB6_11PyFriedmannNtNtNtCsinFlhxATJYn_4pyo35impl_7pyclass11PyClassImpl3doc, symObjAddr: 0x40F54, symBinAddr: 0x4B784, symSize: 0x3C }
  - { offset: 0x2112E, size: 0x8, addend: 0x0, symName: __RNvNvXs45_NtCs1NyPVrLiP35_11crystal_toe2pyINtNtNtCsinFlhxATJYn_4pyo35impl_7pyclass20PyClassImplCollectorNtB8_11PyFriedmannEINtBH_9PyMethodsB1E_E10py_methods5ITEMS, symObjAddr: 0x51CD0, symBinAddr: 0x18A4D0, symSize: 0x0 }
  - { offset: 0x21140, size: 0x8, addend: 0x0, symName: __RNvNvNvXs45_NtCs1NyPVrLiP35_11crystal_toe2pyINtNtNtCsinFlhxATJYn_4pyo35impl_7pyclass20PyClassImplCollectorNtBa_11PyFriedmannEINtBJ_9PyMethodsB1G_E10py_methods5ITEMS10trampoline, symObjAddr: 0x3C8F0, symBinAddr: 0x47120, symSize: 0x44 }
  - { offset: 0x2117D, size: 0x8, addend: 0x0, symName: __RNvNvNvXs45_NtCs1NyPVrLiP35_11crystal_toe2pyINtNtNtCsinFlhxATJYn_4pyo35impl_7pyclass20PyClassImplCollectorNtBa_11PyFriedmannEINtBJ_9PyMethodsB1G_E10py_methods5ITEMSs0_10trampoline, symObjAddr: 0x3C934, symBinAddr: 0x47164, symSize: 0x44 }
  - { offset: 0x211BA, size: 0x8, addend: 0x0, symName: __RNvNvNvXs45_NtCs1NyPVrLiP35_11crystal_toe2pyINtNtNtCsinFlhxATJYn_4pyo35impl_7pyclass20PyClassImplCollectorNtBa_11PyFriedmannEINtBJ_9PyMethodsB1G_E10py_methods5ITEMSs1_10trampoline, symObjAddr: 0x3C978, symBinAddr: 0x471A8, symSize: 0x50 }
  - { offset: 0x21215, size: 0x8, addend: 0x0, symName: __RNvNvNvXs45_NtCs1NyPVrLiP35_11crystal_toe2pyINtNtNtCsinFlhxATJYn_4pyo35impl_7pyclass20PyClassImplCollectorNtBa_11PyFriedmannEINtBJ_9PyMethodsB1G_E10py_methods5ITEMSs2_10trampoline, symObjAddr: 0x3C9C8, symBinAddr: 0x471F8, symSize: 0x44 }
  - { offset: 0x21252, size: 0x8, addend: 0x0, symName: __RNvNvNvXs45_NtCs1NyPVrLiP35_11crystal_toe2pyINtNtNtCsinFlhxATJYn_4pyo35impl_7pyclass20PyClassImplCollectorNtBa_11PyFriedmannEINtBJ_9PyMethodsB1G_E10py_methods5ITEMSs3_10trampoline, symObjAddr: 0x3CA0C, symBinAddr: 0x4723C, symSize: 0x4C }
  - { offset: 0x2129E, size: 0x8, addend: 0x0, symName: __RNvNvNvXs45_NtCs1NyPVrLiP35_11crystal_toe2pyINtNtNtCsinFlhxATJYn_4pyo35impl_7pyclass20PyClassImplCollectorNtBa_11PyFriedmannEINtBJ_9PyMethodsB1G_E10py_methods5ITEMSs_10trampoline, symObjAddr: 0x3CA58, symBinAddr: 0x47288, symSize: 0x44 }
  - { offset: 0x212F6, size: 0x8, addend: 0x0, symName: __RNvNvXs4G_NtCs1NyPVrLiP35_11crystal_toe2pyNtB8_5PyCFDNtNtNtCsinFlhxATJYn_4pyo35impl_7pyclass11PyClassImpl10items_iter15INTRINSIC_ITEMS, symObjAddr: 0x55748, symBinAddr: 0x118268, symSize: 0x0 }
  - { offset: 0x21317, size: 0x8, addend: 0x0, symName: __RNvNvXs4G_NtCs1NyPVrLiP35_11crystal_toe2pyNtB8_5PyCFDNtNtNtCsinFlhxATJYn_4pyo35impl_7pyclass11PyClassImpl16lazy_type_object11TYPE_OBJECT, symObjAddr: 0x560E8, symBinAddr: 0x194AB0, symSize: 0x0 }
  - { offset: 0x21338, size: 0x8, addend: 0x0, symName: __RNvNvXs4G_NtCs1NyPVrLiP35_11crystal_toe2pyNtB8_5PyCFDNtNtNtCsinFlhxATJYn_4pyo35impl_7pyclass11PyClassImpl3doc3DOC, symObjAddr: 0x56140, symBinAddr: 0x194B08, symSize: 0x0 }
  - { offset: 0x21346, size: 0x8, addend: 0x0, symName: __RNvXs4G_NtCs1NyPVrLiP35_11crystal_toe2pyNtB6_5PyCFDNtNtNtCsinFlhxATJYn_4pyo35impl_7pyclass11PyClassImpl10items_iter, symObjAddr: 0x40FD8, symBinAddr: 0x4B808, symSize: 0x38 }
  - { offset: 0x21383, size: 0x8, addend: 0x0, symName: __RNvXs4G_NtCs1NyPVrLiP35_11crystal_toe2pyNtB6_5PyCFDNtNtNtCsinFlhxATJYn_4pyo35impl_7pyclass11PyClassImpl16lazy_type_object, symObjAddr: 0x41010, symBinAddr: 0x4B840, symSize: 0xC }
  - { offset: 0x213A1, size: 0x8, addend: 0x0, symName: __RNvXs4G_NtCs1NyPVrLiP35_11crystal_toe2pyNtB6_5PyCFDNtNtNtCsinFlhxATJYn_4pyo35impl_7pyclass11PyClassImpl3doc, symObjAddr: 0x4101C, symBinAddr: 0x4B84C, symSize: 0x3C }
  - { offset: 0x2152E, size: 0x8, addend: 0x0, symName: __RNvNvXs4L_NtCs1NyPVrLiP35_11crystal_toe2pyINtNtNtCsinFlhxATJYn_4pyo35impl_7pyclass20PyClassImplCollectorNtB8_5PyCFDEINtBH_9PyMethodsB1E_E10py_methods5ITEMS, symObjAddr: 0x51E00, symBinAddr: 0x18A600, symSize: 0x0 }
  - { offset: 0x21540, size: 0x8, addend: 0x0, symName: __RNvNvNvXs4L_NtCs1NyPVrLiP35_11crystal_toe2pyINtNtNtCsinFlhxATJYn_4pyo35impl_7pyclass20PyClassImplCollectorNtBa_5PyCFDEINtBJ_9PyMethodsB1G_E10py_methods5ITEMS10trampoline, symObjAddr: 0x3CA9C, symBinAddr: 0x472CC, symSize: 0x44 }
  - { offset: 0x2157D, size: 0x8, addend: 0x0, symName: __RNvNvNvXs4L_NtCs1NyPVrLiP35_11crystal_toe2pyINtNtNtCsinFlhxATJYn_4pyo35impl_7pyclass20PyClassImplCollectorNtBa_5PyCFDEINtBJ_9PyMethodsB1G_E10py_methods5ITEMSs0_10trampoline, symObjAddr: 0x3CAE0, symBinAddr: 0x47310, symSize: 0x50 }
  - { offset: 0x215D8, size: 0x8, addend: 0x0, symName: __RNvNvNvXs4L_NtCs1NyPVrLiP35_11crystal_toe2pyINtNtNtCsinFlhxATJYn_4pyo35impl_7pyclass20PyClassImplCollectorNtBa_5PyCFDEINtBJ_9PyMethodsB1G_E10py_methods5ITEMSs1_10trampoline, symObjAddr: 0x3CB30, symBinAddr: 0x47360, symSize: 0x50 }
  - { offset: 0x21633, size: 0x8, addend: 0x0, symName: __RNvNvNvXs4L_NtCs1NyPVrLiP35_11crystal_toe2pyINtNtNtCsinFlhxATJYn_4pyo35impl_7pyclass20PyClassImplCollectorNtBa_5PyCFDEINtBJ_9PyMethodsB1G_E10py_methods5ITEMSs2_10trampoline, symObjAddr: 0x3CB80, symBinAddr: 0x473B0, symSize: 0x4C }
  - { offset: 0x2167F, size: 0x8, addend: 0x0, symName: __RNvNvNvXs4L_NtCs1NyPVrLiP35_11crystal_toe2pyINtNtNtCsinFlhxATJYn_4pyo35impl_7pyclass20PyClassImplCollectorNtBa_5PyCFDEINtBJ_9PyMethodsB1G_E10py_methods5ITEMSs_10trampoline, symObjAddr: 0x3CBCC, symBinAddr: 0x473FC, symSize: 0x44 }
  - { offset: 0x216D7, size: 0x8, addend: 0x0, symName: __RNvNvXs4U_NtCs1NyPVrLiP35_11crystal_toe2pyNtB8_7PyDecayNtNtNtCsinFlhxATJYn_4pyo35impl_7pyclass11PyClassImpl10items_iter15INTRINSIC_ITEMS, symObjAddr: 0x55768, symBinAddr: 0x118288, symSize: 0x0 }
  - { offset: 0x216F8, size: 0x8, addend: 0x0, symName: __RNvNvXs4U_NtCs1NyPVrLiP35_11crystal_toe2pyNtB8_7PyDecayNtNtNtCsinFlhxATJYn_4pyo35impl_7pyclass11PyClassImpl16lazy_type_object11TYPE_OBJECT, symObjAddr: 0x56160, symBinAddr: 0x194B28, symSize: 0x0 }
  - { offset: 0x21719, size: 0x8, addend: 0x0, symName: __RNvNvXs4U_NtCs1NyPVrLiP35_11crystal_toe2pyNtB8_7PyDecayNtNtNtCsinFlhxATJYn_4pyo35impl_7pyclass11PyClassImpl3doc3DOC, symObjAddr: 0x561B8, symBinAddr: 0x194B80, symSize: 0x0 }
  - { offset: 0x21727, size: 0x8, addend: 0x0, symName: __RNvXs4U_NtCs1NyPVrLiP35_11crystal_toe2pyNtB6_7PyDecayNtNtNtCsinFlhxATJYn_4pyo35impl_7pyclass11PyClassImpl10items_iter, symObjAddr: 0x4107C, symBinAddr: 0x4B8AC, symSize: 0x38 }
  - { offset: 0x21764, size: 0x8, addend: 0x0, symName: __RNvXs4U_NtCs1NyPVrLiP35_11crystal_toe2pyNtB6_7PyDecayNtNtNtCsinFlhxATJYn_4pyo35impl_7pyclass11PyClassImpl16lazy_type_object, symObjAddr: 0x410B4, symBinAddr: 0x4B8E4, symSize: 0xC }
  - { offset: 0x21782, size: 0x8, addend: 0x0, symName: __RNvXs4U_NtCs1NyPVrLiP35_11crystal_toe2pyNtB6_7PyDecayNtNtNtCsinFlhxATJYn_4pyo35impl_7pyclass11PyClassImpl3doc, symObjAddr: 0x410C0, symBinAddr: 0x4B8F0, symSize: 0x3C }
  - { offset: 0x218D4, size: 0x8, addend: 0x0, symName: __RNvNvXs4Z_NtCs1NyPVrLiP35_11crystal_toe2pyINtNtNtCsinFlhxATJYn_4pyo35impl_7pyclass20PyClassImplCollectorNtB8_7PyDecayEINtBH_9PyMethodsB1E_E10py_methods5ITEMS, symObjAddr: 0x51EF0, symBinAddr: 0x18A6F0, symSize: 0x0 }
  - { offset: 0x218E6, size: 0x8, addend: 0x0, symName: __RNvNvNvXs4Z_NtCs1NyPVrLiP35_11crystal_toe2pyINtNtNtCsinFlhxATJYn_4pyo35impl_7pyclass20PyClassImplCollectorNtBa_7PyDecayEINtBJ_9PyMethodsB1G_E10py_methods5ITEMS10trampoline, symObjAddr: 0x3CC10, symBinAddr: 0x47440, symSize: 0x44 }
  - { offset: 0x21923, size: 0x8, addend: 0x0, symName: __RNvNvNvXs4Z_NtCs1NyPVrLiP35_11crystal_toe2pyINtNtNtCsinFlhxATJYn_4pyo35impl_7pyclass20PyClassImplCollectorNtBa_7PyDecayEINtBJ_9PyMethodsB1G_E10py_methods5ITEMSs0_10trampoline, symObjAddr: 0x3CC54, symBinAddr: 0x47484, symSize: 0x50 }
  - { offset: 0x2197E, size: 0x8, addend: 0x0, symName: __RNvNvNvXs4Z_NtCs1NyPVrLiP35_11crystal_toe2pyINtNtNtCsinFlhxATJYn_4pyo35impl_7pyclass20PyClassImplCollectorNtBa_7PyDecayEINtBJ_9PyMethodsB1G_E10py_methods5ITEMSs1_10trampoline, symObjAddr: 0x3CCA4, symBinAddr: 0x474D4, symSize: 0x4C }
  - { offset: 0x219CA, size: 0x8, addend: 0x0, symName: __RNvNvNvXs4Z_NtCs1NyPVrLiP35_11crystal_toe2pyINtNtNtCsinFlhxATJYn_4pyo35impl_7pyclass20PyClassImplCollectorNtBa_7PyDecayEINtBJ_9PyMethodsB1G_E10py_methods5ITEMSs_10trampoline, symObjAddr: 0x3CCF0, symBinAddr: 0x47520, symSize: 0x50 }
  - { offset: 0x21A40, size: 0x8, addend: 0x0, symName: __RNvNvXs4e_NtCs1NyPVrLiP35_11crystal_toe2pyNtB8_7PyNBodyNtNtNtCsinFlhxATJYn_4pyo35impl_7pyclass11PyClassImpl10items_iter15INTRINSIC_ITEMS, symObjAddr: 0x55788, symBinAddr: 0x1182A8, symSize: 0x0 }
  - { offset: 0x21A61, size: 0x8, addend: 0x0, symName: __RNvNvXs4e_NtCs1NyPVrLiP35_11crystal_toe2pyNtB8_7PyNBodyNtNtNtCsinFlhxATJYn_4pyo35impl_7pyclass11PyClassImpl16lazy_type_object11TYPE_OBJECT, symObjAddr: 0x561D8, symBinAddr: 0x194BA0, symSize: 0x0 }
  - { offset: 0x21A82, size: 0x8, addend: 0x0, symName: __RNvNvXs4e_NtCs1NyPVrLiP35_11crystal_toe2pyNtB8_7PyNBodyNtNtNtCsinFlhxATJYn_4pyo35impl_7pyclass11PyClassImpl3doc3DOC, symObjAddr: 0x56230, symBinAddr: 0x194BF8, symSize: 0x0 }
  - { offset: 0x21A90, size: 0x8, addend: 0x0, symName: __RNvXs4e_NtCs1NyPVrLiP35_11crystal_toe2pyNtB6_7PyNBodyNtNtNtCsinFlhxATJYn_4pyo35impl_7pyclass11PyClassImpl10items_iter, symObjAddr: 0x4111C, symBinAddr: 0x4B94C, symSize: 0x38 }
  - { offset: 0x21ACD, size: 0x8, addend: 0x0, symName: __RNvXs4e_NtCs1NyPVrLiP35_11crystal_toe2pyNtB6_7PyNBodyNtNtNtCsinFlhxATJYn_4pyo35impl_7pyclass11PyClassImpl16lazy_type_object, symObjAddr: 0x41154, symBinAddr: 0x4B984, symSize: 0xC }
  - { offset: 0x21AEB, size: 0x8, addend: 0x0, symName: __RNvXs4e_NtCs1NyPVrLiP35_11crystal_toe2pyNtB6_7PyNBodyNtNtNtCsinFlhxATJYn_4pyo35impl_7pyclass11PyClassImpl3doc, symObjAddr: 0x41160, symBinAddr: 0x4B990, symSize: 0x3C }
  - { offset: 0x21BF3, size: 0x8, addend: 0x0, symName: __RNvNvXs4j_NtCs1NyPVrLiP35_11crystal_toe2pyINtNtNtCsinFlhxATJYn_4pyo35impl_7pyclass20PyClassImplCollectorNtB8_7PyNBodyEINtBH_9PyMethodsB1E_E10py_methods5ITEMS, symObjAddr: 0x51FA0, symBinAddr: 0x18A7A0, symSize: 0x0 }
  - { offset: 0x21C05, size: 0x8, addend: 0x0, symName: __RNvNvNvXs4j_NtCs1NyPVrLiP35_11crystal_toe2pyINtNtNtCsinFlhxATJYn_4pyo35impl_7pyclass20PyClassImplCollectorNtBa_7PyNBodyEINtBJ_9PyMethodsB1G_E10py_methods5ITEMS10trampoline, symObjAddr: 0x3CD40, symBinAddr: 0x47570, symSize: 0x44 }
  - { offset: 0x21C42, size: 0x8, addend: 0x0, symName: __RNvNvNvXs4j_NtCs1NyPVrLiP35_11crystal_toe2pyINtNtNtCsinFlhxATJYn_4pyo35impl_7pyclass20PyClassImplCollectorNtBa_7PyNBodyEINtBJ_9PyMethodsB1G_E10py_methods5ITEMSs0_10trampoline, symObjAddr: 0x3CD84, symBinAddr: 0x475B4, symSize: 0x4C }
  - { offset: 0x21C8E, size: 0x8, addend: 0x0, symName: __RNvNvNvXs4j_NtCs1NyPVrLiP35_11crystal_toe2pyINtNtNtCsinFlhxATJYn_4pyo35impl_7pyclass20PyClassImplCollectorNtBa_7PyNBodyEINtBJ_9PyMethodsB1G_E10py_methods5ITEMSs_10trampoline, symObjAddr: 0x3CDD0, symBinAddr: 0x47600, symSize: 0x50 }
  - { offset: 0x21D04, size: 0x8, addend: 0x0, symName: __RNvNvXs4s_NtCs1NyPVrLiP35_11crystal_toe2pyNtB8_8PyThermoNtNtNtCsinFlhxATJYn_4pyo35impl_7pyclass11PyClassImpl10items_iter15INTRINSIC_ITEMS, symObjAddr: 0x557A8, symBinAddr: 0x1182C8, symSize: 0x0 }
  - { offset: 0x21D25, size: 0x8, addend: 0x0, symName: __RNvNvXs4s_NtCs1NyPVrLiP35_11crystal_toe2pyNtB8_8PyThermoNtNtNtCsinFlhxATJYn_4pyo35impl_7pyclass11PyClassImpl16lazy_type_object11TYPE_OBJECT, symObjAddr: 0x56250, symBinAddr: 0x194C18, symSize: 0x0 }
  - { offset: 0x21D46, size: 0x8, addend: 0x0, symName: __RNvNvXs4s_NtCs1NyPVrLiP35_11crystal_toe2pyNtB8_8PyThermoNtNtNtCsinFlhxATJYn_4pyo35impl_7pyclass11PyClassImpl3doc3DOC, symObjAddr: 0x562A8, symBinAddr: 0x194C70, symSize: 0x0 }
  - { offset: 0x21D54, size: 0x8, addend: 0x0, symName: __RNvXs4s_NtCs1NyPVrLiP35_11crystal_toe2pyNtB6_8PyThermoNtNtNtCsinFlhxATJYn_4pyo35impl_7pyclass11PyClassImpl10items_iter, symObjAddr: 0x411C0, symBinAddr: 0x4B9F0, symSize: 0x38 }
  - { offset: 0x21D91, size: 0x8, addend: 0x0, symName: __RNvXs4s_NtCs1NyPVrLiP35_11crystal_toe2pyNtB6_8PyThermoNtNtNtCsinFlhxATJYn_4pyo35impl_7pyclass11PyClassImpl16lazy_type_object, symObjAddr: 0x411F8, symBinAddr: 0x4BA28, symSize: 0xC }
  - { offset: 0x21DAF, size: 0x8, addend: 0x0, symName: __RNvXs4s_NtCs1NyPVrLiP35_11crystal_toe2pyNtB6_8PyThermoNtNtNtCsinFlhxATJYn_4pyo35impl_7pyclass11PyClassImpl3doc, symObjAddr: 0x41204, symBinAddr: 0x4BA34, symSize: 0x3C }
  - { offset: 0x21F81, size: 0x8, addend: 0x0, symName: __RNvNvXs4x_NtCs1NyPVrLiP35_11crystal_toe2pyINtNtNtCsinFlhxATJYn_4pyo35impl_7pyclass20PyClassImplCollectorNtB8_8PyThermoEINtBH_9PyMethodsB1E_E10py_methods5ITEMS, symObjAddr: 0x52110, symBinAddr: 0x18A910, symSize: 0x0 }
  - { offset: 0x21F93, size: 0x8, addend: 0x0, symName: __RNvNvNvXs4x_NtCs1NyPVrLiP35_11crystal_toe2pyINtNtNtCsinFlhxATJYn_4pyo35impl_7pyclass20PyClassImplCollectorNtBa_8PyThermoEINtBJ_9PyMethodsB1G_E10py_methods5ITEMS10trampoline, symObjAddr: 0x3CE20, symBinAddr: 0x47650, symSize: 0x44 }
  - { offset: 0x21FD0, size: 0x8, addend: 0x0, symName: __RNvNvNvXs4x_NtCs1NyPVrLiP35_11crystal_toe2pyINtNtNtCsinFlhxATJYn_4pyo35impl_7pyclass20PyClassImplCollectorNtBa_8PyThermoEINtBJ_9PyMethodsB1G_E10py_methods5ITEMSs0_10trampoline, symObjAddr: 0x3CE64, symBinAddr: 0x47694, symSize: 0x50 }
  - { offset: 0x2202B, size: 0x8, addend: 0x0, symName: __RNvNvNvXs4x_NtCs1NyPVrLiP35_11crystal_toe2pyINtNtNtCsinFlhxATJYn_4pyo35impl_7pyclass20PyClassImplCollectorNtBa_8PyThermoEINtBJ_9PyMethodsB1G_E10py_methods5ITEMSs1_10trampoline, symObjAddr: 0x3CEB4, symBinAddr: 0x476E4, symSize: 0x50 }
  - { offset: 0x22086, size: 0x8, addend: 0x0, symName: __RNvNvNvXs4x_NtCs1NyPVrLiP35_11crystal_toe2pyINtNtNtCsinFlhxATJYn_4pyo35impl_7pyclass20PyClassImplCollectorNtBa_8PyThermoEINtBJ_9PyMethodsB1G_E10py_methods5ITEMSs2_10trampoline, symObjAddr: 0x3CF04, symBinAddr: 0x47734, symSize: 0x50 }
  - { offset: 0x220E1, size: 0x8, addend: 0x0, symName: __RNvNvNvXs4x_NtCs1NyPVrLiP35_11crystal_toe2pyINtNtNtCsinFlhxATJYn_4pyo35impl_7pyclass20PyClassImplCollectorNtBa_8PyThermoEINtBJ_9PyMethodsB1G_E10py_methods5ITEMSs3_10trampoline, symObjAddr: 0x3CF54, symBinAddr: 0x47784, symSize: 0x4C }
  - { offset: 0x2212D, size: 0x8, addend: 0x0, symName: __RNvNvNvXs4x_NtCs1NyPVrLiP35_11crystal_toe2pyINtNtNtCsinFlhxATJYn_4pyo35impl_7pyclass20PyClassImplCollectorNtBa_8PyThermoEINtBJ_9PyMethodsB1G_E10py_methods5ITEMSs_10trampoline, symObjAddr: 0x3CFA0, symBinAddr: 0x477D0, symSize: 0x44 }
  - { offset: 0x22185, size: 0x8, addend: 0x0, symName: __RNvNvXs58_NtCs1NyPVrLiP35_11crystal_toe2pyNtB8_8PyOpticsNtNtNtCsinFlhxATJYn_4pyo35impl_7pyclass11PyClassImpl10items_iter15INTRINSIC_ITEMS, symObjAddr: 0x557C8, symBinAddr: 0x1182E8, symSize: 0x0 }
  - { offset: 0x221A6, size: 0x8, addend: 0x0, symName: __RNvNvXs58_NtCs1NyPVrLiP35_11crystal_toe2pyNtB8_8PyOpticsNtNtNtCsinFlhxATJYn_4pyo35impl_7pyclass11PyClassImpl16lazy_type_object11TYPE_OBJECT, symObjAddr: 0x562C8, symBinAddr: 0x194C90, symSize: 0x0 }
  - { offset: 0x221C7, size: 0x8, addend: 0x0, symName: __RNvNvXs58_NtCs1NyPVrLiP35_11crystal_toe2pyNtB8_8PyOpticsNtNtNtCsinFlhxATJYn_4pyo35impl_7pyclass11PyClassImpl3doc3DOC, symObjAddr: 0x56320, symBinAddr: 0x194CE8, symSize: 0x0 }
  - { offset: 0x221D5, size: 0x8, addend: 0x0, symName: __RNvXs58_NtCs1NyPVrLiP35_11crystal_toe2pyNtB6_8PyOpticsNtNtNtCsinFlhxATJYn_4pyo35impl_7pyclass11PyClassImpl10items_iter, symObjAddr: 0x41264, symBinAddr: 0x4BA94, symSize: 0x38 }
  - { offset: 0x22212, size: 0x8, addend: 0x0, symName: __RNvXs58_NtCs1NyPVrLiP35_11crystal_toe2pyNtB6_8PyOpticsNtNtNtCsinFlhxATJYn_4pyo35impl_7pyclass11PyClassImpl16lazy_type_object, symObjAddr: 0x4129C, symBinAddr: 0x4BACC, symSize: 0xC }
  - { offset: 0x22230, size: 0x8, addend: 0x0, symName: __RNvXs58_NtCs1NyPVrLiP35_11crystal_toe2pyNtB6_8PyOpticsNtNtNtCsinFlhxATJYn_4pyo35impl_7pyclass11PyClassImpl3doc, symObjAddr: 0x412A8, symBinAddr: 0x4BAD8, symSize: 0x3C }
  - { offset: 0x2244B, size: 0x8, addend: 0x0, symName: __RNvNvXs5A_NtCs1NyPVrLiP35_11crystal_toe2pyNtB8_11PyCondensedNtNtNtCsinFlhxATJYn_4pyo35impl_7pyclass11PyClassImpl10items_iter15INTRINSIC_ITEMS, symObjAddr: 0x557E8, symBinAddr: 0x118308, symSize: 0x0 }
  - { offset: 0x2246C, size: 0x8, addend: 0x0, symName: __RNvNvXs5A_NtCs1NyPVrLiP35_11crystal_toe2pyNtB8_11PyCondensedNtNtNtCsinFlhxATJYn_4pyo35impl_7pyclass11PyClassImpl16lazy_type_object11TYPE_OBJECT, symObjAddr: 0x56340, symBinAddr: 0x194D08, symSize: 0x0 }
  - { offset: 0x2248D, size: 0x8, addend: 0x0, symName: __RNvNvXs5A_NtCs1NyPVrLiP35_11crystal_toe2pyNtB8_11PyCondensedNtNtNtCsinFlhxATJYn_4pyo35impl_7pyclass11PyClassImpl3doc3DOC, symObjAddr: 0x56398, symBinAddr: 0x194D60, symSize: 0x0 }
  - { offset: 0x2249B, size: 0x8, addend: 0x0, symName: __RNvXs5A_NtCs1NyPVrLiP35_11crystal_toe2pyNtB6_11PyCondensedNtNtNtCsinFlhxATJYn_4pyo35impl_7pyclass11PyClassImpl10items_iter, symObjAddr: 0x412E4, symBinAddr: 0x4BB14, symSize: 0x38 }
  - { offset: 0x224D8, size: 0x8, addend: 0x0, symName: __RNvXs5A_NtCs1NyPVrLiP35_11crystal_toe2pyNtB6_11PyCondensedNtNtNtCsinFlhxATJYn_4pyo35impl_7pyclass11PyClassImpl16lazy_type_object, symObjAddr: 0x4131C, symBinAddr: 0x4BB4C, symSize: 0xC }
  - { offset: 0x224F6, size: 0x8, addend: 0x0, symName: __RNvXs5A_NtCs1NyPVrLiP35_11crystal_toe2pyNtB6_11PyCondensedNtNtNtCsinFlhxATJYn_4pyo35impl_7pyclass11PyClassImpl3doc, symObjAddr: 0x41328, symBinAddr: 0x4BB58, symSize: 0x3C }
  - { offset: 0x2265B, size: 0x8, addend: 0x0, symName: __RNvNvXs5F_NtCs1NyPVrLiP35_11crystal_toe2pyINtNtNtCsinFlhxATJYn_4pyo35impl_7pyclass20PyClassImplCollectorNtB8_11PyCondensedEINtBH_9PyMethodsB1E_E10py_methods5ITEMS, symObjAddr: 0x52240, symBinAddr: 0x18AA40, symSize: 0x0 }
  - { offset: 0x2266D, size: 0x8, addend: 0x0, symName: __RNvNvNvXs5F_NtCs1NyPVrLiP35_11crystal_toe2pyINtNtNtCsinFlhxATJYn_4pyo35impl_7pyclass20PyClassImplCollectorNtBa_11PyCondensedEINtBJ_9PyMethodsB1G_E10py_methods5ITEMS10trampoline, symObjAddr: 0x3CFE4, symBinAddr: 0x47814, symSize: 0x44 }
  - { offset: 0x226AA, size: 0x8, addend: 0x0, symName: __RNvNvNvXs5F_NtCs1NyPVrLiP35_11crystal_toe2pyINtNtNtCsinFlhxATJYn_4pyo35impl_7pyclass20PyClassImplCollectorNtBa_11PyCondensedEINtBJ_9PyMethodsB1G_E10py_methods5ITEMSs0_10trampoline, symObjAddr: 0x3D028, symBinAddr: 0x47858, symSize: 0x44 }
  - { offset: 0x226E7, size: 0x8, addend: 0x0, symName: __RNvNvNvXs5F_NtCs1NyPVrLiP35_11crystal_toe2pyINtNtNtCsinFlhxATJYn_4pyo35impl_7pyclass20PyClassImplCollectorNtBa_11PyCondensedEINtBJ_9PyMethodsB1G_E10py_methods5ITEMSs1_10trampoline, symObjAddr: 0x3D06C, symBinAddr: 0x4789C, symSize: 0x50 }
  - { offset: 0x22742, size: 0x8, addend: 0x0, symName: __RNvNvNvXs5F_NtCs1NyPVrLiP35_11crystal_toe2pyINtNtNtCsinFlhxATJYn_4pyo35impl_7pyclass20PyClassImplCollectorNtBa_11PyCondensedEINtBJ_9PyMethodsB1G_E10py_methods5ITEMSs2_10trampoline, symObjAddr: 0x3D0BC, symBinAddr: 0x478EC, symSize: 0x4C }
  - { offset: 0x2278E, size: 0x8, addend: 0x0, symName: __RNvNvNvXs5F_NtCs1NyPVrLiP35_11crystal_toe2pyINtNtNtCsinFlhxATJYn_4pyo35impl_7pyclass20PyClassImplCollectorNtBa_11PyCondensedEINtBJ_9PyMethodsB1G_E10py_methods5ITEMSs_10trampoline, symObjAddr: 0x3D108, symBinAddr: 0x47938, symSize: 0x44 }
  - { offset: 0x227E6, size: 0x8, addend: 0x0, symName: __RNvNvXs5O_NtCs1NyPVrLiP35_11crystal_toe2pyNtB8_8PyPlasmaNtNtNtCsinFlhxATJYn_4pyo35impl_7pyclass11PyClassImpl10items_iter15INTRINSIC_ITEMS, symObjAddr: 0x55808, symBinAddr: 0x118328, symSize: 0x0 }
  - { offset: 0x22807, size: 0x8, addend: 0x0, symName: __RNvNvXs5O_NtCs1NyPVrLiP35_11crystal_toe2pyNtB8_8PyPlasmaNtNtNtCsinFlhxATJYn_4pyo35impl_7pyclass11PyClassImpl16lazy_type_object11TYPE_OBJECT, symObjAddr: 0x563B8, symBinAddr: 0x194D80, symSize: 0x0 }
  - { offset: 0x22828, size: 0x8, addend: 0x0, symName: __RNvNvXs5O_NtCs1NyPVrLiP35_11crystal_toe2pyNtB8_8PyPlasmaNtNtNtCsinFlhxATJYn_4pyo35impl_7pyclass11PyClassImpl3doc3DOC, symObjAddr: 0x56410, symBinAddr: 0x194DD8, symSize: 0x0 }
  - { offset: 0x22836, size: 0x8, addend: 0x0, symName: __RNvXs5O_NtCs1NyPVrLiP35_11crystal_toe2pyNtB6_8PyPlasmaNtNtNtCsinFlhxATJYn_4pyo35impl_7pyclass11PyClassImpl10items_iter, symObjAddr: 0x41388, symBinAddr: 0x4BBB8, symSize: 0x38 }
  - { offset: 0x22873, size: 0x8, addend: 0x0, symName: __RNvXs5O_NtCs1NyPVrLiP35_11crystal_toe2pyNtB6_8PyPlasmaNtNtNtCsinFlhxATJYn_4pyo35impl_7pyclass11PyClassImpl16lazy_type_object, symObjAddr: 0x413C0, symBinAddr: 0x4BBF0, symSize: 0xC }
  - { offset: 0x22891, size: 0x8, addend: 0x0, symName: __RNvXs5O_NtCs1NyPVrLiP35_11crystal_toe2pyNtB6_8PyPlasmaNtNtNtCsinFlhxATJYn_4pyo35impl_7pyclass11PyClassImpl3doc, symObjAddr: 0x413CC, symBinAddr: 0x4BBFC, symSize: 0x3C }
  - { offset: 0x22AE3, size: 0x8, addend: 0x0, symName: __RNvNvXs5T_NtCs1NyPVrLiP35_11crystal_toe2pyINtNtNtCsinFlhxATJYn_4pyo35impl_7pyclass20PyClassImplCollectorNtB8_8PyPlasmaEINtBH_9PyMethodsB1E_E10py_methods5ITEMS, symObjAddr: 0x52430, symBinAddr: 0x18AC30, symSize: 0x0 }
  - { offset: 0x22AF5, size: 0x8, addend: 0x0, symName: __RNvNvNvXs5T_NtCs1NyPVrLiP35_11crystal_toe2pyINtNtNtCsinFlhxATJYn_4pyo35impl_7pyclass20PyClassImplCollectorNtBa_8PyPlasmaEINtBJ_9PyMethodsB1G_E10py_methods5ITEMS10trampoline, symObjAddr: 0x3D14C, symBinAddr: 0x4797C, symSize: 0x44 }
  - { offset: 0x22B32, size: 0x8, addend: 0x0, symName: __RNvNvNvXs5T_NtCs1NyPVrLiP35_11crystal_toe2pyINtNtNtCsinFlhxATJYn_4pyo35impl_7pyclass20PyClassImplCollectorNtBa_8PyPlasmaEINtBJ_9PyMethodsB1G_E10py_methods5ITEMSs0_10trampoline, symObjAddr: 0x3D190, symBinAddr: 0x479C0, symSize: 0x44 }
  - { offset: 0x22B6F, size: 0x8, addend: 0x0, symName: __RNvNvNvXs5T_NtCs1NyPVrLiP35_11crystal_toe2pyINtNtNtCsinFlhxATJYn_4pyo35impl_7pyclass20PyClassImplCollectorNtBa_8PyPlasmaEINtBJ_9PyMethodsB1G_E10py_methods5ITEMSs1_10trampoline, symObjAddr: 0x3D1D4, symBinAddr: 0x47A04, symSize: 0x50 }
  - { offset: 0x22BCA, size: 0x8, addend: 0x0, symName: __RNvNvNvXs5T_NtCs1NyPVrLiP35_11crystal_toe2pyINtNtNtCsinFlhxATJYn_4pyo35impl_7pyclass20PyClassImplCollectorNtBa_8PyPlasmaEINtBJ_9PyMethodsB1G_E10py_methods5ITEMSs2_10trampoline, symObjAddr: 0x3D224, symBinAddr: 0x47A54, symSize: 0x50 }
  - { offset: 0x22C25, size: 0x8, addend: 0x0, symName: __RNvNvNvXs5T_NtCs1NyPVrLiP35_11crystal_toe2pyINtNtNtCsinFlhxATJYn_4pyo35impl_7pyclass20PyClassImplCollectorNtBa_8PyPlasmaEINtBJ_9PyMethodsB1G_E10py_methods5ITEMSs3_10trampoline, symObjAddr: 0x3D274, symBinAddr: 0x47AA4, symSize: 0x50 }
  - { offset: 0x22C80, size: 0x8, addend: 0x0, symName: __RNvNvNvXs5T_NtCs1NyPVrLiP35_11crystal_toe2pyINtNtNtCsinFlhxATJYn_4pyo35impl_7pyclass20PyClassImplCollectorNtBa_8PyPlasmaEINtBJ_9PyMethodsB1G_E10py_methods5ITEMSs4_10trampoline, symObjAddr: 0x3D2C4, symBinAddr: 0x47AF4, symSize: 0x50 }
  - { offset: 0x22CDB, size: 0x8, addend: 0x0, symName: __RNvNvNvXs5T_NtCs1NyPVrLiP35_11crystal_toe2pyINtNtNtCsinFlhxATJYn_4pyo35impl_7pyclass20PyClassImplCollectorNtBa_8PyPlasmaEINtBJ_9PyMethodsB1G_E10py_methods5ITEMSs5_10trampoline, symObjAddr: 0x3D314, symBinAddr: 0x47B44, symSize: 0x4C }
  - { offset: 0x22D27, size: 0x8, addend: 0x0, symName: __RNvNvNvXs5T_NtCs1NyPVrLiP35_11crystal_toe2pyINtNtNtCsinFlhxATJYn_4pyo35impl_7pyclass20PyClassImplCollectorNtBa_8PyPlasmaEINtBJ_9PyMethodsB1G_E10py_methods5ITEMSs_10trampoline, symObjAddr: 0x3D360, symBinAddr: 0x47B90, symSize: 0x44 }
  - { offset: 0x22D7E, size: 0x8, addend: 0x0, symName: __RNvNvXs5_NtCs1NyPVrLiP35_11crystal_toe2pyNtB7_5PyToeNtNtNtCsinFlhxATJYn_4pyo35impl_7pyclass11PyClassImpl10items_iter15INTRINSIC_ITEMS, symObjAddr: 0x55828, symBinAddr: 0x118348, symSize: 0x0 }
  - { offset: 0x22D9E, size: 0x8, addend: 0x0, symName: __RNvNvXs5_NtCs1NyPVrLiP35_11crystal_toe2pyNtB7_5PyToeNtNtNtCsinFlhxATJYn_4pyo35impl_7pyclass11PyClassImpl16lazy_type_object11TYPE_OBJECT, symObjAddr: 0x56430, symBinAddr: 0x194DF8, symSize: 0x0 }
  - { offset: 0x22DBE, size: 0x8, addend: 0x0, symName: __RNvNvXs5_NtCs1NyPVrLiP35_11crystal_toe2pyNtB7_5PyToeNtNtNtCsinFlhxATJYn_4pyo35impl_7pyclass11PyClassImpl3doc3DOC, symObjAddr: 0x56488, symBinAddr: 0x194E50, symSize: 0x0 }
  - { offset: 0x22DCC, size: 0x8, addend: 0x0, symName: __RNvXs5_NtCs1NyPVrLiP35_11crystal_toe2pyNtB5_5PyToeNtNtNtCsinFlhxATJYn_4pyo35impl_7pyclass11PyClassImpl10items_iter, symObjAddr: 0x4142C, symBinAddr: 0x4BC5C, symSize: 0x38 }
  - { offset: 0x22E07, size: 0x8, addend: 0x0, symName: __RNvXs5_NtCs1NyPVrLiP35_11crystal_toe2pyNtB5_5PyToeNtNtNtCsinFlhxATJYn_4pyo35impl_7pyclass11PyClassImpl16lazy_type_object, symObjAddr: 0x41464, symBinAddr: 0x4BC94, symSize: 0xC }
  - { offset: 0x22E24, size: 0x8, addend: 0x0, symName: __RNvXs5_NtCs1NyPVrLiP35_11crystal_toe2pyNtB5_5PyToeNtNtNtCsinFlhxATJYn_4pyo35impl_7pyclass11PyClassImpl3doc, symObjAddr: 0x41470, symBinAddr: 0x4BCA0, symSize: 0x3C }
  - { offset: 0x232E0, size: 0x8, addend: 0x0, symName: __RNvNvXs5d_NtCs1NyPVrLiP35_11crystal_toe2pyINtNtNtCsinFlhxATJYn_4pyo35impl_7pyclass20PyClassImplCollectorNtB8_8PyOpticsEINtBH_9PyMethodsB1E_E10py_methods5ITEMS, symObjAddr: 0x52620, symBinAddr: 0x18AE20, symSize: 0x0 }
  - { offset: 0x232F2, size: 0x8, addend: 0x0, symName: __RNvNvNvXs5d_NtCs1NyPVrLiP35_11crystal_toe2pyINtNtNtCsinFlhxATJYn_4pyo35impl_7pyclass20PyClassImplCollectorNtBa_8PyOpticsEINtBJ_9PyMethodsB1G_E10py_methods5ITEMS10trampoline, symObjAddr: 0x3D3A4, symBinAddr: 0x47BD4, symSize: 0x44 }
  - { offset: 0x2332F, size: 0x8, addend: 0x0, symName: __RNvNvNvXs5d_NtCs1NyPVrLiP35_11crystal_toe2pyINtNtNtCsinFlhxATJYn_4pyo35impl_7pyclass20PyClassImplCollectorNtBa_8PyOpticsEINtBJ_9PyMethodsB1G_E10py_methods5ITEMSs0_10trampoline, symObjAddr: 0x3D3E8, symBinAddr: 0x47C18, symSize: 0x44 }
  - { offset: 0x2336C, size: 0x8, addend: 0x0, symName: __RNvNvNvXs5d_NtCs1NyPVrLiP35_11crystal_toe2pyINtNtNtCsinFlhxATJYn_4pyo35impl_7pyclass20PyClassImplCollectorNtBa_8PyOpticsEINtBJ_9PyMethodsB1G_E10py_methods5ITEMSs1_10trampoline, symObjAddr: 0x3D42C, symBinAddr: 0x47C5C, symSize: 0x44 }
  - { offset: 0x233A9, size: 0x8, addend: 0x0, symName: __RNvNvNvXs5d_NtCs1NyPVrLiP35_11crystal_toe2pyINtNtNtCsinFlhxATJYn_4pyo35impl_7pyclass20PyClassImplCollectorNtBa_8PyOpticsEINtBJ_9PyMethodsB1G_E10py_methods5ITEMSs2_10trampoline, symObjAddr: 0x3D470, symBinAddr: 0x47CA0, symSize: 0x44 }
  - { offset: 0x233E6, size: 0x8, addend: 0x0, symName: __RNvNvNvXs5d_NtCs1NyPVrLiP35_11crystal_toe2pyINtNtNtCsinFlhxATJYn_4pyo35impl_7pyclass20PyClassImplCollectorNtBa_8PyOpticsEINtBJ_9PyMethodsB1G_E10py_methods5ITEMSs3_10trampoline, symObjAddr: 0x3D4B4, symBinAddr: 0x47CE4, symSize: 0x50 }
  - { offset: 0x23441, size: 0x8, addend: 0x0, symName: __RNvNvNvXs5d_NtCs1NyPVrLiP35_11crystal_toe2pyINtNtNtCsinFlhxATJYn_4pyo35impl_7pyclass20PyClassImplCollectorNtBa_8PyOpticsEINtBJ_9PyMethodsB1G_E10py_methods5ITEMSs4_10trampoline, symObjAddr: 0x3D504, symBinAddr: 0x47D34, symSize: 0x50 }
  - { offset: 0x2349C, size: 0x8, addend: 0x0, symName: __RNvNvNvXs5d_NtCs1NyPVrLiP35_11crystal_toe2pyINtNtNtCsinFlhxATJYn_4pyo35impl_7pyclass20PyClassImplCollectorNtBa_8PyOpticsEINtBJ_9PyMethodsB1G_E10py_methods5ITEMSs5_10trampoline, symObjAddr: 0x3D554, symBinAddr: 0x47D84, symSize: 0x4C }
  - { offset: 0x234E8, size: 0x8, addend: 0x0, symName: __RNvNvNvXs5d_NtCs1NyPVrLiP35_11crystal_toe2pyINtNtNtCsinFlhxATJYn_4pyo35impl_7pyclass20PyClassImplCollectorNtBa_8PyOpticsEINtBJ_9PyMethodsB1G_E10py_methods5ITEMSs_10trampoline, symObjAddr: 0x3D5A0, symBinAddr: 0x47DD0, symSize: 0x44 }
  - { offset: 0x23540, size: 0x8, addend: 0x0, symName: __RNvNvXs5m_NtCs1NyPVrLiP35_11crystal_toe2pyNtB8_4PyMDNtNtNtCsinFlhxATJYn_4pyo35impl_7pyclass11PyClassImpl10items_iter15INTRINSIC_ITEMS, symObjAddr: 0x55848, symBinAddr: 0x118368, symSize: 0x0 }
  - { offset: 0x23561, size: 0x8, addend: 0x0, symName: __RNvNvXs5m_NtCs1NyPVrLiP35_11crystal_toe2pyNtB8_4PyMDNtNtNtCsinFlhxATJYn_4pyo35impl_7pyclass11PyClassImpl16lazy_type_object11TYPE_OBJECT, symObjAddr: 0x564A8, symBinAddr: 0x194E70, symSize: 0x0 }
  - { offset: 0x23582, size: 0x8, addend: 0x0, symName: __RNvNvXs5m_NtCs1NyPVrLiP35_11crystal_toe2pyNtB8_4PyMDNtNtNtCsinFlhxATJYn_4pyo35impl_7pyclass11PyClassImpl3doc3DOC, symObjAddr: 0x56500, symBinAddr: 0x194EC8, symSize: 0x0 }
  - { offset: 0x23590, size: 0x8, addend: 0x0, symName: __RNvXs5m_NtCs1NyPVrLiP35_11crystal_toe2pyNtB6_4PyMDNtNtNtCsinFlhxATJYn_4pyo35impl_7pyclass11PyClassImpl10items_iter, symObjAddr: 0x414D0, symBinAddr: 0x4BD00, symSize: 0x38 }
  - { offset: 0x235CD, size: 0x8, addend: 0x0, symName: __RNvXs5m_NtCs1NyPVrLiP35_11crystal_toe2pyNtB6_4PyMDNtNtNtCsinFlhxATJYn_4pyo35impl_7pyclass11PyClassImpl16lazy_type_object, symObjAddr: 0x41508, symBinAddr: 0x4BD38, symSize: 0xC }
  - { offset: 0x235EB, size: 0x8, addend: 0x0, symName: __RNvXs5m_NtCs1NyPVrLiP35_11crystal_toe2pyNtB6_4PyMDNtNtNtCsinFlhxATJYn_4pyo35impl_7pyclass11PyClassImpl3doc, symObjAddr: 0x41514, symBinAddr: 0x4BD44, symSize: 0x3C }
  - { offset: 0x237ED, size: 0x8, addend: 0x0, symName: __RNvNvXs5r_NtCs1NyPVrLiP35_11crystal_toe2pyINtNtNtCsinFlhxATJYn_4pyo35impl_7pyclass20PyClassImplCollectorNtB8_4PyMDEINtBH_9PyMethodsB1E_E10py_methods5ITEMS, symObjAddr: 0x52810, symBinAddr: 0x18B010, symSize: 0x0 }
  - { offset: 0x237FF, size: 0x8, addend: 0x0, symName: __RNvNvNvXs5r_NtCs1NyPVrLiP35_11crystal_toe2pyINtNtNtCsinFlhxATJYn_4pyo35impl_7pyclass20PyClassImplCollectorNtBa_4PyMDEINtBJ_9PyMethodsB1G_E10py_methods5ITEMS10trampoline, symObjAddr: 0x3D5E4, symBinAddr: 0x47E14, symSize: 0x44 }
  - { offset: 0x2383C, size: 0x8, addend: 0x0, symName: __RNvNvNvXs5r_NtCs1NyPVrLiP35_11crystal_toe2pyINtNtNtCsinFlhxATJYn_4pyo35impl_7pyclass20PyClassImplCollectorNtBa_4PyMDEINtBJ_9PyMethodsB1G_E10py_methods5ITEMSs0_10trampoline, symObjAddr: 0x3D628, symBinAddr: 0x47E58, symSize: 0x44 }
  - { offset: 0x23879, size: 0x8, addend: 0x0, symName: __RNvNvNvXs5r_NtCs1NyPVrLiP35_11crystal_toe2pyINtNtNtCsinFlhxATJYn_4pyo35impl_7pyclass20PyClassImplCollectorNtBa_4PyMDEINtBJ_9PyMethodsB1G_E10py_methods5ITEMSs1_10trampoline, symObjAddr: 0x3D66C, symBinAddr: 0x47E9C, symSize: 0x44 }
  - { offset: 0x238B6, size: 0x8, addend: 0x0, symName: __RNvNvNvXs5r_NtCs1NyPVrLiP35_11crystal_toe2pyINtNtNtCsinFlhxATJYn_4pyo35impl_7pyclass20PyClassImplCollectorNtBa_4PyMDEINtBJ_9PyMethodsB1G_E10py_methods5ITEMSs2_10trampoline, symObjAddr: 0x3D6B0, symBinAddr: 0x47EE0, symSize: 0x44 }
  - { offset: 0x238F3, size: 0x8, addend: 0x0, symName: __RNvNvNvXs5r_NtCs1NyPVrLiP35_11crystal_toe2pyINtNtNtCsinFlhxATJYn_4pyo35impl_7pyclass20PyClassImplCollectorNtBa_4PyMDEINtBJ_9PyMethodsB1G_E10py_methods5ITEMSs3_10trampoline, symObjAddr: 0x3D6F4, symBinAddr: 0x47F24, symSize: 0x44 }
  - { offset: 0x23930, size: 0x8, addend: 0x0, symName: __RNvNvNvXs5r_NtCs1NyPVrLiP35_11crystal_toe2pyINtNtNtCsinFlhxATJYn_4pyo35impl_7pyclass20PyClassImplCollectorNtBa_4PyMDEINtBJ_9PyMethodsB1G_E10py_methods5ITEMSs4_10trampoline, symObjAddr: 0x3D738, symBinAddr: 0x47F68, symSize: 0x50 }
  - { offset: 0x2398B, size: 0x8, addend: 0x0, symName: __RNvNvNvXs5r_NtCs1NyPVrLiP35_11crystal_toe2pyINtNtNtCsinFlhxATJYn_4pyo35impl_7pyclass20PyClassImplCollectorNtBa_4PyMDEINtBJ_9PyMethodsB1G_E10py_methods5ITEMSs5_10trampoline, symObjAddr: 0x3D788, symBinAddr: 0x47FB8, symSize: 0x4C }
  - { offset: 0x239D7, size: 0x8, addend: 0x0, symName: __RNvNvNvXs5r_NtCs1NyPVrLiP35_11crystal_toe2pyINtNtNtCsinFlhxATJYn_4pyo35impl_7pyclass20PyClassImplCollectorNtBa_4PyMDEINtBJ_9PyMethodsB1G_E10py_methods5ITEMSs_10trampoline, symObjAddr: 0x3D7D4, symBinAddr: 0x48004, symSize: 0x44 }
  - { offset: 0x23A2F, size: 0x8, addend: 0x0, symName: __RNvNvXs62_NtCs1NyPVrLiP35_11crystal_toe2pyNtB8_5PyQFTNtNtNtCsinFlhxATJYn_4pyo35impl_7pyclass11PyClassImpl10items_iter15INTRINSIC_ITEMS, symObjAddr: 0x55868, symBinAddr: 0x118388, symSize: 0x0 }
  - { offset: 0x23A50, size: 0x8, addend: 0x0, symName: __RNvNvXs62_NtCs1NyPVrLiP35_11crystal_toe2pyNtB8_5PyQFTNtNtNtCsinFlhxATJYn_4pyo35impl_7pyclass11PyClassImpl16lazy_type_object11TYPE_OBJECT, symObjAddr: 0x56520, symBinAddr: 0x194EE8, symSize: 0x0 }
  - { offset: 0x23A71, size: 0x8, addend: 0x0, symName: __RNvNvXs62_NtCs1NyPVrLiP35_11crystal_toe2pyNtB8_5PyQFTNtNtNtCsinFlhxATJYn_4pyo35impl_7pyclass11PyClassImpl3doc3DOC, symObjAddr: 0x56578, symBinAddr: 0x194F40, symSize: 0x0 }
  - { offset: 0x23A7F, size: 0x8, addend: 0x0, symName: __RNvXs62_NtCs1NyPVrLiP35_11crystal_toe2pyNtB6_5PyQFTNtNtNtCsinFlhxATJYn_4pyo35impl_7pyclass11PyClassImpl10items_iter, symObjAddr: 0x41574, symBinAddr: 0x4BDA4, symSize: 0x38 }
  - { offset: 0x23ABC, size: 0x8, addend: 0x0, symName: __RNvXs62_NtCs1NyPVrLiP35_11crystal_toe2pyNtB6_5PyQFTNtNtNtCsinFlhxATJYn_4pyo35impl_7pyclass11PyClassImpl16lazy_type_object, symObjAddr: 0x415AC, symBinAddr: 0x4BDDC, symSize: 0xC }
  - { offset: 0x23ADA, size: 0x8, addend: 0x0, symName: __RNvXs62_NtCs1NyPVrLiP35_11crystal_toe2pyNtB6_5PyQFTNtNtNtCsinFlhxATJYn_4pyo35impl_7pyclass11PyClassImpl3doc, symObjAddr: 0x415B8, symBinAddr: 0x4BDE8, symSize: 0x3C }
  - { offset: 0x23D7E, size: 0x8, addend: 0x0, symName: __RNvNvXs67_NtCs1NyPVrLiP35_11crystal_toe2pyINtNtNtCsinFlhxATJYn_4pyo35impl_7pyclass20PyClassImplCollectorNtB8_5PyQFTEINtBH_9PyMethodsB1E_E10py_methods5ITEMS, symObjAddr: 0x52AC0, symBinAddr: 0x18B2C0, symSize: 0x0 }
  - { offset: 0x23D90, size: 0x8, addend: 0x0, symName: __RNvNvNvXs67_NtCs1NyPVrLiP35_11crystal_toe2pyINtNtNtCsinFlhxATJYn_4pyo35impl_7pyclass20PyClassImplCollectorNtBa_5PyQFTEINtBJ_9PyMethodsB1G_E10py_methods5ITEMS10trampoline, symObjAddr: 0x3D818, symBinAddr: 0x48048, symSize: 0x44 }
  - { offset: 0x23DCD, size: 0x8, addend: 0x0, symName: __RNvNvNvXs67_NtCs1NyPVrLiP35_11crystal_toe2pyINtNtNtCsinFlhxATJYn_4pyo35impl_7pyclass20PyClassImplCollectorNtBa_5PyQFTEINtBJ_9PyMethodsB1G_E10py_methods5ITEMSs0_10trampoline, symObjAddr: 0x3D85C, symBinAddr: 0x4808C, symSize: 0x44 }
  - { offset: 0x23E0A, size: 0x8, addend: 0x0, symName: __RNvNvNvXs67_NtCs1NyPVrLiP35_11crystal_toe2pyINtNtNtCsinFlhxATJYn_4pyo35impl_7pyclass20PyClassImplCollectorNtBa_5PyQFTEINtBJ_9PyMethodsB1G_E10py_methods5ITEMSs1_10trampoline, symObjAddr: 0x3D8A0, symBinAddr: 0x480D0, symSize: 0x44 }
  - { offset: 0x23E47, size: 0x8, addend: 0x0, symName: __RNvNvNvXs67_NtCs1NyPVrLiP35_11crystal_toe2pyINtNtNtCsinFlhxATJYn_4pyo35impl_7pyclass20PyClassImplCollectorNtBa_5PyQFTEINtBJ_9PyMethodsB1G_E10py_methods5ITEMSs2_10trampoline, symObjAddr: 0x3D8E4, symBinAddr: 0x48114, symSize: 0x44 }
  - { offset: 0x23E84, size: 0x8, addend: 0x0, symName: __RNvNvNvXs67_NtCs1NyPVrLiP35_11crystal_toe2pyINtNtNtCsinFlhxATJYn_4pyo35impl_7pyclass20PyClassImplCollectorNtBa_5PyQFTEINtBJ_9PyMethodsB1G_E10py_methods5ITEMSs3_10trampoline, symObjAddr: 0x3D928, symBinAddr: 0x48158, symSize: 0x44 }
  - { offset: 0x23EC1, size: 0x8, addend: 0x0, symName: __RNvNvNvXs67_NtCs1NyPVrLiP35_11crystal_toe2pyINtNtNtCsinFlhxATJYn_4pyo35impl_7pyclass20PyClassImplCollectorNtBa_5PyQFTEINtBJ_9PyMethodsB1G_E10py_methods5ITEMSs4_10trampoline, symObjAddr: 0x3D96C, symBinAddr: 0x4819C, symSize: 0x44 }
  - { offset: 0x23EFE, size: 0x8, addend: 0x0, symName: __RNvNvNvXs67_NtCs1NyPVrLiP35_11crystal_toe2pyINtNtNtCsinFlhxATJYn_4pyo35impl_7pyclass20PyClassImplCollectorNtBa_5PyQFTEINtBJ_9PyMethodsB1G_E10py_methods5ITEMSs5_10trampoline, symObjAddr: 0x3D9B0, symBinAddr: 0x481E0, symSize: 0x50 }
  - { offset: 0x23F59, size: 0x8, addend: 0x0, symName: __RNvNvNvXs67_NtCs1NyPVrLiP35_11crystal_toe2pyINtNtNtCsinFlhxATJYn_4pyo35impl_7pyclass20PyClassImplCollectorNtBa_5PyQFTEINtBJ_9PyMethodsB1G_E10py_methods5ITEMSs6_10trampoline, symObjAddr: 0x3DA00, symBinAddr: 0x48230, symSize: 0x44 }
  - { offset: 0x23F96, size: 0x8, addend: 0x0, symName: __RNvNvNvXs67_NtCs1NyPVrLiP35_11crystal_toe2pyINtNtNtCsinFlhxATJYn_4pyo35impl_7pyclass20PyClassImplCollectorNtBa_5PyQFTEINtBJ_9PyMethodsB1G_E10py_methods5ITEMSs7_10trampoline, symObjAddr: 0x3DA44, symBinAddr: 0x48274, symSize: 0x50 }
  - { offset: 0x23FF1, size: 0x8, addend: 0x0, symName: __RNvNvNvXs67_NtCs1NyPVrLiP35_11crystal_toe2pyINtNtNtCsinFlhxATJYn_4pyo35impl_7pyclass20PyClassImplCollectorNtBa_5PyQFTEINtBJ_9PyMethodsB1G_E10py_methods5ITEMSs8_10trampoline, symObjAddr: 0x3DA94, symBinAddr: 0x482C4, symSize: 0x4C }
  - { offset: 0x2403D, size: 0x8, addend: 0x0, symName: __RNvNvNvXs67_NtCs1NyPVrLiP35_11crystal_toe2pyINtNtNtCsinFlhxATJYn_4pyo35impl_7pyclass20PyClassImplCollectorNtBa_5PyQFTEINtBJ_9PyMethodsB1G_E10py_methods5ITEMSs_10trampoline, symObjAddr: 0x3DAE0, symBinAddr: 0x48310, symSize: 0x44 }
  - { offset: 0x24095, size: 0x8, addend: 0x0, symName: __RNvNvXs6I_NtCs1NyPVrLiP35_11crystal_toe2pyNtB8_9PyNuclearNtNtNtCsinFlhxATJYn_4pyo35impl_7pyclass11PyClassImpl10items_iter15INTRINSIC_ITEMS, symObjAddr: 0x55888, symBinAddr: 0x1183A8, symSize: 0x0 }
  - { offset: 0x240B6, size: 0x8, addend: 0x0, symName: __RNvNvXs6I_NtCs1NyPVrLiP35_11crystal_toe2pyNtB8_9PyNuclearNtNtNtCsinFlhxATJYn_4pyo35impl_7pyclass11PyClassImpl16lazy_type_object11TYPE_OBJECT, symObjAddr: 0x56598, symBinAddr: 0x194F60, symSize: 0x0 }
  - { offset: 0x240D7, size: 0x8, addend: 0x0, symName: __RNvNvXs6I_NtCs1NyPVrLiP35_11crystal_toe2pyNtB8_9PyNuclearNtNtNtCsinFlhxATJYn_4pyo35impl_7pyclass11PyClassImpl3doc3DOC, symObjAddr: 0x565F0, symBinAddr: 0x194FB8, symSize: 0x0 }
  - { offset: 0x240E5, size: 0x8, addend: 0x0, symName: __RNvXs6I_NtCs1NyPVrLiP35_11crystal_toe2pyNtB6_9PyNuclearNtNtNtCsinFlhxATJYn_4pyo35impl_7pyclass11PyClassImpl10items_iter, symObjAddr: 0x41618, symBinAddr: 0x4BE48, symSize: 0x38 }
  - { offset: 0x24122, size: 0x8, addend: 0x0, symName: __RNvXs6I_NtCs1NyPVrLiP35_11crystal_toe2pyNtB6_9PyNuclearNtNtNtCsinFlhxATJYn_4pyo35impl_7pyclass11PyClassImpl16lazy_type_object, symObjAddr: 0x41650, symBinAddr: 0x4BE80, symSize: 0xC }
  - { offset: 0x24140, size: 0x8, addend: 0x0, symName: __RNvXs6I_NtCs1NyPVrLiP35_11crystal_toe2pyNtB6_9PyNuclearNtNtNtCsinFlhxATJYn_4pyo35impl_7pyclass11PyClassImpl3doc, symObjAddr: 0x4165C, symBinAddr: 0x4BE8C, symSize: 0x3C }
  - { offset: 0x24325, size: 0x8, addend: 0x0, symName: __RNvNvXs6N_NtCs1NyPVrLiP35_11crystal_toe2pyINtNtNtCsinFlhxATJYn_4pyo35impl_7pyclass20PyClassImplCollectorNtB8_9PyNuclearEINtBH_9PyMethodsB1E_E10py_methods5ITEMS, symObjAddr: 0x52C70, symBinAddr: 0x18B470, symSize: 0x0 }
  - { offset: 0x24337, size: 0x8, addend: 0x0, symName: __RNvNvNvXs6N_NtCs1NyPVrLiP35_11crystal_toe2pyINtNtNtCsinFlhxATJYn_4pyo35impl_7pyclass20PyClassImplCollectorNtBa_9PyNuclearEINtBJ_9PyMethodsB1G_E10py_methods5ITEMS10trampoline, symObjAddr: 0x3DB24, symBinAddr: 0x48354, symSize: 0x44 }
  - { offset: 0x24374, size: 0x8, addend: 0x0, symName: __RNvNvNvXs6N_NtCs1NyPVrLiP35_11crystal_toe2pyINtNtNtCsinFlhxATJYn_4pyo35impl_7pyclass20PyClassImplCollectorNtBa_9PyNuclearEINtBJ_9PyMethodsB1G_E10py_methods5ITEMSs0_10trampoline, symObjAddr: 0x3DB68, symBinAddr: 0x48398, symSize: 0x44 }
  - { offset: 0x243B1, size: 0x8, addend: 0x0, symName: __RNvNvNvXs6N_NtCs1NyPVrLiP35_11crystal_toe2pyINtNtNtCsinFlhxATJYn_4pyo35impl_7pyclass20PyClassImplCollectorNtBa_9PyNuclearEINtBJ_9PyMethodsB1G_E10py_methods5ITEMSs1_10trampoline, symObjAddr: 0x3DBAC, symBinAddr: 0x483DC, symSize: 0x44 }
  - { offset: 0x243EE, size: 0x8, addend: 0x0, symName: __RNvNvNvXs6N_NtCs1NyPVrLiP35_11crystal_toe2pyINtNtNtCsinFlhxATJYn_4pyo35impl_7pyclass20PyClassImplCollectorNtBa_9PyNuclearEINtBJ_9PyMethodsB1G_E10py_methods5ITEMSs2_10trampoline, symObjAddr: 0x3DBF0, symBinAddr: 0x48420, symSize: 0x50 }
  - { offset: 0x24449, size: 0x8, addend: 0x0, symName: __RNvNvNvXs6N_NtCs1NyPVrLiP35_11crystal_toe2pyINtNtNtCsinFlhxATJYn_4pyo35impl_7pyclass20PyClassImplCollectorNtBa_9PyNuclearEINtBJ_9PyMethodsB1G_E10py_methods5ITEMSs3_10trampoline, symObjAddr: 0x3DC40, symBinAddr: 0x48470, symSize: 0x50 }
  - { offset: 0x244A4, size: 0x8, addend: 0x0, symName: __RNvNvNvXs6N_NtCs1NyPVrLiP35_11crystal_toe2pyINtNtNtCsinFlhxATJYn_4pyo35impl_7pyclass20PyClassImplCollectorNtBa_9PyNuclearEINtBJ_9PyMethodsB1G_E10py_methods5ITEMSs4_10trampoline, symObjAddr: 0x3DC90, symBinAddr: 0x484C0, symSize: 0x4C }
  - { offset: 0x244F0, size: 0x8, addend: 0x0, symName: __RNvNvNvXs6N_NtCs1NyPVrLiP35_11crystal_toe2pyINtNtNtCsinFlhxATJYn_4pyo35impl_7pyclass20PyClassImplCollectorNtBa_9PyNuclearEINtBJ_9PyMethodsB1G_E10py_methods5ITEMSs_10trampoline, symObjAddr: 0x3DCDC, symBinAddr: 0x4850C, symSize: 0x44 }
  - { offset: 0x24548, size: 0x8, addend: 0x0, symName: __RNvNvXs6W_NtCs1NyPVrLiP35_11crystal_toe2pyNtB8_7PyAstroNtNtNtCsinFlhxATJYn_4pyo35impl_7pyclass11PyClassImpl10items_iter15INTRINSIC_ITEMS, symObjAddr: 0x558A8, symBinAddr: 0x1183C8, symSize: 0x0 }
  - { offset: 0x24569, size: 0x8, addend: 0x0, symName: __RNvNvXs6W_NtCs1NyPVrLiP35_11crystal_toe2pyNtB8_7PyAstroNtNtNtCsinFlhxATJYn_4pyo35impl_7pyclass11PyClassImpl16lazy_type_object11TYPE_OBJECT, symObjAddr: 0x56610, symBinAddr: 0x194FD8, symSize: 0x0 }
  - { offset: 0x2458A, size: 0x8, addend: 0x0, symName: __RNvNvXs6W_NtCs1NyPVrLiP35_11crystal_toe2pyNtB8_7PyAstroNtNtNtCsinFlhxATJYn_4pyo35impl_7pyclass11PyClassImpl3doc3DOC, symObjAddr: 0x56668, symBinAddr: 0x195030, symSize: 0x0 }
  - { offset: 0x24598, size: 0x8, addend: 0x0, symName: __RNvXs6W_NtCs1NyPVrLiP35_11crystal_toe2pyNtB6_7PyAstroNtNtNtCsinFlhxATJYn_4pyo35impl_7pyclass11PyClassImpl10items_iter, symObjAddr: 0x416BC, symBinAddr: 0x4BEEC, symSize: 0x38 }
  - { offset: 0x245D5, size: 0x8, addend: 0x0, symName: __RNvXs6W_NtCs1NyPVrLiP35_11crystal_toe2pyNtB6_7PyAstroNtNtNtCsinFlhxATJYn_4pyo35impl_7pyclass11PyClassImpl16lazy_type_object, symObjAddr: 0x416F4, symBinAddr: 0x4BF24, symSize: 0xC }
  - { offset: 0x245F3, size: 0x8, addend: 0x0, symName: __RNvXs6W_NtCs1NyPVrLiP35_11crystal_toe2pyNtB6_7PyAstroNtNtNtCsinFlhxATJYn_4pyo35impl_7pyclass11PyClassImpl3doc, symObjAddr: 0x41700, symBinAddr: 0x4BF30, symSize: 0x3C }
  - { offset: 0x247EB, size: 0x8, addend: 0x0, symName: __RNvNvXs6g_NtCs1NyPVrLiP35_11crystal_toe2pyNtB8_7PyRigidNtNtNtCsinFlhxATJYn_4pyo35impl_7pyclass11PyClassImpl10items_iter15INTRINSIC_ITEMS, symObjAddr: 0x558C8, symBinAddr: 0x1183E8, symSize: 0x0 }
  - { offset: 0x2480C, size: 0x8, addend: 0x0, symName: __RNvNvXs6g_NtCs1NyPVrLiP35_11crystal_toe2pyNtB8_7PyRigidNtNtNtCsinFlhxATJYn_4pyo35impl_7pyclass11PyClassImpl16lazy_type_object11TYPE_OBJECT, symObjAddr: 0x56688, symBinAddr: 0x195050, symSize: 0x0 }
  - { offset: 0x2482D, size: 0x8, addend: 0x0, symName: __RNvNvXs6g_NtCs1NyPVrLiP35_11crystal_toe2pyNtB8_7PyRigidNtNtNtCsinFlhxATJYn_4pyo35impl_7pyclass11PyClassImpl3doc3DOC, symObjAddr: 0x566E0, symBinAddr: 0x1950A8, symSize: 0x0 }
  - { offset: 0x2483B, size: 0x8, addend: 0x0, symName: __RNvXs6g_NtCs1NyPVrLiP35_11crystal_toe2pyNtB6_7PyRigidNtNtNtCsinFlhxATJYn_4pyo35impl_7pyclass11PyClassImpl10items_iter, symObjAddr: 0x41760, symBinAddr: 0x4BF90, symSize: 0x38 }
  - { offset: 0x24878, size: 0x8, addend: 0x0, symName: __RNvXs6g_NtCs1NyPVrLiP35_11crystal_toe2pyNtB6_7PyRigidNtNtNtCsinFlhxATJYn_4pyo35impl_7pyclass11PyClassImpl16lazy_type_object, symObjAddr: 0x41798, symBinAddr: 0x4BFC8, symSize: 0xC }
  - { offset: 0x24896, size: 0x8, addend: 0x0, symName: __RNvXs6g_NtCs1NyPVrLiP35_11crystal_toe2pyNtB6_7PyRigidNtNtNtCsinFlhxATJYn_4pyo35impl_7pyclass11PyClassImpl3doc, symObjAddr: 0x417A4, symBinAddr: 0x4BFD4, symSize: 0x3C }
  - { offset: 0x24B40, size: 0x8, addend: 0x0, symName: __RNvNvXs6l_NtCs1NyPVrLiP35_11crystal_toe2pyINtNtNtCsinFlhxATJYn_4pyo35impl_7pyclass20PyClassImplCollectorNtB8_7PyRigidEINtBH_9PyMethodsB1E_E10py_methods5ITEMS, symObjAddr: 0x52EE0, symBinAddr: 0x18B6E0, symSize: 0x0 }
  - { offset: 0x24B52, size: 0x8, addend: 0x0, symName: __RNvNvNvXs6l_NtCs1NyPVrLiP35_11crystal_toe2pyINtNtNtCsinFlhxATJYn_4pyo35impl_7pyclass20PyClassImplCollectorNtBa_7PyRigidEINtBJ_9PyMethodsB1G_E10py_methods5ITEMS10trampoline, symObjAddr: 0x3DD20, symBinAddr: 0x48550, symSize: 0x44 }
  - { offset: 0x24B8F, size: 0x8, addend: 0x0, symName: __RNvNvNvXs6l_NtCs1NyPVrLiP35_11crystal_toe2pyINtNtNtCsinFlhxATJYn_4pyo35impl_7pyclass20PyClassImplCollectorNtBa_7PyRigidEINtBJ_9PyMethodsB1G_E10py_methods5ITEMSs0_10trampoline, symObjAddr: 0x3DD64, symBinAddr: 0x48594, symSize: 0x44 }
  - { offset: 0x24BCC, size: 0x8, addend: 0x0, symName: __RNvNvNvXs6l_NtCs1NyPVrLiP35_11crystal_toe2pyINtNtNtCsinFlhxATJYn_4pyo35impl_7pyclass20PyClassImplCollectorNtBa_7PyRigidEINtBJ_9PyMethodsB1G_E10py_methods5ITEMSs1_10trampoline, symObjAddr: 0x3DDA8, symBinAddr: 0x485D8, symSize: 0x44 }
  - { offset: 0x24C09, size: 0x8, addend: 0x0, symName: __RNvNvNvXs6l_NtCs1NyPVrLiP35_11crystal_toe2pyINtNtNtCsinFlhxATJYn_4pyo35impl_7pyclass20PyClassImplCollectorNtBa_7PyRigidEINtBJ_9PyMethodsB1G_E10py_methods5ITEMSs2_10trampoline, symObjAddr: 0x3DDEC, symBinAddr: 0x4861C, symSize: 0x50 }
  - { offset: 0x24C64, size: 0x8, addend: 0x0, symName: __RNvNvNvXs6l_NtCs1NyPVrLiP35_11crystal_toe2pyINtNtNtCsinFlhxATJYn_4pyo35impl_7pyclass20PyClassImplCollectorNtBa_7PyRigidEINtBJ_9PyMethodsB1G_E10py_methods5ITEMSs3_10trampoline, symObjAddr: 0x3DE3C, symBinAddr: 0x4866C, symSize: 0x50 }
  - { offset: 0x24CBF, size: 0x8, addend: 0x0, symName: __RNvNvNvXs6l_NtCs1NyPVrLiP35_11crystal_toe2pyINtNtNtCsinFlhxATJYn_4pyo35impl_7pyclass20PyClassImplCollectorNtBa_7PyRigidEINtBJ_9PyMethodsB1G_E10py_methods5ITEMSs4_10trampoline, symObjAddr: 0x3DE8C, symBinAddr: 0x486BC, symSize: 0x50 }
  - { offset: 0x24D1A, size: 0x8, addend: 0x0, symName: __RNvNvNvXs6l_NtCs1NyPVrLiP35_11crystal_toe2pyINtNtNtCsinFlhxATJYn_4pyo35impl_7pyclass20PyClassImplCollectorNtBa_7PyRigidEINtBJ_9PyMethodsB1G_E10py_methods5ITEMSs5_10trampoline, symObjAddr: 0x3DEDC, symBinAddr: 0x4870C, symSize: 0x50 }
  - { offset: 0x24D75, size: 0x8, addend: 0x0, symName: __RNvNvNvXs6l_NtCs1NyPVrLiP35_11crystal_toe2pyINtNtNtCsinFlhxATJYn_4pyo35impl_7pyclass20PyClassImplCollectorNtBa_7PyRigidEINtBJ_9PyMethodsB1G_E10py_methods5ITEMSs6_10trampoline, symObjAddr: 0x3DF2C, symBinAddr: 0x4875C, symSize: 0x44 }
  - { offset: 0x24DB2, size: 0x8, addend: 0x0, symName: __RNvNvNvXs6l_NtCs1NyPVrLiP35_11crystal_toe2pyINtNtNtCsinFlhxATJYn_4pyo35impl_7pyclass20PyClassImplCollectorNtBa_7PyRigidEINtBJ_9PyMethodsB1G_E10py_methods5ITEMSs7_10trampoline, symObjAddr: 0x3DF70, symBinAddr: 0x487A0, symSize: 0x4C }
  - { offset: 0x24DFE, size: 0x8, addend: 0x0, symName: __RNvNvNvXs6l_NtCs1NyPVrLiP35_11crystal_toe2pyINtNtNtCsinFlhxATJYn_4pyo35impl_7pyclass20PyClassImplCollectorNtBa_7PyRigidEINtBJ_9PyMethodsB1G_E10py_methods5ITEMSs_10trampoline, symObjAddr: 0x3DFBC, symBinAddr: 0x487EC, symSize: 0x44 }
  - { offset: 0x24E56, size: 0x8, addend: 0x0, symName: __RNvNvXs6u_NtCs1NyPVrLiP35_11crystal_toe2pyNtB8_6PyChemNtNtNtCsinFlhxATJYn_4pyo35impl_7pyclass11PyClassImpl10items_iter15INTRINSIC_ITEMS, symObjAddr: 0x558E8, symBinAddr: 0x118408, symSize: 0x0 }
  - { offset: 0x24E77, size: 0x8, addend: 0x0, symName: __RNvNvXs6u_NtCs1NyPVrLiP35_11crystal_toe2pyNtB8_6PyChemNtNtNtCsinFlhxATJYn_4pyo35impl_7pyclass11PyClassImpl16lazy_type_object11TYPE_OBJECT, symObjAddr: 0x56700, symBinAddr: 0x1950C8, symSize: 0x0 }
  - { offset: 0x24E98, size: 0x8, addend: 0x0, symName: __RNvNvXs6u_NtCs1NyPVrLiP35_11crystal_toe2pyNtB8_6PyChemNtNtNtCsinFlhxATJYn_4pyo35impl_7pyclass11PyClassImpl3doc3DOC, symObjAddr: 0x56758, symBinAddr: 0x195120, symSize: 0x0 }
  - { offset: 0x24EA6, size: 0x8, addend: 0x0, symName: __RNvXs6u_NtCs1NyPVrLiP35_11crystal_toe2pyNtB6_6PyChemNtNtNtCsinFlhxATJYn_4pyo35impl_7pyclass11PyClassImpl10items_iter, symObjAddr: 0x41804, symBinAddr: 0x4C034, symSize: 0x38 }
  - { offset: 0x24EE3, size: 0x8, addend: 0x0, symName: __RNvXs6u_NtCs1NyPVrLiP35_11crystal_toe2pyNtB6_6PyChemNtNtNtCsinFlhxATJYn_4pyo35impl_7pyclass11PyClassImpl16lazy_type_object, symObjAddr: 0x4183C, symBinAddr: 0x4C06C, symSize: 0xC }
  - { offset: 0x24F01, size: 0x8, addend: 0x0, symName: __RNvXs6u_NtCs1NyPVrLiP35_11crystal_toe2pyNtB6_6PyChemNtNtNtCsinFlhxATJYn_4pyo35impl_7pyclass11PyClassImpl3doc, symObjAddr: 0x41848, symBinAddr: 0x4C078, symSize: 0x3C }
  - { offset: 0x25269, size: 0x8, addend: 0x0, symName: __RNvNvXs6z_NtCs1NyPVrLiP35_11crystal_toe2pyINtNtNtCsinFlhxATJYn_4pyo35impl_7pyclass20PyClassImplCollectorNtB8_6PyChemEINtBH_9PyMethodsB1E_E10py_methods5ITEMS, symObjAddr: 0x53290, symBinAddr: 0x18BA90, symSize: 0x0 }
  - { offset: 0x2527B, size: 0x8, addend: 0x0, symName: __RNvNvNvXs6z_NtCs1NyPVrLiP35_11crystal_toe2pyINtNtNtCsinFlhxATJYn_4pyo35impl_7pyclass20PyClassImplCollectorNtBa_6PyChemEINtBJ_9PyMethodsB1G_E10py_methods5ITEMS10trampoline, symObjAddr: 0x3E000, symBinAddr: 0x48830, symSize: 0x44 }
  - { offset: 0x252B8, size: 0x8, addend: 0x0, symName: __RNvNvNvXs6z_NtCs1NyPVrLiP35_11crystal_toe2pyINtNtNtCsinFlhxATJYn_4pyo35impl_7pyclass20PyClassImplCollectorNtBa_6PyChemEINtBJ_9PyMethodsB1G_E10py_methods5ITEMSs0_10trampoline, symObjAddr: 0x3E044, symBinAddr: 0x48874, symSize: 0x44 }
  - { offset: 0x252F5, size: 0x8, addend: 0x0, symName: __RNvNvNvXs6z_NtCs1NyPVrLiP35_11crystal_toe2pyINtNtNtCsinFlhxATJYn_4pyo35impl_7pyclass20PyClassImplCollectorNtBa_6PyChemEINtBJ_9PyMethodsB1G_E10py_methods5ITEMSs1_10trampoline, symObjAddr: 0x3E088, symBinAddr: 0x488B8, symSize: 0x44 }
  - { offset: 0x25332, size: 0x8, addend: 0x0, symName: __RNvNvNvXs6z_NtCs1NyPVrLiP35_11crystal_toe2pyINtNtNtCsinFlhxATJYn_4pyo35impl_7pyclass20PyClassImplCollectorNtBa_6PyChemEINtBJ_9PyMethodsB1G_E10py_methods5ITEMSs2_10trampoline, symObjAddr: 0x3E0CC, symBinAddr: 0x488FC, symSize: 0x44 }
  - { offset: 0x2536F, size: 0x8, addend: 0x0, symName: __RNvNvNvXs6z_NtCs1NyPVrLiP35_11crystal_toe2pyINtNtNtCsinFlhxATJYn_4pyo35impl_7pyclass20PyClassImplCollectorNtBa_6PyChemEINtBJ_9PyMethodsB1G_E10py_methods5ITEMSs3_10trampoline, symObjAddr: 0x3E110, symBinAddr: 0x48940, symSize: 0x44 }
  - { offset: 0x253AC, size: 0x8, addend: 0x0, symName: __RNvNvNvXs6z_NtCs1NyPVrLiP35_11crystal_toe2pyINtNtNtCsinFlhxATJYn_4pyo35impl_7pyclass20PyClassImplCollectorNtBa_6PyChemEINtBJ_9PyMethodsB1G_E10py_methods5ITEMSs4_10trampoline, symObjAddr: 0x3E154, symBinAddr: 0x48984, symSize: 0x44 }
  - { offset: 0x253E9, size: 0x8, addend: 0x0, symName: __RNvNvNvXs6z_NtCs1NyPVrLiP35_11crystal_toe2pyINtNtNtCsinFlhxATJYn_4pyo35impl_7pyclass20PyClassImplCollectorNtBa_6PyChemEINtBJ_9PyMethodsB1G_E10py_methods5ITEMSs5_10trampoline, symObjAddr: 0x3E198, symBinAddr: 0x489C8, symSize: 0x44 }
  - { offset: 0x25426, size: 0x8, addend: 0x0, symName: __RNvNvNvXs6z_NtCs1NyPVrLiP35_11crystal_toe2pyINtNtNtCsinFlhxATJYn_4pyo35impl_7pyclass20PyClassImplCollectorNtBa_6PyChemEINtBJ_9PyMethodsB1G_E10py_methods5ITEMSs6_10trampoline, symObjAddr: 0x3E1DC, symBinAddr: 0x48A0C, symSize: 0x44 }
  - { offset: 0x25463, size: 0x8, addend: 0x0, symName: __RNvNvNvXs6z_NtCs1NyPVrLiP35_11crystal_toe2pyINtNtNtCsinFlhxATJYn_4pyo35impl_7pyclass20PyClassImplCollectorNtBa_6PyChemEINtBJ_9PyMethodsB1G_E10py_methods5ITEMSs7_10trampoline, symObjAddr: 0x3E220, symBinAddr: 0x48A50, symSize: 0x44 }
  - { offset: 0x254A0, size: 0x8, addend: 0x0, symName: __RNvNvNvXs6z_NtCs1NyPVrLiP35_11crystal_toe2pyINtNtNtCsinFlhxATJYn_4pyo35impl_7pyclass20PyClassImplCollectorNtBa_6PyChemEINtBJ_9PyMethodsB1G_E10py_methods5ITEMSs8_10trampoline, symObjAddr: 0x3E264, symBinAddr: 0x48A94, symSize: 0x44 }
  - { offset: 0x254DD, size: 0x8, addend: 0x0, symName: __RNvNvNvXs6z_NtCs1NyPVrLiP35_11crystal_toe2pyINtNtNtCsinFlhxATJYn_4pyo35impl_7pyclass20PyClassImplCollectorNtBa_6PyChemEINtBJ_9PyMethodsB1G_E10py_methods5ITEMSs9_10trampoline, symObjAddr: 0x3E2A8, symBinAddr: 0x48AD8, symSize: 0x44 }
  - { offset: 0x2551A, size: 0x8, addend: 0x0, symName: __RNvNvNvXs6z_NtCs1NyPVrLiP35_11crystal_toe2pyINtNtNtCsinFlhxATJYn_4pyo35impl_7pyclass20PyClassImplCollectorNtBa_6PyChemEINtBJ_9PyMethodsB1G_E10py_methods5ITEMSs_10trampoline, symObjAddr: 0x3E2EC, symBinAddr: 0x48B1C, symSize: 0x44 }
  - { offset: 0x25557, size: 0x8, addend: 0x0, symName: __RNvNvNvXs6z_NtCs1NyPVrLiP35_11crystal_toe2pyINtNtNtCsinFlhxATJYn_4pyo35impl_7pyclass20PyClassImplCollectorNtBa_6PyChemEINtBJ_9PyMethodsB1G_E10py_methods5ITEMSsa_10trampoline, symObjAddr: 0x3E330, symBinAddr: 0x48B60, symSize: 0x50 }
  - { offset: 0x255B2, size: 0x8, addend: 0x0, symName: __RNvNvNvXs6z_NtCs1NyPVrLiP35_11crystal_toe2pyINtNtNtCsinFlhxATJYn_4pyo35impl_7pyclass20PyClassImplCollectorNtBa_6PyChemEINtBJ_9PyMethodsB1G_E10py_methods5ITEMSsb_10trampoline, symObjAddr: 0x3E380, symBinAddr: 0x48BB0, symSize: 0x50 }
  - { offset: 0x2560D, size: 0x8, addend: 0x0, symName: __RNvNvNvXs6z_NtCs1NyPVrLiP35_11crystal_toe2pyINtNtNtCsinFlhxATJYn_4pyo35impl_7pyclass20PyClassImplCollectorNtBa_6PyChemEINtBJ_9PyMethodsB1G_E10py_methods5ITEMSsc_10trampoline, symObjAddr: 0x3E3D0, symBinAddr: 0x48C00, symSize: 0x4C }
  - { offset: 0x25674, size: 0x8, addend: 0x0, symName: __RNvNvXs71_NtCs1NyPVrLiP35_11crystal_toe2pyINtNtNtCsinFlhxATJYn_4pyo35impl_7pyclass20PyClassImplCollectorNtB8_7PyAstroEINtBH_9PyMethodsB1E_E10py_methods5ITEMS, symObjAddr: 0x53480, symBinAddr: 0x18BC80, symSize: 0x0 }
  - { offset: 0x25686, size: 0x8, addend: 0x0, symName: __RNvNvNvXs71_NtCs1NyPVrLiP35_11crystal_toe2pyINtNtNtCsinFlhxATJYn_4pyo35impl_7pyclass20PyClassImplCollectorNtBa_7PyAstroEINtBJ_9PyMethodsB1G_E10py_methods5ITEMS10trampoline, symObjAddr: 0x3E41C, symBinAddr: 0x48C4C, symSize: 0x44 }
  - { offset: 0x256C3, size: 0x8, addend: 0x0, symName: __RNvNvNvXs71_NtCs1NyPVrLiP35_11crystal_toe2pyINtNtNtCsinFlhxATJYn_4pyo35impl_7pyclass20PyClassImplCollectorNtBa_7PyAstroEINtBJ_9PyMethodsB1G_E10py_methods5ITEMSs0_10trampoline, symObjAddr: 0x3E460, symBinAddr: 0x48C90, symSize: 0x44 }
  - { offset: 0x25700, size: 0x8, addend: 0x0, symName: __RNvNvNvXs71_NtCs1NyPVrLiP35_11crystal_toe2pyINtNtNtCsinFlhxATJYn_4pyo35impl_7pyclass20PyClassImplCollectorNtBa_7PyAstroEINtBJ_9PyMethodsB1G_E10py_methods5ITEMSs1_10trampoline, symObjAddr: 0x3E4A4, symBinAddr: 0x48CD4, symSize: 0x44 }
  - { offset: 0x2573D, size: 0x8, addend: 0x0, symName: __RNvNvNvXs71_NtCs1NyPVrLiP35_11crystal_toe2pyINtNtNtCsinFlhxATJYn_4pyo35impl_7pyclass20PyClassImplCollectorNtBa_7PyAstroEINtBJ_9PyMethodsB1G_E10py_methods5ITEMSs2_10trampoline, symObjAddr: 0x3E4E8, symBinAddr: 0x48D18, symSize: 0x44 }
  - { offset: 0x2577A, size: 0x8, addend: 0x0, symName: __RNvNvNvXs71_NtCs1NyPVrLiP35_11crystal_toe2pyINtNtNtCsinFlhxATJYn_4pyo35impl_7pyclass20PyClassImplCollectorNtBa_7PyAstroEINtBJ_9PyMethodsB1G_E10py_methods5ITEMSs3_10trampoline, symObjAddr: 0x3E52C, symBinAddr: 0x48D5C, symSize: 0x44 }
  - { offset: 0x257B7, size: 0x8, addend: 0x0, symName: __RNvNvNvXs71_NtCs1NyPVrLiP35_11crystal_toe2pyINtNtNtCsinFlhxATJYn_4pyo35impl_7pyclass20PyClassImplCollectorNtBa_7PyAstroEINtBJ_9PyMethodsB1G_E10py_methods5ITEMSs4_10trampoline, symObjAddr: 0x3E570, symBinAddr: 0x48DA0, symSize: 0x50 }
  - { offset: 0x25812, size: 0x8, addend: 0x0, symName: __RNvNvNvXs71_NtCs1NyPVrLiP35_11crystal_toe2pyINtNtNtCsinFlhxATJYn_4pyo35impl_7pyclass20PyClassImplCollectorNtBa_7PyAstroEINtBJ_9PyMethodsB1G_E10py_methods5ITEMSs5_10trampoline, symObjAddr: 0x3E5C0, symBinAddr: 0x48DF0, symSize: 0x4C }
  - { offset: 0x2585E, size: 0x8, addend: 0x0, symName: __RNvNvNvXs71_NtCs1NyPVrLiP35_11crystal_toe2pyINtNtNtCsinFlhxATJYn_4pyo35impl_7pyclass20PyClassImplCollectorNtBa_7PyAstroEINtBJ_9PyMethodsB1G_E10py_methods5ITEMSs_10trampoline, symObjAddr: 0x3E60C, symBinAddr: 0x48E3C, symSize: 0x44 }
  - { offset: 0x258B6, size: 0x8, addend: 0x0, symName: __RNvNvXs7C_NtCs1NyPVrLiP35_11crystal_toe2pyNtB8_8PyArcadeNtNtNtCsinFlhxATJYn_4pyo35impl_7pyclass11PyClassImpl10items_iter15INTRINSIC_ITEMS, symObjAddr: 0x55908, symBinAddr: 0x118428, symSize: 0x0 }
  - { offset: 0x258D7, size: 0x8, addend: 0x0, symName: __RNvNvXs7C_NtCs1NyPVrLiP35_11crystal_toe2pyNtB8_8PyArcadeNtNtNtCsinFlhxATJYn_4pyo35impl_7pyclass11PyClassImpl16lazy_type_object11TYPE_OBJECT, symObjAddr: 0x56778, symBinAddr: 0x195140, symSize: 0x0 }
  - { offset: 0x258F8, size: 0x8, addend: 0x0, symName: __RNvNvXs7C_NtCs1NyPVrLiP35_11crystal_toe2pyNtB8_8PyArcadeNtNtNtCsinFlhxATJYn_4pyo35impl_7pyclass11PyClassImpl3doc3DOC, symObjAddr: 0x567D0, symBinAddr: 0x195198, symSize: 0x0 }
  - { offset: 0x25906, size: 0x8, addend: 0x0, symName: __RNvXs7C_NtCs1NyPVrLiP35_11crystal_toe2pyNtB6_8PyArcadeNtNtNtCsinFlhxATJYn_4pyo35impl_7pyclass11PyClassImpl10items_iter, symObjAddr: 0x418A8, symBinAddr: 0x4C0D8, symSize: 0x38 }
  - { offset: 0x25943, size: 0x8, addend: 0x0, symName: __RNvXs7C_NtCs1NyPVrLiP35_11crystal_toe2pyNtB6_8PyArcadeNtNtNtCsinFlhxATJYn_4pyo35impl_7pyclass11PyClassImpl16lazy_type_object, symObjAddr: 0x418E0, symBinAddr: 0x4C110, symSize: 0xC }
  - { offset: 0x25961, size: 0x8, addend: 0x0, symName: __RNvXs7C_NtCs1NyPVrLiP35_11crystal_toe2pyNtB6_8PyArcadeNtNtNtCsinFlhxATJYn_4pyo35impl_7pyclass11PyClassImpl3doc, symObjAddr: 0x418EC, symBinAddr: 0x4C11C, symSize: 0x3C }
  - { offset: 0x25B76, size: 0x8, addend: 0x0, symName: __RNvNvXs7H_NtCs1NyPVrLiP35_11crystal_toe2pyINtNtNtCsinFlhxATJYn_4pyo35impl_7pyclass20PyClassImplCollectorNtB8_8PyArcadeEINtBH_9PyMethodsB1E_E10py_methods5ITEMS, symObjAddr: 0x536B0, symBinAddr: 0x18BEB0, symSize: 0x0 }
  - { offset: 0x25B88, size: 0x8, addend: 0x0, symName: __RNvNvNvXs7H_NtCs1NyPVrLiP35_11crystal_toe2pyINtNtNtCsinFlhxATJYn_4pyo35impl_7pyclass20PyClassImplCollectorNtBa_8PyArcadeEINtBJ_9PyMethodsB1G_E10py_methods5ITEMS10trampoline, symObjAddr: 0x3E650, symBinAddr: 0x48E80, symSize: 0x44 }
  - { offset: 0x25BC5, size: 0x8, addend: 0x0, symName: __RNvNvNvXs7H_NtCs1NyPVrLiP35_11crystal_toe2pyINtNtNtCsinFlhxATJYn_4pyo35impl_7pyclass20PyClassImplCollectorNtBa_8PyArcadeEINtBJ_9PyMethodsB1G_E10py_methods5ITEMSs0_10trampoline, symObjAddr: 0x3E694, symBinAddr: 0x48EC4, symSize: 0x44 }
  - { offset: 0x25C02, size: 0x8, addend: 0x0, symName: __RNvNvNvXs7H_NtCs1NyPVrLiP35_11crystal_toe2pyINtNtNtCsinFlhxATJYn_4pyo35impl_7pyclass20PyClassImplCollectorNtBa_8PyArcadeEINtBJ_9PyMethodsB1G_E10py_methods5ITEMSs1_10trampoline, symObjAddr: 0x3E6D8, symBinAddr: 0x48F08, symSize: 0x44 }
  - { offset: 0x25C3F, size: 0x8, addend: 0x0, symName: __RNvNvNvXs7H_NtCs1NyPVrLiP35_11crystal_toe2pyINtNtNtCsinFlhxATJYn_4pyo35impl_7pyclass20PyClassImplCollectorNtBa_8PyArcadeEINtBJ_9PyMethodsB1G_E10py_methods5ITEMSs2_10trampoline, symObjAddr: 0x3E71C, symBinAddr: 0x48F4C, symSize: 0x44 }
  - { offset: 0x25C7C, size: 0x8, addend: 0x0, symName: __RNvNvNvXs7H_NtCs1NyPVrLiP35_11crystal_toe2pyINtNtNtCsinFlhxATJYn_4pyo35impl_7pyclass20PyClassImplCollectorNtBa_8PyArcadeEINtBJ_9PyMethodsB1G_E10py_methods5ITEMSs3_10trampoline, symObjAddr: 0x3E760, symBinAddr: 0x48F90, symSize: 0x44 }
  - { offset: 0x25CB9, size: 0x8, addend: 0x0, symName: __RNvNvNvXs7H_NtCs1NyPVrLiP35_11crystal_toe2pyINtNtNtCsinFlhxATJYn_4pyo35impl_7pyclass20PyClassImplCollectorNtBa_8PyArcadeEINtBJ_9PyMethodsB1G_E10py_methods5ITEMSs4_10trampoline, symObjAddr: 0x3E7A4, symBinAddr: 0x48FD4, symSize: 0x44 }
  - { offset: 0x25CF6, size: 0x8, addend: 0x0, symName: __RNvNvNvXs7H_NtCs1NyPVrLiP35_11crystal_toe2pyINtNtNtCsinFlhxATJYn_4pyo35impl_7pyclass20PyClassImplCollectorNtBa_8PyArcadeEINtBJ_9PyMethodsB1G_E10py_methods5ITEMSs5_10trampoline, symObjAddr: 0x3E7E8, symBinAddr: 0x49018, symSize: 0x44 }
  - { offset: 0x25D33, size: 0x8, addend: 0x0, symName: __RNvNvNvXs7H_NtCs1NyPVrLiP35_11crystal_toe2pyINtNtNtCsinFlhxATJYn_4pyo35impl_7pyclass20PyClassImplCollectorNtBa_8PyArcadeEINtBJ_9PyMethodsB1G_E10py_methods5ITEMSs6_10trampoline, symObjAddr: 0x3E82C, symBinAddr: 0x4905C, symSize: 0x4C }
  - { offset: 0x25D7F, size: 0x8, addend: 0x0, symName: __RNvNvNvXs7H_NtCs1NyPVrLiP35_11crystal_toe2pyINtNtNtCsinFlhxATJYn_4pyo35impl_7pyclass20PyClassImplCollectorNtBa_8PyArcadeEINtBJ_9PyMethodsB1G_E10py_methods5ITEMSs_10trampoline, symObjAddr: 0x3E878, symBinAddr: 0x490A8, symSize: 0x44 }
  - { offset: 0x25DD7, size: 0x8, addend: 0x0, symName: __RNvNvXs7a_NtCs1NyPVrLiP35_11crystal_toe2pyNtB8_7PyQInfoNtNtNtCsinFlhxATJYn_4pyo35impl_7pyclass11PyClassImpl10items_iter15INTRINSIC_ITEMS, symObjAddr: 0x55928, symBinAddr: 0x118448, symSize: 0x0 }
  - { offset: 0x25DF8, size: 0x8, addend: 0x0, symName: __RNvNvXs7a_NtCs1NyPVrLiP35_11crystal_toe2pyNtB8_7PyQInfoNtNtNtCsinFlhxATJYn_4pyo35impl_7pyclass11PyClassImpl16lazy_type_object11TYPE_OBJECT, symObjAddr: 0x567F0, symBinAddr: 0x1951B8, symSize: 0x0 }
  - { offset: 0x25E19, size: 0x8, addend: 0x0, symName: __RNvNvXs7a_NtCs1NyPVrLiP35_11crystal_toe2pyNtB8_7PyQInfoNtNtNtCsinFlhxATJYn_4pyo35impl_7pyclass11PyClassImpl3doc3DOC, symObjAddr: 0x56848, symBinAddr: 0x195210, symSize: 0x0 }
  - { offset: 0x25E27, size: 0x8, addend: 0x0, symName: __RNvXs7a_NtCs1NyPVrLiP35_11crystal_toe2pyNtB6_7PyQInfoNtNtNtCsinFlhxATJYn_4pyo35impl_7pyclass11PyClassImpl10items_iter, symObjAddr: 0x41928, symBinAddr: 0x4C158, symSize: 0x38 }
  - { offset: 0x25E64, size: 0x8, addend: 0x0, symName: __RNvXs7a_NtCs1NyPVrLiP35_11crystal_toe2pyNtB6_7PyQInfoNtNtNtCsinFlhxATJYn_4pyo35impl_7pyclass11PyClassImpl16lazy_type_object, symObjAddr: 0x41960, symBinAddr: 0x4C190, symSize: 0xC }
  - { offset: 0x25E82, size: 0x8, addend: 0x0, symName: __RNvXs7a_NtCs1NyPVrLiP35_11crystal_toe2pyNtB6_7PyQInfoNtNtNtCsinFlhxATJYn_4pyo35impl_7pyclass11PyClassImpl3doc, symObjAddr: 0x4196C, symBinAddr: 0x4C19C, symSize: 0x3C }
  - { offset: 0x2615B, size: 0x8, addend: 0x0, symName: __RNvNvXs7f_NtCs1NyPVrLiP35_11crystal_toe2pyINtNtNtCsinFlhxATJYn_4pyo35impl_7pyclass20PyClassImplCollectorNtB8_7PyQInfoEINtBH_9PyMethodsB1E_E10py_methods5ITEMS, symObjAddr: 0x539E0, symBinAddr: 0x18C1E0, symSize: 0x0 }
  - { offset: 0x2616D, size: 0x8, addend: 0x0, symName: __RNvNvNvXs7f_NtCs1NyPVrLiP35_11crystal_toe2pyINtNtNtCsinFlhxATJYn_4pyo35impl_7pyclass20PyClassImplCollectorNtBa_7PyQInfoEINtBJ_9PyMethodsB1G_E10py_methods5ITEMS10trampoline, symObjAddr: 0x3E8BC, symBinAddr: 0x490EC, symSize: 0x44 }
  - { offset: 0x261AA, size: 0x8, addend: 0x0, symName: __RNvNvNvXs7f_NtCs1NyPVrLiP35_11crystal_toe2pyINtNtNtCsinFlhxATJYn_4pyo35impl_7pyclass20PyClassImplCollectorNtBa_7PyQInfoEINtBJ_9PyMethodsB1G_E10py_methods5ITEMSs0_10trampoline, symObjAddr: 0x3E900, symBinAddr: 0x49130, symSize: 0x44 }
  - { offset: 0x261E7, size: 0x8, addend: 0x0, symName: __RNvNvNvXs7f_NtCs1NyPVrLiP35_11crystal_toe2pyINtNtNtCsinFlhxATJYn_4pyo35impl_7pyclass20PyClassImplCollectorNtBa_7PyQInfoEINtBJ_9PyMethodsB1G_E10py_methods5ITEMSs1_10trampoline, symObjAddr: 0x3E944, symBinAddr: 0x49174, symSize: 0x44 }
  - { offset: 0x26224, size: 0x8, addend: 0x0, symName: __RNvNvNvXs7f_NtCs1NyPVrLiP35_11crystal_toe2pyINtNtNtCsinFlhxATJYn_4pyo35impl_7pyclass20PyClassImplCollectorNtBa_7PyQInfoEINtBJ_9PyMethodsB1G_E10py_methods5ITEMSs2_10trampoline, symObjAddr: 0x3E988, symBinAddr: 0x491B8, symSize: 0x44 }
  - { offset: 0x26261, size: 0x8, addend: 0x0, symName: __RNvNvNvXs7f_NtCs1NyPVrLiP35_11crystal_toe2pyINtNtNtCsinFlhxATJYn_4pyo35impl_7pyclass20PyClassImplCollectorNtBa_7PyQInfoEINtBJ_9PyMethodsB1G_E10py_methods5ITEMSs3_10trampoline, symObjAddr: 0x3E9CC, symBinAddr: 0x491FC, symSize: 0x44 }
  - { offset: 0x2629E, size: 0x8, addend: 0x0, symName: __RNvNvNvXs7f_NtCs1NyPVrLiP35_11crystal_toe2pyINtNtNtCsinFlhxATJYn_4pyo35impl_7pyclass20PyClassImplCollectorNtBa_7PyQInfoEINtBJ_9PyMethodsB1G_E10py_methods5ITEMSs4_10trampoline, symObjAddr: 0x3EA10, symBinAddr: 0x49240, symSize: 0x44 }
  - { offset: 0x262DB, size: 0x8, addend: 0x0, symName: __RNvNvNvXs7f_NtCs1NyPVrLiP35_11crystal_toe2pyINtNtNtCsinFlhxATJYn_4pyo35impl_7pyclass20PyClassImplCollectorNtBa_7PyQInfoEINtBJ_9PyMethodsB1G_E10py_methods5ITEMSs5_10trampoline, symObjAddr: 0x3EA54, symBinAddr: 0x49284, symSize: 0x44 }
  - { offset: 0x26318, size: 0x8, addend: 0x0, symName: __RNvNvNvXs7f_NtCs1NyPVrLiP35_11crystal_toe2pyINtNtNtCsinFlhxATJYn_4pyo35impl_7pyclass20PyClassImplCollectorNtBa_7PyQInfoEINtBJ_9PyMethodsB1G_E10py_methods5ITEMSs6_10trampoline, symObjAddr: 0x3EA98, symBinAddr: 0x492C8, symSize: 0x44 }
  - { offset: 0x26355, size: 0x8, addend: 0x0, symName: __RNvNvNvXs7f_NtCs1NyPVrLiP35_11crystal_toe2pyINtNtNtCsinFlhxATJYn_4pyo35impl_7pyclass20PyClassImplCollectorNtBa_7PyQInfoEINtBJ_9PyMethodsB1G_E10py_methods5ITEMSs7_10trampoline, symObjAddr: 0x3EADC, symBinAddr: 0x4930C, symSize: 0x44 }
  - { offset: 0x26392, size: 0x8, addend: 0x0, symName: __RNvNvNvXs7f_NtCs1NyPVrLiP35_11crystal_toe2pyINtNtNtCsinFlhxATJYn_4pyo35impl_7pyclass20PyClassImplCollectorNtBa_7PyQInfoEINtBJ_9PyMethodsB1G_E10py_methods5ITEMSs8_10trampoline, symObjAddr: 0x3EB20, symBinAddr: 0x49350, symSize: 0x44 }
  - { offset: 0x263CF, size: 0x8, addend: 0x0, symName: __RNvNvNvXs7f_NtCs1NyPVrLiP35_11crystal_toe2pyINtNtNtCsinFlhxATJYn_4pyo35impl_7pyclass20PyClassImplCollectorNtBa_7PyQInfoEINtBJ_9PyMethodsB1G_E10py_methods5ITEMSs9_10trampoline, symObjAddr: 0x3EB64, symBinAddr: 0x49394, symSize: 0x44 }
  - { offset: 0x2640C, size: 0x8, addend: 0x0, symName: __RNvNvNvXs7f_NtCs1NyPVrLiP35_11crystal_toe2pyINtNtNtCsinFlhxATJYn_4pyo35impl_7pyclass20PyClassImplCollectorNtBa_7PyQInfoEINtBJ_9PyMethodsB1G_E10py_methods5ITEMSs_10trampoline, symObjAddr: 0x3EBA8, symBinAddr: 0x493D8, symSize: 0x44 }
  - { offset: 0x26449, size: 0x8, addend: 0x0, symName: __RNvNvNvXs7f_NtCs1NyPVrLiP35_11crystal_toe2pyINtNtNtCsinFlhxATJYn_4pyo35impl_7pyclass20PyClassImplCollectorNtBa_7PyQInfoEINtBJ_9PyMethodsB1G_E10py_methods5ITEMSsa_10trampoline, symObjAddr: 0x3EBEC, symBinAddr: 0x4941C, symSize: 0x4C }
  - { offset: 0x264B0, size: 0x8, addend: 0x0, symName: __RNvNvXs7o_NtCs1NyPVrLiP35_11crystal_toe2pyNtB8_5PyBioNtNtNtCsinFlhxATJYn_4pyo35impl_7pyclass11PyClassImpl10items_iter15INTRINSIC_ITEMS, symObjAddr: 0x55948, symBinAddr: 0x118468, symSize: 0x0 }
  - { offset: 0x264D1, size: 0x8, addend: 0x0, symName: __RNvNvXs7o_NtCs1NyPVrLiP35_11crystal_toe2pyNtB8_5PyBioNtNtNtCsinFlhxATJYn_4pyo35impl_7pyclass11PyClassImpl16lazy_type_object11TYPE_OBJECT, symObjAddr: 0x56868, symBinAddr: 0x195230, symSize: 0x0 }
  - { offset: 0x264F2, size: 0x8, addend: 0x0, symName: __RNvNvXs7o_NtCs1NyPVrLiP35_11crystal_toe2pyNtB8_5PyBioNtNtNtCsinFlhxATJYn_4pyo35impl_7pyclass11PyClassImpl3doc3DOC, symObjAddr: 0x568C0, symBinAddr: 0x195288, symSize: 0x0 }
  - { offset: 0x26500, size: 0x8, addend: 0x0, symName: __RNvXs7o_NtCs1NyPVrLiP35_11crystal_toe2pyNtB6_5PyBioNtNtNtCsinFlhxATJYn_4pyo35impl_7pyclass11PyClassImpl10items_iter, symObjAddr: 0x419CC, symBinAddr: 0x4C1FC, symSize: 0x38 }
  - { offset: 0x2653D, size: 0x8, addend: 0x0, symName: __RNvXs7o_NtCs1NyPVrLiP35_11crystal_toe2pyNtB6_5PyBioNtNtNtCsinFlhxATJYn_4pyo35impl_7pyclass11PyClassImpl16lazy_type_object, symObjAddr: 0x41A04, symBinAddr: 0x4C234, symSize: 0xC }
  - { offset: 0x2655B, size: 0x8, addend: 0x0, symName: __RNvXs7o_NtCs1NyPVrLiP35_11crystal_toe2pyNtB6_5PyBioNtNtNtCsinFlhxATJYn_4pyo35impl_7pyclass11PyClassImpl3doc, symObjAddr: 0x41A10, symBinAddr: 0x4C240, symSize: 0x3C }
  - { offset: 0x268F8, size: 0x8, addend: 0x0, symName: __RNvNvXs7t_NtCs1NyPVrLiP35_11crystal_toe2pyINtNtNtCsinFlhxATJYn_4pyo35impl_7pyclass20PyClassImplCollectorNtB8_5PyBioEINtBH_9PyMethodsB1E_E10py_methods5ITEMS, symObjAddr: 0x53E10, symBinAddr: 0x18C610, symSize: 0x0 }
  - { offset: 0x2690A, size: 0x8, addend: 0x0, symName: __RNvNvNvXs7t_NtCs1NyPVrLiP35_11crystal_toe2pyINtNtNtCsinFlhxATJYn_4pyo35impl_7pyclass20PyClassImplCollectorNtBa_5PyBioEINtBJ_9PyMethodsB1G_E10py_methods5ITEMS10trampoline, symObjAddr: 0x3EC38, symBinAddr: 0x49468, symSize: 0x44 }
  - { offset: 0x26947, size: 0x8, addend: 0x0, symName: __RNvNvNvXs7t_NtCs1NyPVrLiP35_11crystal_toe2pyINtNtNtCsinFlhxATJYn_4pyo35impl_7pyclass20PyClassImplCollectorNtBa_5PyBioEINtBJ_9PyMethodsB1G_E10py_methods5ITEMSs0_10trampoline, symObjAddr: 0x3EC7C, symBinAddr: 0x494AC, symSize: 0x44 }
  - { offset: 0x26984, size: 0x8, addend: 0x0, symName: __RNvNvNvXs7t_NtCs1NyPVrLiP35_11crystal_toe2pyINtNtNtCsinFlhxATJYn_4pyo35impl_7pyclass20PyClassImplCollectorNtBa_5PyBioEINtBJ_9PyMethodsB1G_E10py_methods5ITEMSs1_10trampoline, symObjAddr: 0x3ECC0, symBinAddr: 0x494F0, symSize: 0x44 }
  - { offset: 0x269C1, size: 0x8, addend: 0x0, symName: __RNvNvNvXs7t_NtCs1NyPVrLiP35_11crystal_toe2pyINtNtNtCsinFlhxATJYn_4pyo35impl_7pyclass20PyClassImplCollectorNtBa_5PyBioEINtBJ_9PyMethodsB1G_E10py_methods5ITEMSs2_10trampoline, symObjAddr: 0x3ED04, symBinAddr: 0x49534, symSize: 0x44 }
  - { offset: 0x269FE, size: 0x8, addend: 0x0, symName: __RNvNvNvXs7t_NtCs1NyPVrLiP35_11crystal_toe2pyINtNtNtCsinFlhxATJYn_4pyo35impl_7pyclass20PyClassImplCollectorNtBa_5PyBioEINtBJ_9PyMethodsB1G_E10py_methods5ITEMSs3_10trampoline, symObjAddr: 0x3ED48, symBinAddr: 0x49578, symSize: 0x44 }
  - { offset: 0x26A3B, size: 0x8, addend: 0x0, symName: __RNvNvNvXs7t_NtCs1NyPVrLiP35_11crystal_toe2pyINtNtNtCsinFlhxATJYn_4pyo35impl_7pyclass20PyClassImplCollectorNtBa_5PyBioEINtBJ_9PyMethodsB1G_E10py_methods5ITEMSs4_10trampoline, symObjAddr: 0x3ED8C, symBinAddr: 0x495BC, symSize: 0x44 }
  - { offset: 0x26A78, size: 0x8, addend: 0x0, symName: __RNvNvNvXs7t_NtCs1NyPVrLiP35_11crystal_toe2pyINtNtNtCsinFlhxATJYn_4pyo35impl_7pyclass20PyClassImplCollectorNtBa_5PyBioEINtBJ_9PyMethodsB1G_E10py_methods5ITEMSs5_10trampoline, symObjAddr: 0x3EDD0, symBinAddr: 0x49600, symSize: 0x44 }
  - { offset: 0x26AB5, size: 0x8, addend: 0x0, symName: __RNvNvNvXs7t_NtCs1NyPVrLiP35_11crystal_toe2pyINtNtNtCsinFlhxATJYn_4pyo35impl_7pyclass20PyClassImplCollectorNtBa_5PyBioEINtBJ_9PyMethodsB1G_E10py_methods5ITEMSs6_10trampoline, symObjAddr: 0x3EE14, symBinAddr: 0x49644, symSize: 0x44 }
  - { offset: 0x26AF2, size: 0x8, addend: 0x0, symName: __RNvNvNvXs7t_NtCs1NyPVrLiP35_11crystal_toe2pyINtNtNtCsinFlhxATJYn_4pyo35impl_7pyclass20PyClassImplCollectorNtBa_5PyBioEINtBJ_9PyMethodsB1G_E10py_methods5ITEMSs7_10trampoline, symObjAddr: 0x3EE58, symBinAddr: 0x49688, symSize: 0x44 }
  - { offset: 0x26B2F, size: 0x8, addend: 0x0, symName: __RNvNvNvXs7t_NtCs1NyPVrLiP35_11crystal_toe2pyINtNtNtCsinFlhxATJYn_4pyo35impl_7pyclass20PyClassImplCollectorNtBa_5PyBioEINtBJ_9PyMethodsB1G_E10py_methods5ITEMSs8_10trampoline, symObjAddr: 0x3EE9C, symBinAddr: 0x496CC, symSize: 0x44 }
  - { offset: 0x26B6C, size: 0x8, addend: 0x0, symName: __RNvNvNvXs7t_NtCs1NyPVrLiP35_11crystal_toe2pyINtNtNtCsinFlhxATJYn_4pyo35impl_7pyclass20PyClassImplCollectorNtBa_5PyBioEINtBJ_9PyMethodsB1G_E10py_methods5ITEMSs9_10trampoline, symObjAddr: 0x3EEE0, symBinAddr: 0x49710, symSize: 0x44 }
  - { offset: 0x26BA9, size: 0x8, addend: 0x0, symName: __RNvNvNvXs7t_NtCs1NyPVrLiP35_11crystal_toe2pyINtNtNtCsinFlhxATJYn_4pyo35impl_7pyclass20PyClassImplCollectorNtBa_5PyBioEINtBJ_9PyMethodsB1G_E10py_methods5ITEMSs_10trampoline, symObjAddr: 0x3EF24, symBinAddr: 0x49754, symSize: 0x44 }
  - { offset: 0x26BE6, size: 0x8, addend: 0x0, symName: __RNvNvNvXs7t_NtCs1NyPVrLiP35_11crystal_toe2pyINtNtNtCsinFlhxATJYn_4pyo35impl_7pyclass20PyClassImplCollectorNtBa_5PyBioEINtBJ_9PyMethodsB1G_E10py_methods5ITEMSsa_10trampoline, symObjAddr: 0x3EF68, symBinAddr: 0x49798, symSize: 0x44 }
  - { offset: 0x26C23, size: 0x8, addend: 0x0, symName: __RNvNvNvXs7t_NtCs1NyPVrLiP35_11crystal_toe2pyINtNtNtCsinFlhxATJYn_4pyo35impl_7pyclass20PyClassImplCollectorNtBa_5PyBioEINtBJ_9PyMethodsB1G_E10py_methods5ITEMSsb_10trampoline, symObjAddr: 0x3EFAC, symBinAddr: 0x497DC, symSize: 0x44 }
  - { offset: 0x26C60, size: 0x8, addend: 0x0, symName: __RNvNvNvXs7t_NtCs1NyPVrLiP35_11crystal_toe2pyINtNtNtCsinFlhxATJYn_4pyo35impl_7pyclass20PyClassImplCollectorNtBa_5PyBioEINtBJ_9PyMethodsB1G_E10py_methods5ITEMSsc_10trampoline, symObjAddr: 0x3EFF0, symBinAddr: 0x49820, symSize: 0x44 }
  - { offset: 0x26C9D, size: 0x8, addend: 0x0, symName: __RNvNvNvXs7t_NtCs1NyPVrLiP35_11crystal_toe2pyINtNtNtCsinFlhxATJYn_4pyo35impl_7pyclass20PyClassImplCollectorNtBa_5PyBioEINtBJ_9PyMethodsB1G_E10py_methods5ITEMSsd_10trampoline, symObjAddr: 0x3F034, symBinAddr: 0x49864, symSize: 0x44 }
  - { offset: 0x26CDA, size: 0x8, addend: 0x0, symName: __RNvNvNvXs7t_NtCs1NyPVrLiP35_11crystal_toe2pyINtNtNtCsinFlhxATJYn_4pyo35impl_7pyclass20PyClassImplCollectorNtBa_5PyBioEINtBJ_9PyMethodsB1G_E10py_methods5ITEMSse_10trampoline, symObjAddr: 0x3F078, symBinAddr: 0x498A8, symSize: 0x4C }
  - { offset: 0x26D40, size: 0x8, addend: 0x0, symName: __RNvNvXsD_NtCs1NyPVrLiP35_11crystal_toe2pyINtNtNtCsinFlhxATJYn_4pyo35impl_7pyclass20PyClassImplCollectorNtB7_5PyQCDEINtBG_9PyMethodsB1D_E10py_methods5ITEMS, symObjAddr: 0x54300, symBinAddr: 0x18CB00, symSize: 0x0 }
  - { offset: 0x26D52, size: 0x8, addend: 0x0, symName: __RNvNvNvXsD_NtCs1NyPVrLiP35_11crystal_toe2pyINtNtNtCsinFlhxATJYn_4pyo35impl_7pyclass20PyClassImplCollectorNtB9_5PyQCDEINtBI_9PyMethodsB1F_E10py_methods5ITEMS10trampoline, symObjAddr: 0x3F0C4, symBinAddr: 0x498F4, symSize: 0x50 }
  - { offset: 0x26DA8, size: 0x8, addend: 0x0, symName: __RNvNvNvXsD_NtCs1NyPVrLiP35_11crystal_toe2pyINtNtNtCsinFlhxATJYn_4pyo35impl_7pyclass20PyClassImplCollectorNtB9_5PyQCDEINtBI_9PyMethodsB1F_E10py_methods5ITEMSs0_10trampoline, symObjAddr: 0x3F114, symBinAddr: 0x49944, symSize: 0x50 }
  - { offset: 0x26DFE, size: 0x8, addend: 0x0, symName: __RNvNvNvXsD_NtCs1NyPVrLiP35_11crystal_toe2pyINtNtNtCsinFlhxATJYn_4pyo35impl_7pyclass20PyClassImplCollectorNtB9_5PyQCDEINtBI_9PyMethodsB1F_E10py_methods5ITEMSs1_10trampoline, symObjAddr: 0x3F164, symBinAddr: 0x49994, symSize: 0x50 }
  - { offset: 0x26E54, size: 0x8, addend: 0x0, symName: __RNvNvNvXsD_NtCs1NyPVrLiP35_11crystal_toe2pyINtNtNtCsinFlhxATJYn_4pyo35impl_7pyclass20PyClassImplCollectorNtB9_5PyQCDEINtBI_9PyMethodsB1F_E10py_methods5ITEMSs2_10trampoline, symObjAddr: 0x3F1B4, symBinAddr: 0x499E4, symSize: 0x50 }
  - { offset: 0x26EAA, size: 0x8, addend: 0x0, symName: __RNvNvNvXsD_NtCs1NyPVrLiP35_11crystal_toe2pyINtNtNtCsinFlhxATJYn_4pyo35impl_7pyclass20PyClassImplCollectorNtB9_5PyQCDEINtBI_9PyMethodsB1F_E10py_methods5ITEMSs3_10trampoline, symObjAddr: 0x3F204, symBinAddr: 0x49A34, symSize: 0x50 }
  - { offset: 0x26F00, size: 0x8, addend: 0x0, symName: __RNvNvNvXsD_NtCs1NyPVrLiP35_11crystal_toe2pyINtNtNtCsinFlhxATJYn_4pyo35impl_7pyclass20PyClassImplCollectorNtB9_5PyQCDEINtBI_9PyMethodsB1F_E10py_methods5ITEMSs4_10trampoline, symObjAddr: 0x3F254, symBinAddr: 0x49A84, symSize: 0x50 }
  - { offset: 0x26F56, size: 0x8, addend: 0x0, symName: __RNvNvNvXsD_NtCs1NyPVrLiP35_11crystal_toe2pyINtNtNtCsinFlhxATJYn_4pyo35impl_7pyclass20PyClassImplCollectorNtB9_5PyQCDEINtBI_9PyMethodsB1F_E10py_methods5ITEMSs5_10trampoline, symObjAddr: 0x3F2A4, symBinAddr: 0x49AD4, symSize: 0x50 }
  - { offset: 0x26FAC, size: 0x8, addend: 0x0, symName: __RNvNvNvXsD_NtCs1NyPVrLiP35_11crystal_toe2pyINtNtNtCsinFlhxATJYn_4pyo35impl_7pyclass20PyClassImplCollectorNtB9_5PyQCDEINtBI_9PyMethodsB1F_E10py_methods5ITEMSs6_10trampoline, symObjAddr: 0x3F2F4, symBinAddr: 0x49B24, symSize: 0x50 }
  - { offset: 0x27002, size: 0x8, addend: 0x0, symName: __RNvNvNvXsD_NtCs1NyPVrLiP35_11crystal_toe2pyINtNtNtCsinFlhxATJYn_4pyo35impl_7pyclass20PyClassImplCollectorNtB9_5PyQCDEINtBI_9PyMethodsB1F_E10py_methods5ITEMSs7_10trampoline, symObjAddr: 0x3F344, symBinAddr: 0x49B74, symSize: 0x50 }
  - { offset: 0x27058, size: 0x8, addend: 0x0, symName: __RNvNvNvXsD_NtCs1NyPVrLiP35_11crystal_toe2pyINtNtNtCsinFlhxATJYn_4pyo35impl_7pyclass20PyClassImplCollectorNtB9_5PyQCDEINtBI_9PyMethodsB1F_E10py_methods5ITEMSs8_10trampoline, symObjAddr: 0x3F394, symBinAddr: 0x49BC4, symSize: 0x50 }
  - { offset: 0x270AE, size: 0x8, addend: 0x0, symName: __RNvNvNvXsD_NtCs1NyPVrLiP35_11crystal_toe2pyINtNtNtCsinFlhxATJYn_4pyo35impl_7pyclass20PyClassImplCollectorNtB9_5PyQCDEINtBI_9PyMethodsB1F_E10py_methods5ITEMSs9_10trampoline, symObjAddr: 0x3F3E4, symBinAddr: 0x49C14, symSize: 0x50 }
  - { offset: 0x27104, size: 0x8, addend: 0x0, symName: __RNvNvNvXsD_NtCs1NyPVrLiP35_11crystal_toe2pyINtNtNtCsinFlhxATJYn_4pyo35impl_7pyclass20PyClassImplCollectorNtB9_5PyQCDEINtBI_9PyMethodsB1F_E10py_methods5ITEMSs_10trampoline, symObjAddr: 0x3F434, symBinAddr: 0x49C64, symSize: 0x50 }
  - { offset: 0x2715A, size: 0x8, addend: 0x0, symName: __RNvNvNvXsD_NtCs1NyPVrLiP35_11crystal_toe2pyINtNtNtCsinFlhxATJYn_4pyo35impl_7pyclass20PyClassImplCollectorNtB9_5PyQCDEINtBI_9PyMethodsB1F_E10py_methods5ITEMSsa_10trampoline, symObjAddr: 0x3F484, symBinAddr: 0x49CB4, symSize: 0x50 }
  - { offset: 0x271B0, size: 0x8, addend: 0x0, symName: __RNvNvNvXsD_NtCs1NyPVrLiP35_11crystal_toe2pyINtNtNtCsinFlhxATJYn_4pyo35impl_7pyclass20PyClassImplCollectorNtB9_5PyQCDEINtBI_9PyMethodsB1F_E10py_methods5ITEMSsb_10trampoline, symObjAddr: 0x3F4D4, symBinAddr: 0x49D04, symSize: 0x50 }
  - { offset: 0x27206, size: 0x8, addend: 0x0, symName: __RNvNvNvXsD_NtCs1NyPVrLiP35_11crystal_toe2pyINtNtNtCsinFlhxATJYn_4pyo35impl_7pyclass20PyClassImplCollectorNtB9_5PyQCDEINtBI_9PyMethodsB1F_E10py_methods5ITEMSsc_10trampoline, symObjAddr: 0x3F524, symBinAddr: 0x49D54, symSize: 0x50 }
  - { offset: 0x2725C, size: 0x8, addend: 0x0, symName: __RNvNvNvXsD_NtCs1NyPVrLiP35_11crystal_toe2pyINtNtNtCsinFlhxATJYn_4pyo35impl_7pyclass20PyClassImplCollectorNtB9_5PyQCDEINtBI_9PyMethodsB1F_E10py_methods5ITEMSsd_10trampoline, symObjAddr: 0x3F574, symBinAddr: 0x49DA4, symSize: 0x50 }
  - { offset: 0x272B2, size: 0x8, addend: 0x0, symName: __RNvNvNvXsD_NtCs1NyPVrLiP35_11crystal_toe2pyINtNtNtCsinFlhxATJYn_4pyo35impl_7pyclass20PyClassImplCollectorNtB9_5PyQCDEINtBI_9PyMethodsB1F_E10py_methods5ITEMSse_10trampoline, symObjAddr: 0x3F5C4, symBinAddr: 0x49DF4, symSize: 0x44 }
  - { offset: 0x272EC, size: 0x8, addend: 0x0, symName: __RNvNvNvXsD_NtCs1NyPVrLiP35_11crystal_toe2pyINtNtNtCsinFlhxATJYn_4pyo35impl_7pyclass20PyClassImplCollectorNtB9_5PyQCDEINtBI_9PyMethodsB1F_E10py_methods5ITEMSsf_10trampoline, symObjAddr: 0x3F608, symBinAddr: 0x49E38, symSize: 0x44 }
  - { offset: 0x27326, size: 0x8, addend: 0x0, symName: __RNvNvNvXsD_NtCs1NyPVrLiP35_11crystal_toe2pyINtNtNtCsinFlhxATJYn_4pyo35impl_7pyclass20PyClassImplCollectorNtB9_5PyQCDEINtBI_9PyMethodsB1F_E10py_methods5ITEMSsg_10trampoline, symObjAddr: 0x3F64C, symBinAddr: 0x49E7C, symSize: 0x44 }
  - { offset: 0x27360, size: 0x8, addend: 0x0, symName: __RNvNvNvXsD_NtCs1NyPVrLiP35_11crystal_toe2pyINtNtNtCsinFlhxATJYn_4pyo35impl_7pyclass20PyClassImplCollectorNtB9_5PyQCDEINtBI_9PyMethodsB1F_E10py_methods5ITEMSsh_10trampoline, symObjAddr: 0x3F690, symBinAddr: 0x49EC0, symSize: 0x4C }
  - { offset: 0x273C2, size: 0x8, addend: 0x0, symName: __RNvNvXsM_NtCs1NyPVrLiP35_11crystal_toe2pyNtB7_7PyCosmoNtNtNtCsinFlhxATJYn_4pyo35impl_7pyclass11PyClassImpl10items_iter15INTRINSIC_ITEMS, symObjAddr: 0x55968, symBinAddr: 0x118488, symSize: 0x0 }
  - { offset: 0x273E2, size: 0x8, addend: 0x0, symName: __RNvNvXsM_NtCs1NyPVrLiP35_11crystal_toe2pyNtB7_7PyCosmoNtNtNtCsinFlhxATJYn_4pyo35impl_7pyclass11PyClassImpl16lazy_type_object11TYPE_OBJECT, symObjAddr: 0x568E0, symBinAddr: 0x1952A8, symSize: 0x0 }
  - { offset: 0x27402, size: 0x8, addend: 0x0, symName: __RNvNvXsM_NtCs1NyPVrLiP35_11crystal_toe2pyNtB7_7PyCosmoNtNtNtCsinFlhxATJYn_4pyo35impl_7pyclass11PyClassImpl3doc3DOC, symObjAddr: 0x56938, symBinAddr: 0x195300, symSize: 0x0 }
  - { offset: 0x27410, size: 0x8, addend: 0x0, symName: __RNvXsM_NtCs1NyPVrLiP35_11crystal_toe2pyNtB5_7PyCosmoNtNtNtCsinFlhxATJYn_4pyo35impl_7pyclass11PyClassImpl10items_iter, symObjAddr: 0x41A94, symBinAddr: 0x4C2C4, symSize: 0x38 }
  - { offset: 0x2744B, size: 0x8, addend: 0x0, symName: __RNvXsM_NtCs1NyPVrLiP35_11crystal_toe2pyNtB5_7PyCosmoNtNtNtCsinFlhxATJYn_4pyo35impl_7pyclass11PyClassImpl16lazy_type_object, symObjAddr: 0x41ACC, symBinAddr: 0x4C2FC, symSize: 0xC }
  - { offset: 0x27468, size: 0x8, addend: 0x0, symName: __RNvXsM_NtCs1NyPVrLiP35_11crystal_toe2pyNtB5_7PyCosmoNtNtNtCsinFlhxATJYn_4pyo35impl_7pyclass11PyClassImpl3doc, symObjAddr: 0x41AD8, symBinAddr: 0x4C308, symSize: 0x3C }
  - { offset: 0x2777A, size: 0x8, addend: 0x0, symName: __RNvNvXsR_NtCs1NyPVrLiP35_11crystal_toe2pyINtNtNtCsinFlhxATJYn_4pyo35impl_7pyclass20PyClassImplCollectorNtB7_7PyCosmoEINtBG_9PyMethodsB1D_E10py_methods5ITEMS, symObjAddr: 0x54670, symBinAddr: 0x18CE70, symSize: 0x0 }
  - { offset: 0x2778C, size: 0x8, addend: 0x0, symName: __RNvNvNvXsR_NtCs1NyPVrLiP35_11crystal_toe2pyINtNtNtCsinFlhxATJYn_4pyo35impl_7pyclass20PyClassImplCollectorNtB9_7PyCosmoEINtBI_9PyMethodsB1F_E10py_methods5ITEMS10trampoline, symObjAddr: 0x3F6DC, symBinAddr: 0x49F0C, symSize: 0x44 }
  - { offset: 0x277C6, size: 0x8, addend: 0x0, symName: __RNvNvNvXsR_NtCs1NyPVrLiP35_11crystal_toe2pyINtNtNtCsinFlhxATJYn_4pyo35impl_7pyclass20PyClassImplCollectorNtB9_7PyCosmoEINtBI_9PyMethodsB1F_E10py_methods5ITEMSs0_10trampoline, symObjAddr: 0x3F720, symBinAddr: 0x49F50, symSize: 0x44 }
  - { offset: 0x27800, size: 0x8, addend: 0x0, symName: __RNvNvNvXsR_NtCs1NyPVrLiP35_11crystal_toe2pyINtNtNtCsinFlhxATJYn_4pyo35impl_7pyclass20PyClassImplCollectorNtB9_7PyCosmoEINtBI_9PyMethodsB1F_E10py_methods5ITEMSs1_10trampoline, symObjAddr: 0x3F764, symBinAddr: 0x49F94, symSize: 0x44 }
  - { offset: 0x2783A, size: 0x8, addend: 0x0, symName: __RNvNvNvXsR_NtCs1NyPVrLiP35_11crystal_toe2pyINtNtNtCsinFlhxATJYn_4pyo35impl_7pyclass20PyClassImplCollectorNtB9_7PyCosmoEINtBI_9PyMethodsB1F_E10py_methods5ITEMSs2_10trampoline, symObjAddr: 0x3F7A8, symBinAddr: 0x49FD8, symSize: 0x44 }
  - { offset: 0x27874, size: 0x8, addend: 0x0, symName: __RNvNvNvXsR_NtCs1NyPVrLiP35_11crystal_toe2pyINtNtNtCsinFlhxATJYn_4pyo35impl_7pyclass20PyClassImplCollectorNtB9_7PyCosmoEINtBI_9PyMethodsB1F_E10py_methods5ITEMSs3_10trampoline, symObjAddr: 0x3F7EC, symBinAddr: 0x4A01C, symSize: 0x44 }
  - { offset: 0x278AE, size: 0x8, addend: 0x0, symName: __RNvNvNvXsR_NtCs1NyPVrLiP35_11crystal_toe2pyINtNtNtCsinFlhxATJYn_4pyo35impl_7pyclass20PyClassImplCollectorNtB9_7PyCosmoEINtBI_9PyMethodsB1F_E10py_methods5ITEMSs4_10trampoline, symObjAddr: 0x3F830, symBinAddr: 0x4A060, symSize: 0x44 }
  - { offset: 0x278E8, size: 0x8, addend: 0x0, symName: __RNvNvNvXsR_NtCs1NyPVrLiP35_11crystal_toe2pyINtNtNtCsinFlhxATJYn_4pyo35impl_7pyclass20PyClassImplCollectorNtB9_7PyCosmoEINtBI_9PyMethodsB1F_E10py_methods5ITEMSs5_10trampoline, symObjAddr: 0x3F874, symBinAddr: 0x4A0A4, symSize: 0x44 }
  - { offset: 0x27922, size: 0x8, addend: 0x0, symName: __RNvNvNvXsR_NtCs1NyPVrLiP35_11crystal_toe2pyINtNtNtCsinFlhxATJYn_4pyo35impl_7pyclass20PyClassImplCollectorNtB9_7PyCosmoEINtBI_9PyMethodsB1F_E10py_methods5ITEMSs6_10trampoline, symObjAddr: 0x3F8B8, symBinAddr: 0x4A0E8, symSize: 0x44 }
  - { offset: 0x2795C, size: 0x8, addend: 0x0, symName: __RNvNvNvXsR_NtCs1NyPVrLiP35_11crystal_toe2pyINtNtNtCsinFlhxATJYn_4pyo35impl_7pyclass20PyClassImplCollectorNtB9_7PyCosmoEINtBI_9PyMethodsB1F_E10py_methods5ITEMSs7_10trampoline, symObjAddr: 0x3F8FC, symBinAddr: 0x4A12C, symSize: 0x50 }
  - { offset: 0x279B2, size: 0x8, addend: 0x0, symName: __RNvNvNvXsR_NtCs1NyPVrLiP35_11crystal_toe2pyINtNtNtCsinFlhxATJYn_4pyo35impl_7pyclass20PyClassImplCollectorNtB9_7PyCosmoEINtBI_9PyMethodsB1F_E10py_methods5ITEMSs8_10trampoline, symObjAddr: 0x3F94C, symBinAddr: 0x4A17C, symSize: 0x50 }
  - { offset: 0x27A08, size: 0x8, addend: 0x0, symName: __RNvNvNvXsR_NtCs1NyPVrLiP35_11crystal_toe2pyINtNtNtCsinFlhxATJYn_4pyo35impl_7pyclass20PyClassImplCollectorNtB9_7PyCosmoEINtBI_9PyMethodsB1F_E10py_methods5ITEMSs9_10trampoline, symObjAddr: 0x3F99C, symBinAddr: 0x4A1CC, symSize: 0x44 }
  - { offset: 0x27A42, size: 0x8, addend: 0x0, symName: __RNvNvNvXsR_NtCs1NyPVrLiP35_11crystal_toe2pyINtNtNtCsinFlhxATJYn_4pyo35impl_7pyclass20PyClassImplCollectorNtB9_7PyCosmoEINtBI_9PyMethodsB1F_E10py_methods5ITEMSs_10trampoline, symObjAddr: 0x3F9E0, symBinAddr: 0x4A210, symSize: 0x44 }
  - { offset: 0x27A7C, size: 0x8, addend: 0x0, symName: __RNvNvNvXsR_NtCs1NyPVrLiP35_11crystal_toe2pyINtNtNtCsinFlhxATJYn_4pyo35impl_7pyclass20PyClassImplCollectorNtB9_7PyCosmoEINtBI_9PyMethodsB1F_E10py_methods5ITEMSsa_10trampoline, symObjAddr: 0x3FA24, symBinAddr: 0x4A254, symSize: 0x44 }
  - { offset: 0x27AB6, size: 0x8, addend: 0x0, symName: __RNvNvNvXsR_NtCs1NyPVrLiP35_11crystal_toe2pyINtNtNtCsinFlhxATJYn_4pyo35impl_7pyclass20PyClassImplCollectorNtB9_7PyCosmoEINtBI_9PyMethodsB1F_E10py_methods5ITEMSsb_10trampoline, symObjAddr: 0x3FA68, symBinAddr: 0x4A298, symSize: 0x4C }
  - { offset: 0x27B18, size: 0x8, addend: 0x0, symName: __RNvNvXsb_NtCs1NyPVrLiP35_11crystal_toe2pyINtNtNtCsinFlhxATJYn_4pyo35impl_7pyclass20PyClassImplCollectorNtB7_5PyToeEINtBG_9PyMethodsB1D_E10py_methods5ITEMS, symObjAddr: 0x54BF0, symBinAddr: 0x18D3F0, symSize: 0x0 }
  - { offset: 0x27B2A, size: 0x8, addend: 0x0, symName: __RNvNvNvXsb_NtCs1NyPVrLiP35_11crystal_toe2pyINtNtNtCsinFlhxATJYn_4pyo35impl_7pyclass20PyClassImplCollectorNtB9_5PyToeEINtBI_9PyMethodsB1F_E10py_methods5ITEMS10trampoline, symObjAddr: 0x3FAB4, symBinAddr: 0x4A2E4, symSize: 0x44 }
  - { offset: 0x27B64, size: 0x8, addend: 0x0, symName: __RNvNvNvXsb_NtCs1NyPVrLiP35_11crystal_toe2pyINtNtNtCsinFlhxATJYn_4pyo35impl_7pyclass20PyClassImplCollectorNtB9_5PyToeEINtBI_9PyMethodsB1F_E10py_methods5ITEMSs0_10trampoline, symObjAddr: 0x3FAF8, symBinAddr: 0x4A328, symSize: 0x44 }
  - { offset: 0x27B9E, size: 0x8, addend: 0x0, symName: __RNvNvNvXsb_NtCs1NyPVrLiP35_11crystal_toe2pyINtNtNtCsinFlhxATJYn_4pyo35impl_7pyclass20PyClassImplCollectorNtB9_5PyToeEINtBI_9PyMethodsB1F_E10py_methods5ITEMSs1_10trampoline, symObjAddr: 0x3FB3C, symBinAddr: 0x4A36C, symSize: 0x44 }
  - { offset: 0x27BD8, size: 0x8, addend: 0x0, symName: __RNvNvNvXsb_NtCs1NyPVrLiP35_11crystal_toe2pyINtNtNtCsinFlhxATJYn_4pyo35impl_7pyclass20PyClassImplCollectorNtB9_5PyToeEINtBI_9PyMethodsB1F_E10py_methods5ITEMSs2_10trampoline, symObjAddr: 0x3FB80, symBinAddr: 0x4A3B0, symSize: 0x44 }
  - { offset: 0x27C12, size: 0x8, addend: 0x0, symName: __RNvNvNvXsb_NtCs1NyPVrLiP35_11crystal_toe2pyINtNtNtCsinFlhxATJYn_4pyo35impl_7pyclass20PyClassImplCollectorNtB9_5PyToeEINtBI_9PyMethodsB1F_E10py_methods5ITEMSs3_10trampoline, symObjAddr: 0x3FBC4, symBinAddr: 0x4A3F4, symSize: 0x44 }
  - { offset: 0x27C4C, size: 0x8, addend: 0x0, symName: __RNvNvNvXsb_NtCs1NyPVrLiP35_11crystal_toe2pyINtNtNtCsinFlhxATJYn_4pyo35impl_7pyclass20PyClassImplCollectorNtB9_5PyToeEINtBI_9PyMethodsB1F_E10py_methods5ITEMSs4_10trampoline, symObjAddr: 0x3FC08, symBinAddr: 0x4A438, symSize: 0x44 }
  - { offset: 0x27C86, size: 0x8, addend: 0x0, symName: __RNvNvNvXsb_NtCs1NyPVrLiP35_11crystal_toe2pyINtNtNtCsinFlhxATJYn_4pyo35impl_7pyclass20PyClassImplCollectorNtB9_5PyToeEINtBI_9PyMethodsB1F_E10py_methods5ITEMSs5_10trampoline, symObjAddr: 0x3FC4C, symBinAddr: 0x4A47C, symSize: 0x44 }
  - { offset: 0x27CC0, size: 0x8, addend: 0x0, symName: __RNvNvNvXsb_NtCs1NyPVrLiP35_11crystal_toe2pyINtNtNtCsinFlhxATJYn_4pyo35impl_7pyclass20PyClassImplCollectorNtB9_5PyToeEINtBI_9PyMethodsB1F_E10py_methods5ITEMSs6_10trampoline, symObjAddr: 0x3FC90, symBinAddr: 0x4A4C0, symSize: 0x44 }
  - { offset: 0x27CFA, size: 0x8, addend: 0x0, symName: __RNvNvNvXsb_NtCs1NyPVrLiP35_11crystal_toe2pyINtNtNtCsinFlhxATJYn_4pyo35impl_7pyclass20PyClassImplCollectorNtB9_5PyToeEINtBI_9PyMethodsB1F_E10py_methods5ITEMSs7_10trampoline, symObjAddr: 0x3FCD4, symBinAddr: 0x4A504, symSize: 0x44 }
  - { offset: 0x27D34, size: 0x8, addend: 0x0, symName: __RNvNvNvXsb_NtCs1NyPVrLiP35_11crystal_toe2pyINtNtNtCsinFlhxATJYn_4pyo35impl_7pyclass20PyClassImplCollectorNtB9_5PyToeEINtBI_9PyMethodsB1F_E10py_methods5ITEMSs8_10trampoline, symObjAddr: 0x3FD18, symBinAddr: 0x4A548, symSize: 0x44 }
  - { offset: 0x27D6E, size: 0x8, addend: 0x0, symName: __RNvNvNvXsb_NtCs1NyPVrLiP35_11crystal_toe2pyINtNtNtCsinFlhxATJYn_4pyo35impl_7pyclass20PyClassImplCollectorNtB9_5PyToeEINtBI_9PyMethodsB1F_E10py_methods5ITEMSs9_10trampoline, symObjAddr: 0x3FD5C, symBinAddr: 0x4A58C, symSize: 0x44 }
  - { offset: 0x27DA8, size: 0x8, addend: 0x0, symName: __RNvNvNvXsb_NtCs1NyPVrLiP35_11crystal_toe2pyINtNtNtCsinFlhxATJYn_4pyo35impl_7pyclass20PyClassImplCollectorNtB9_5PyToeEINtBI_9PyMethodsB1F_E10py_methods5ITEMSs_10trampoline, symObjAddr: 0x3FDA0, symBinAddr: 0x4A5D0, symSize: 0x44 }
  - { offset: 0x27DE2, size: 0x8, addend: 0x0, symName: __RNvNvNvXsb_NtCs1NyPVrLiP35_11crystal_toe2pyINtNtNtCsinFlhxATJYn_4pyo35impl_7pyclass20PyClassImplCollectorNtB9_5PyToeEINtBI_9PyMethodsB1F_E10py_methods5ITEMSsa_10trampoline, symObjAddr: 0x3FDE4, symBinAddr: 0x4A614, symSize: 0x44 }
  - { offset: 0x27E1C, size: 0x8, addend: 0x0, symName: __RNvNvNvXsb_NtCs1NyPVrLiP35_11crystal_toe2pyINtNtNtCsinFlhxATJYn_4pyo35impl_7pyclass20PyClassImplCollectorNtB9_5PyToeEINtBI_9PyMethodsB1F_E10py_methods5ITEMSsb_10trampoline, symObjAddr: 0x3FE28, symBinAddr: 0x4A658, symSize: 0x44 }
  - { offset: 0x27E56, size: 0x8, addend: 0x0, symName: __RNvNvNvXsb_NtCs1NyPVrLiP35_11crystal_toe2pyINtNtNtCsinFlhxATJYn_4pyo35impl_7pyclass20PyClassImplCollectorNtB9_5PyToeEINtBI_9PyMethodsB1F_E10py_methods5ITEMSsc_10trampoline, symObjAddr: 0x3FE6C, symBinAddr: 0x4A69C, symSize: 0x44 }
  - { offset: 0x27E90, size: 0x8, addend: 0x0, symName: __RNvNvNvXsb_NtCs1NyPVrLiP35_11crystal_toe2pyINtNtNtCsinFlhxATJYn_4pyo35impl_7pyclass20PyClassImplCollectorNtB9_5PyToeEINtBI_9PyMethodsB1F_E10py_methods5ITEMSsd_10trampoline, symObjAddr: 0x3FEB0, symBinAddr: 0x4A6E0, symSize: 0x44 }
  - { offset: 0x27ECA, size: 0x8, addend: 0x0, symName: __RNvNvNvXsb_NtCs1NyPVrLiP35_11crystal_toe2pyINtNtNtCsinFlhxATJYn_4pyo35impl_7pyclass20PyClassImplCollectorNtB9_5PyToeEINtBI_9PyMethodsB1F_E10py_methods5ITEMSse_10trampoline, symObjAddr: 0x3FEF4, symBinAddr: 0x4A724, symSize: 0x44 }
  - { offset: 0x27F04, size: 0x8, addend: 0x0, symName: __RNvNvNvXsb_NtCs1NyPVrLiP35_11crystal_toe2pyINtNtNtCsinFlhxATJYn_4pyo35impl_7pyclass20PyClassImplCollectorNtB9_5PyToeEINtBI_9PyMethodsB1F_E10py_methods5ITEMSsf_10trampoline, symObjAddr: 0x3FF38, symBinAddr: 0x4A768, symSize: 0x44 }
  - { offset: 0x27F3E, size: 0x8, addend: 0x0, symName: __RNvNvNvXsb_NtCs1NyPVrLiP35_11crystal_toe2pyINtNtNtCsinFlhxATJYn_4pyo35impl_7pyclass20PyClassImplCollectorNtB9_5PyToeEINtBI_9PyMethodsB1F_E10py_methods5ITEMSsg_10trampoline, symObjAddr: 0x3FF7C, symBinAddr: 0x4A7AC, symSize: 0x44 }
  - { offset: 0x27F78, size: 0x8, addend: 0x0, symName: __RNvNvNvXsb_NtCs1NyPVrLiP35_11crystal_toe2pyINtNtNtCsinFlhxATJYn_4pyo35impl_7pyclass20PyClassImplCollectorNtB9_5PyToeEINtBI_9PyMethodsB1F_E10py_methods5ITEMSsh_10trampoline, symObjAddr: 0x3FFC0, symBinAddr: 0x4A7F0, symSize: 0x44 }
  - { offset: 0x27FB2, size: 0x8, addend: 0x0, symName: __RNvNvNvXsb_NtCs1NyPVrLiP35_11crystal_toe2pyINtNtNtCsinFlhxATJYn_4pyo35impl_7pyclass20PyClassImplCollectorNtB9_5PyToeEINtBI_9PyMethodsB1F_E10py_methods5ITEMSsi_10trampoline, symObjAddr: 0x40004, symBinAddr: 0x4A834, symSize: 0x50 }
  - { offset: 0x28008, size: 0x8, addend: 0x0, symName: __RNvNvNvXsb_NtCs1NyPVrLiP35_11crystal_toe2pyINtNtNtCsinFlhxATJYn_4pyo35impl_7pyclass20PyClassImplCollectorNtB9_5PyToeEINtBI_9PyMethodsB1F_E10py_methods5ITEMSsj_10trampoline, symObjAddr: 0x40054, symBinAddr: 0x4A884, symSize: 0x4C }
  - { offset: 0x28050, size: 0x8, addend: 0x0, symName: __RNvNvNvXsb_NtCs1NyPVrLiP35_11crystal_toe2pyINtNtNtCsinFlhxATJYn_4pyo35impl_7pyclass20PyClassImplCollectorNtB9_5PyToeEINtBI_9PyMethodsB1F_E10py_methods5ITEMSsk_10trampoline, symObjAddr: 0x400A0, symBinAddr: 0x4A8D0, symSize: 0x3C }
  - { offset: 0x28096, size: 0x8, addend: 0x0, symName: __RNvNvXsk_NtCs1NyPVrLiP35_11crystal_toe2pyNtB7_7PyGaugeNtNtNtCsinFlhxATJYn_4pyo35impl_7pyclass11PyClassImpl10items_iter15INTRINSIC_ITEMS, symObjAddr: 0x55988, symBinAddr: 0x1184A8, symSize: 0x0 }
  - { offset: 0x280B6, size: 0x8, addend: 0x0, symName: __RNvNvXsk_NtCs1NyPVrLiP35_11crystal_toe2pyNtB7_7PyGaugeNtNtNtCsinFlhxATJYn_4pyo35impl_7pyclass11PyClassImpl16lazy_type_object11TYPE_OBJECT, symObjAddr: 0x56958, symBinAddr: 0x195320, symSize: 0x0 }
  - { offset: 0x280D6, size: 0x8, addend: 0x0, symName: __RNvNvXsk_NtCs1NyPVrLiP35_11crystal_toe2pyNtB7_7PyGaugeNtNtNtCsinFlhxATJYn_4pyo35impl_7pyclass11PyClassImpl3doc3DOC, symObjAddr: 0x569B0, symBinAddr: 0x195378, symSize: 0x0 }
  - { offset: 0x280E4, size: 0x8, addend: 0x0, symName: __RNvXsk_NtCs1NyPVrLiP35_11crystal_toe2pyNtB5_7PyGaugeNtNtNtCsinFlhxATJYn_4pyo35impl_7pyclass11PyClassImpl10items_iter, symObjAddr: 0x41B80, symBinAddr: 0x4C3B0, symSize: 0x38 }
  - { offset: 0x2811F, size: 0x8, addend: 0x0, symName: __RNvXsk_NtCs1NyPVrLiP35_11crystal_toe2pyNtB5_7PyGaugeNtNtNtCsinFlhxATJYn_4pyo35impl_7pyclass11PyClassImpl16lazy_type_object, symObjAddr: 0x41BB8, symBinAddr: 0x4C3E8, symSize: 0xC }
  - { offset: 0x2813C, size: 0x8, addend: 0x0, symName: __RNvXsk_NtCs1NyPVrLiP35_11crystal_toe2pyNtB5_7PyGaugeNtNtNtCsinFlhxATJYn_4pyo35impl_7pyclass11PyClassImpl3doc, symObjAddr: 0x41BC4, symBinAddr: 0x4C3F4, symSize: 0x3C }
  - { offset: 0x2856E, size: 0x8, addend: 0x0, symName: __RNvNvXsp_NtCs1NyPVrLiP35_11crystal_toe2pyINtNtNtCsinFlhxATJYn_4pyo35impl_7pyclass20PyClassImplCollectorNtB7_7PyGaugeEINtBG_9PyMethodsB1D_E10py_methods5ITEMS, symObjAddr: 0x55060, symBinAddr: 0x18D860, symSize: 0x0 }
  - { offset: 0x28580, size: 0x8, addend: 0x0, symName: __RNvNvNvXsp_NtCs1NyPVrLiP35_11crystal_toe2pyINtNtNtCsinFlhxATJYn_4pyo35impl_7pyclass20PyClassImplCollectorNtB9_7PyGaugeEINtBI_9PyMethodsB1F_E10py_methods5ITEMS10trampoline, symObjAddr: 0x400DC, symBinAddr: 0x4A90C, symSize: 0x44 }
  - { offset: 0x285BA, size: 0x8, addend: 0x0, symName: __RNvNvNvXsp_NtCs1NyPVrLiP35_11crystal_toe2pyINtNtNtCsinFlhxATJYn_4pyo35impl_7pyclass20PyClassImplCollectorNtB9_7PyGaugeEINtBI_9PyMethodsB1F_E10py_methods5ITEMSs0_10trampoline, symObjAddr: 0x40120, symBinAddr: 0x4A950, symSize: 0x44 }
  - { offset: 0x285F4, size: 0x8, addend: 0x0, symName: __RNvNvNvXsp_NtCs1NyPVrLiP35_11crystal_toe2pyINtNtNtCsinFlhxATJYn_4pyo35impl_7pyclass20PyClassImplCollectorNtB9_7PyGaugeEINtBI_9PyMethodsB1F_E10py_methods5ITEMSs1_10trampoline, symObjAddr: 0x40164, symBinAddr: 0x4A994, symSize: 0x44 }
  - { offset: 0x2862E, size: 0x8, addend: 0x0, symName: __RNvNvNvXsp_NtCs1NyPVrLiP35_11crystal_toe2pyINtNtNtCsinFlhxATJYn_4pyo35impl_7pyclass20PyClassImplCollectorNtB9_7PyGaugeEINtBI_9PyMethodsB1F_E10py_methods5ITEMSs2_10trampoline, symObjAddr: 0x401A8, symBinAddr: 0x4A9D8, symSize: 0x44 }
  - { offset: 0x28668, size: 0x8, addend: 0x0, symName: __RNvNvNvXsp_NtCs1NyPVrLiP35_11crystal_toe2pyINtNtNtCsinFlhxATJYn_4pyo35impl_7pyclass20PyClassImplCollectorNtB9_7PyGaugeEINtBI_9PyMethodsB1F_E10py_methods5ITEMSs3_10trampoline, symObjAddr: 0x401EC, symBinAddr: 0x4AA1C, symSize: 0x44 }
  - { offset: 0x286A2, size: 0x8, addend: 0x0, symName: __RNvNvNvXsp_NtCs1NyPVrLiP35_11crystal_toe2pyINtNtNtCsinFlhxATJYn_4pyo35impl_7pyclass20PyClassImplCollectorNtB9_7PyGaugeEINtBI_9PyMethodsB1F_E10py_methods5ITEMSs4_10trampoline, symObjAddr: 0x40230, symBinAddr: 0x4AA60, symSize: 0x44 }
  - { offset: 0x286DC, size: 0x8, addend: 0x0, symName: __RNvNvNvXsp_NtCs1NyPVrLiP35_11crystal_toe2pyINtNtNtCsinFlhxATJYn_4pyo35impl_7pyclass20PyClassImplCollectorNtB9_7PyGaugeEINtBI_9PyMethodsB1F_E10py_methods5ITEMSs5_10trampoline, symObjAddr: 0x40274, symBinAddr: 0x4AAA4, symSize: 0x44 }
  - { offset: 0x28716, size: 0x8, addend: 0x0, symName: __RNvNvNvXsp_NtCs1NyPVrLiP35_11crystal_toe2pyINtNtNtCsinFlhxATJYn_4pyo35impl_7pyclass20PyClassImplCollectorNtB9_7PyGaugeEINtBI_9PyMethodsB1F_E10py_methods5ITEMSs6_10trampoline, symObjAddr: 0x402B8, symBinAddr: 0x4AAE8, symSize: 0x44 }
  - { offset: 0x28750, size: 0x8, addend: 0x0, symName: __RNvNvNvXsp_NtCs1NyPVrLiP35_11crystal_toe2pyINtNtNtCsinFlhxATJYn_4pyo35impl_7pyclass20PyClassImplCollectorNtB9_7PyGaugeEINtBI_9PyMethodsB1F_E10py_methods5ITEMSs7_10trampoline, symObjAddr: 0x402FC, symBinAddr: 0x4AB2C, symSize: 0x44 }
  - { offset: 0x2878A, size: 0x8, addend: 0x0, symName: __RNvNvNvXsp_NtCs1NyPVrLiP35_11crystal_toe2pyINtNtNtCsinFlhxATJYn_4pyo35impl_7pyclass20PyClassImplCollectorNtB9_7PyGaugeEINtBI_9PyMethodsB1F_E10py_methods5ITEMSs8_10trampoline, symObjAddr: 0x40340, symBinAddr: 0x4AB70, symSize: 0x50 }
  - { offset: 0x287E0, size: 0x8, addend: 0x0, symName: __RNvNvNvXsp_NtCs1NyPVrLiP35_11crystal_toe2pyINtNtNtCsinFlhxATJYn_4pyo35impl_7pyclass20PyClassImplCollectorNtB9_7PyGaugeEINtBI_9PyMethodsB1F_E10py_methods5ITEMSs9_10trampoline, symObjAddr: 0x40390, symBinAddr: 0x4ABC0, symSize: 0x50 }
  - { offset: 0x28836, size: 0x8, addend: 0x0, symName: __RNvNvNvXsp_NtCs1NyPVrLiP35_11crystal_toe2pyINtNtNtCsinFlhxATJYn_4pyo35impl_7pyclass20PyClassImplCollectorNtB9_7PyGaugeEINtBI_9PyMethodsB1F_E10py_methods5ITEMSs_10trampoline, symObjAddr: 0x403E0, symBinAddr: 0x4AC10, symSize: 0x44 }
  - { offset: 0x28870, size: 0x8, addend: 0x0, symName: __RNvNvNvXsp_NtCs1NyPVrLiP35_11crystal_toe2pyINtNtNtCsinFlhxATJYn_4pyo35impl_7pyclass20PyClassImplCollectorNtB9_7PyGaugeEINtBI_9PyMethodsB1F_E10py_methods5ITEMSsa_10trampoline, symObjAddr: 0x40424, symBinAddr: 0x4AC54, symSize: 0x50 }
  - { offset: 0x288C6, size: 0x8, addend: 0x0, symName: __RNvNvNvXsp_NtCs1NyPVrLiP35_11crystal_toe2pyINtNtNtCsinFlhxATJYn_4pyo35impl_7pyclass20PyClassImplCollectorNtB9_7PyGaugeEINtBI_9PyMethodsB1F_E10py_methods5ITEMSsb_10trampoline, symObjAddr: 0x40474, symBinAddr: 0x4ACA4, symSize: 0x50 }
  - { offset: 0x2891C, size: 0x8, addend: 0x0, symName: __RNvNvNvXsp_NtCs1NyPVrLiP35_11crystal_toe2pyINtNtNtCsinFlhxATJYn_4pyo35impl_7pyclass20PyClassImplCollectorNtB9_7PyGaugeEINtBI_9PyMethodsB1F_E10py_methods5ITEMSsc_10trampoline, symObjAddr: 0x404C4, symBinAddr: 0x4ACF4, symSize: 0x50 }
  - { offset: 0x28972, size: 0x8, addend: 0x0, symName: __RNvNvNvXsp_NtCs1NyPVrLiP35_11crystal_toe2pyINtNtNtCsinFlhxATJYn_4pyo35impl_7pyclass20PyClassImplCollectorNtB9_7PyGaugeEINtBI_9PyMethodsB1F_E10py_methods5ITEMSsd_10trampoline, symObjAddr: 0x40514, symBinAddr: 0x4AD44, symSize: 0x50 }
  - { offset: 0x289C8, size: 0x8, addend: 0x0, symName: __RNvNvNvXsp_NtCs1NyPVrLiP35_11crystal_toe2pyINtNtNtCsinFlhxATJYn_4pyo35impl_7pyclass20PyClassImplCollectorNtB9_7PyGaugeEINtBI_9PyMethodsB1F_E10py_methods5ITEMSse_10trampoline, symObjAddr: 0x40564, symBinAddr: 0x4AD94, symSize: 0x50 }
  - { offset: 0x28A1E, size: 0x8, addend: 0x0, symName: __RNvNvNvXsp_NtCs1NyPVrLiP35_11crystal_toe2pyINtNtNtCsinFlhxATJYn_4pyo35impl_7pyclass20PyClassImplCollectorNtB9_7PyGaugeEINtBI_9PyMethodsB1F_E10py_methods5ITEMSsf_10trampoline, symObjAddr: 0x405B4, symBinAddr: 0x4ADE4, symSize: 0x4C }
  - { offset: 0x28A80, size: 0x8, addend: 0x0, symName: __RNvNvXsy_NtCs1NyPVrLiP35_11crystal_toe2pyNtB7_5PyQCDNtNtNtCsinFlhxATJYn_4pyo35impl_7pyclass11PyClassImpl10items_iter15INTRINSIC_ITEMS, symObjAddr: 0x559A8, symBinAddr: 0x1184C8, symSize: 0x0 }
  - { offset: 0x28AA0, size: 0x8, addend: 0x0, symName: __RNvNvXsy_NtCs1NyPVrLiP35_11crystal_toe2pyNtB7_5PyQCDNtNtNtCsinFlhxATJYn_4pyo35impl_7pyclass11PyClassImpl16lazy_type_object11TYPE_OBJECT, symObjAddr: 0x569D0, symBinAddr: 0x195398, symSize: 0x0 }
  - { offset: 0x28AC0, size: 0x8, addend: 0x0, symName: __RNvNvXsy_NtCs1NyPVrLiP35_11crystal_toe2pyNtB7_5PyQCDNtNtNtCsinFlhxATJYn_4pyo35impl_7pyclass11PyClassImpl3doc3DOC, symObjAddr: 0x56A28, symBinAddr: 0x1953F0, symSize: 0x0 }
  - { offset: 0x28ACE, size: 0x8, addend: 0x0, symName: __RNvXsy_NtCs1NyPVrLiP35_11crystal_toe2pyNtB5_5PyQCDNtNtNtCsinFlhxATJYn_4pyo35impl_7pyclass11PyClassImpl10items_iter, symObjAddr: 0x41C24, symBinAddr: 0x4C454, symSize: 0x38 }
  - { offset: 0x28B09, size: 0x8, addend: 0x0, symName: __RNvXsy_NtCs1NyPVrLiP35_11crystal_toe2pyNtB5_5PyQCDNtNtNtCsinFlhxATJYn_4pyo35impl_7pyclass11PyClassImpl16lazy_type_object, symObjAddr: 0x41C5C, symBinAddr: 0x4C48C, symSize: 0xC }
  - { offset: 0x28B26, size: 0x8, addend: 0x0, symName: __RNvXsy_NtCs1NyPVrLiP35_11crystal_toe2pyNtB5_5PyQCDNtNtNtCsinFlhxATJYn_4pyo35impl_7pyclass11PyClassImpl3doc, symObjAddr: 0x41C68, symBinAddr: 0x4C498, symSize: 0x3C }
  - { offset: 0x29053, size: 0x8, addend: 0x0, symName: __RNvNtCs1NyPVrLiP35_11crystal_toe2py11crystal_toe, symObjAddr: 0x382E0, symBinAddr: 0x42B10, symSize: 0x2040 }
  - { offset: 0x29788, size: 0x8, addend: 0x0, symName: __RNvNtCs1NyPVrLiP35_11crystal_toe2py20py_conversion_factor, symObjAddr: 0x3A320, symBinAddr: 0x44B50, symSize: 0x14 }
  - { offset: 0x297A6, size: 0x8, addend: 0x0, symName: __RNvNtCs1NyPVrLiP35_11crystal_toe2py21___pyfunction_py_kappa, symObjAddr: 0x3A334, symBinAddr: 0x44B64, symSize: 0xFC }
  - { offset: 0x29850, size: 0x8, addend: 0x0, symName: __RNvNtCs1NyPVrLiP35_11crystal_toe2py21py_hologron_potential, symObjAddr: 0x3A430, symBinAddr: 0x44C60, symSize: 0x20 }
  - { offset: 0x2987E, size: 0x8, addend: 0x0, symName: __RNvNtCs1NyPVrLiP35_11crystal_toe2py33___pyfunction_py_conversion_factor, symObjAddr: 0x3A450, symBinAddr: 0x44C80, symSize: 0xFC }
  - { offset: 0x29928, size: 0x8, addend: 0x0, symName: __RNvNtCs1NyPVrLiP35_11crystal_toe2py34___pyfunction_py_hologron_potential, symObjAddr: 0x3A54C, symBinAddr: 0x44D7C, symSize: 0x248 }
  - { offset: 0x29ABB, size: 0x8, addend: 0x0, symName: __RNvNtCs1NyPVrLiP35_11crystal_toe2py8py_kappa, symObjAddr: 0x3A794, symBinAddr: 0x44FC4, symSize: 0x14 }
  - { offset: 0x29AE3, size: 0x8, addend: 0x0, symName: __RNvNvMs7J_NtCs1NyPVrLiP35_11crystal_toe2pyNtNtB8_11crystal_toe7MakeDef8make_def15___pyo3_pymodule, symObjAddr: 0x3A7A8, symBinAddr: 0x44FD8, symSize: 0x38 }
  - { offset: 0x29B1D, size: 0x8, addend: 0x0, symName: __RNvNvMs7K_NtCs1NyPVrLiP35_11crystal_toe2pyNtNtB8_20py_conversion_factor7MakeDef9__PYO3_DEF10trampoline, symObjAddr: 0x3A7E0, symBinAddr: 0x45010, symSize: 0x44 }
  - { offset: 0x29B66, size: 0x8, addend: 0x0, symName: __RNvNvMs7L_NtCs1NyPVrLiP35_11crystal_toe2pyNtNtB8_21py_hologron_potential7MakeDef9__PYO3_DEF10trampoline, symObjAddr: 0x3A824, symBinAddr: 0x45054, symSize: 0x50 }
  - { offset: 0x29BCD, size: 0x8, addend: 0x0, symName: __RNvNvMs7M_NtCs1NyPVrLiP35_11crystal_toe2pyNtNtB8_8py_kappa7MakeDef9__PYO3_DEF10trampoline, symObjAddr: 0x3A874, symBinAddr: 0x450A4, symSize: 0x44 }
  - { offset: 0x29C11, size: 0x8, addend: 0x0, symName: __RNvXs18_NtCs1NyPVrLiP35_11crystal_toe2pyNtB6_13PyAlphaProtonNtNtCsinFlhxATJYn_4pyo311type_object10PyTypeInfo15type_object_rawB8_, symObjAddr: 0x40680, symBinAddr: 0x4AEB0, symSize: 0x24 }
  - { offset: 0x29C4E, size: 0x8, addend: 0x0, symName: __RNvXs1A_NtCs1NyPVrLiP35_11crystal_toe2pyNtB6_9PyProteinNtNtCsinFlhxATJYn_4pyo311type_object10PyTypeInfo15type_object_rawB8_, symObjAddr: 0x406A4, symBinAddr: 0x4AED4, symSize: 0x24 }
  - { offset: 0x29C8B, size: 0x8, addend: 0x0, symName: __RNvXs1O_NtCs1NyPVrLiP35_11crystal_toe2pyNtB6_13PyCrossDomainNtNtCsinFlhxATJYn_4pyo311type_object10PyTypeInfo15type_object_rawB8_, symObjAddr: 0x40748, symBinAddr: 0x4AF78, symSize: 0x24 }
  - { offset: 0x29CC8, size: 0x8, addend: 0x0, symName: __RNvXs1_NtCs1NyPVrLiP35_11crystal_toe2pyRNtB5_5PyToeNtNtNtCsinFlhxATJYn_4pyo35impl_16extract_argument18PyFunctionArgument7extractB7_, symObjAddr: 0x407EC, symBinAddr: 0x4B01C, symSize: 0x2C }
  - { offset: 0x29D08, size: 0x8, addend: 0x0, symName: __RNvXs1m_NtCs1NyPVrLiP35_11crystal_toe2pyNtB6_9PyGravityNtNtCsinFlhxATJYn_4pyo311type_object10PyTypeInfo15type_object_rawB8_, symObjAddr: 0x40898, symBinAddr: 0x4B0C8, symSize: 0x24 }
  - { offset: 0x29D45, size: 0x8, addend: 0x0, symName: __RNvXs22_NtCs1NyPVrLiP35_11crystal_toe2pyNtB6_7PyTruthNtNtCsinFlhxATJYn_4pyo311type_object10PyTypeInfo15type_object_rawB8_, symObjAddr: 0x4093C, symBinAddr: 0x4B16C, symSize: 0x24 }
  - { offset: 0x29D82, size: 0x8, addend: 0x0, symName: __RNvXs24_NtCs1NyPVrLiP35_11crystal_toe2pyRNtB6_7PyTruthNtNtNtCsinFlhxATJYn_4pyo35impl_16extract_argument18PyFunctionArgument7extractB8_, symObjAddr: 0x40960, symBinAddr: 0x4B190, symSize: 0x2C }
  - { offset: 0x29DC2, size: 0x8, addend: 0x0, symName: __RNvXs27_NtCs1NyPVrLiP35_11crystal_toe2pyNtB6_7PyTruthNtNtCsinFlhxATJYn_4pyo310conversion12IntoPyObject13into_pyobject, symObjAddr: 0x4098C, symBinAddr: 0x4B1BC, symSize: 0x24 }
  - { offset: 0x29E0D, size: 0x8, addend: 0x0, symName: __RNvXs2L_NtCs1NyPVrLiP35_11crystal_toe2pyNtB6_14PyAlgebraStateNtNtCsinFlhxATJYn_4pyo311type_object10PyTypeInfo15type_object_rawB8_, symObjAddr: 0x40AB0, symBinAddr: 0x4B2E0, symSize: 0x24 }
  - { offset: 0x29E4A, size: 0x8, addend: 0x0, symName: __RNvXs2Q_NtCs1NyPVrLiP35_11crystal_toe2pyNtB6_14PyAlgebraStateNtNtCsinFlhxATJYn_4pyo310conversion12IntoPyObject13into_pyobject, symObjAddr: 0x40AD4, symBinAddr: 0x4B304, symSize: 0x40 }
  - { offset: 0x29E96, size: 0x8, addend: 0x0, symName: __RNvXs2j_NtCs1NyPVrLiP35_11crystal_toe2pyNtB6_7PyTowerNtNtCsinFlhxATJYn_4pyo311type_object10PyTypeInfo15type_object_rawB8_, symObjAddr: 0x40B94, symBinAddr: 0x4B3C4, symSize: 0x24 }
  - { offset: 0x29ED3, size: 0x8, addend: 0x0, symName: __RNvXs2x_NtCs1NyPVrLiP35_11crystal_toe2pyNtB6_11PyHierarchyNtNtCsinFlhxATJYn_4pyo311type_object10PyTypeInfo15type_object_rawB8_, symObjAddr: 0x40C38, symBinAddr: 0x4B468, symSize: 0x24 }
  - { offset: 0x29F10, size: 0x8, addend: 0x0, symName: __RNvXs30_NtCs1NyPVrLiP35_11crystal_toe2pyNtB6_11PyClassicalNtNtCsinFlhxATJYn_4pyo311type_object10PyTypeInfo15type_object_rawB8_, symObjAddr: 0x40C5C, symBinAddr: 0x4B48C, symSize: 0x24 }
  - { offset: 0x29F50, size: 0x8, addend: 0x0, symName: __RNvXs3G_NtCs1NyPVrLiP35_11crystal_toe2pyNtB6_4PyEMNtNtCsinFlhxATJYn_4pyo311type_object10PyTypeInfo15type_object_rawB8_, symObjAddr: 0x40D00, symBinAddr: 0x4B530, symSize: 0x24 }
  - { offset: 0x29F90, size: 0x8, addend: 0x0, symName: __RNvXs3U_NtCs1NyPVrLiP35_11crystal_toe2pyNtB6_11PyFriedmannNtNtCsinFlhxATJYn_4pyo311type_object10PyTypeInfo15type_object_rawB8_, symObjAddr: 0x40DA4, symBinAddr: 0x4B5D4, symSize: 0x24 }
  - { offset: 0x29FD0, size: 0x8, addend: 0x0, symName: __RNvXs3e_NtCs1NyPVrLiP35_11crystal_toe2pyNtB6_4PyGRNtNtCsinFlhxATJYn_4pyo311type_object10PyTypeInfo15type_object_rawB8_, symObjAddr: 0x40DC8, symBinAddr: 0x4B5F8, symSize: 0x24 }
  - { offset: 0x2A010, size: 0x8, addend: 0x0, symName: __RNvXs3s_NtCs1NyPVrLiP35_11crystal_toe2pyNtB6_4PyGWNtNtCsinFlhxATJYn_4pyo311type_object10PyTypeInfo15type_object_rawB8_, symObjAddr: 0x40E6C, symBinAddr: 0x4B69C, symSize: 0x24 }
  - { offset: 0x2A050, size: 0x8, addend: 0x0, symName: __RNvXs48_NtCs1NyPVrLiP35_11crystal_toe2pyNtB6_7PyNBodyNtNtCsinFlhxATJYn_4pyo311type_object10PyTypeInfo15type_object_rawB8_, symObjAddr: 0x40F90, symBinAddr: 0x4B7C0, symSize: 0x24 }
  - { offset: 0x2A090, size: 0x8, addend: 0x0, symName: __RNvXs4A_NtCs1NyPVrLiP35_11crystal_toe2pyNtB6_5PyCFDNtNtCsinFlhxATJYn_4pyo311type_object10PyTypeInfo15type_object_rawB8_, symObjAddr: 0x40FB4, symBinAddr: 0x4B7E4, symSize: 0x24 }
  - { offset: 0x2A0D0, size: 0x8, addend: 0x0, symName: __RNvXs4O_NtCs1NyPVrLiP35_11crystal_toe2pyNtB6_7PyDecayNtNtCsinFlhxATJYn_4pyo311type_object10PyTypeInfo15type_object_rawB8_, symObjAddr: 0x41058, symBinAddr: 0x4B888, symSize: 0x24 }
  - { offset: 0x2A110, size: 0x8, addend: 0x0, symName: __RNvXs4_NtCs1NyPVrLiP35_11crystal_toe2pyNtB5_5PyToeNtNtCsinFlhxATJYn_4pyo310conversion12IntoPyObject13into_pyobject, symObjAddr: 0x410FC, symBinAddr: 0x4B92C, symSize: 0x20 }
  - { offset: 0x2A15B, size: 0x8, addend: 0x0, symName: __RNvXs4m_NtCs1NyPVrLiP35_11crystal_toe2pyNtB6_8PyThermoNtNtCsinFlhxATJYn_4pyo311type_object10PyTypeInfo15type_object_rawB8_, symObjAddr: 0x4119C, symBinAddr: 0x4B9CC, symSize: 0x24 }
  - { offset: 0x2A19B, size: 0x8, addend: 0x0, symName: __RNvXs52_NtCs1NyPVrLiP35_11crystal_toe2pyNtB6_8PyOpticsNtNtCsinFlhxATJYn_4pyo311type_object10PyTypeInfo15type_object_rawB8_, symObjAddr: 0x41240, symBinAddr: 0x4BA70, symSize: 0x24 }
  - { offset: 0x2A1DB, size: 0x8, addend: 0x0, symName: __RNvXs5I_NtCs1NyPVrLiP35_11crystal_toe2pyNtB6_8PyPlasmaNtNtCsinFlhxATJYn_4pyo311type_object10PyTypeInfo15type_object_rawB8_, symObjAddr: 0x41364, symBinAddr: 0x4BB94, symSize: 0x24 }
  - { offset: 0x2A21B, size: 0x8, addend: 0x0, symName: __RNvXs5W_NtCs1NyPVrLiP35_11crystal_toe2pyNtB6_5PyQFTNtNtCsinFlhxATJYn_4pyo311type_object10PyTypeInfo15type_object_rawB8_, symObjAddr: 0x41408, symBinAddr: 0x4BC38, symSize: 0x24 }
  - { offset: 0x2A25B, size: 0x8, addend: 0x0, symName: __RNvXs5g_NtCs1NyPVrLiP35_11crystal_toe2pyNtB6_4PyMDNtNtCsinFlhxATJYn_4pyo311type_object10PyTypeInfo15type_object_rawB8_, symObjAddr: 0x414AC, symBinAddr: 0x4BCDC, symSize: 0x24 }
  - { offset: 0x2A29B, size: 0x8, addend: 0x0, symName: __RNvXs5u_NtCs1NyPVrLiP35_11crystal_toe2pyNtB6_11PyCondensedNtNtCsinFlhxATJYn_4pyo311type_object10PyTypeInfo15type_object_rawB8_, symObjAddr: 0x41550, symBinAddr: 0x4BD80, symSize: 0x24 }
  - { offset: 0x2A2DB, size: 0x8, addend: 0x0, symName: __RNvXs6C_NtCs1NyPVrLiP35_11crystal_toe2pyNtB6_9PyNuclearNtNtCsinFlhxATJYn_4pyo311type_object10PyTypeInfo15type_object_rawB8_, symObjAddr: 0x415F4, symBinAddr: 0x4BE24, symSize: 0x24 }
  - { offset: 0x2A31B, size: 0x8, addend: 0x0, symName: __RNvXs6Q_NtCs1NyPVrLiP35_11crystal_toe2pyNtB6_7PyAstroNtNtCsinFlhxATJYn_4pyo311type_object10PyTypeInfo15type_object_rawB8_, symObjAddr: 0x41698, symBinAddr: 0x4BEC8, symSize: 0x24 }
  - { offset: 0x2A35B, size: 0x8, addend: 0x0, symName: __RNvXs6a_NtCs1NyPVrLiP35_11crystal_toe2pyNtB6_7PyRigidNtNtCsinFlhxATJYn_4pyo311type_object10PyTypeInfo15type_object_rawB8_, symObjAddr: 0x4173C, symBinAddr: 0x4BF6C, symSize: 0x24 }
  - { offset: 0x2A39B, size: 0x8, addend: 0x0, symName: __RNvXs6o_NtCs1NyPVrLiP35_11crystal_toe2pyNtB6_6PyChemNtNtCsinFlhxATJYn_4pyo311type_object10PyTypeInfo15type_object_rawB8_, symObjAddr: 0x417E0, symBinAddr: 0x4C010, symSize: 0x24 }
  - { offset: 0x2A3DB, size: 0x8, addend: 0x0, symName: __RNvXs74_NtCs1NyPVrLiP35_11crystal_toe2pyNtB6_7PyQInfoNtNtCsinFlhxATJYn_4pyo311type_object10PyTypeInfo15type_object_rawB8_, symObjAddr: 0x41884, symBinAddr: 0x4C0B4, symSize: 0x24 }
  - { offset: 0x2A41B, size: 0x8, addend: 0x0, symName: __RNvXs7i_NtCs1NyPVrLiP35_11crystal_toe2pyNtB6_5PyBioNtNtCsinFlhxATJYn_4pyo311type_object10PyTypeInfo15type_object_rawB8_, symObjAddr: 0x419A8, symBinAddr: 0x4C1D8, symSize: 0x24 }
  - { offset: 0x2A45B, size: 0x8, addend: 0x0, symName: __RNvXs7w_NtCs1NyPVrLiP35_11crystal_toe2pyNtB6_8PyArcadeNtNtCsinFlhxATJYn_4pyo311type_object10PyTypeInfo15type_object_rawB8_, symObjAddr: 0x41A4C, symBinAddr: 0x4C27C, symSize: 0x24 }
  - { offset: 0x2A49B, size: 0x8, addend: 0x0, symName: __RNvXsG_NtCs1NyPVrLiP35_11crystal_toe2pyNtB5_7PyCosmoNtNtCsinFlhxATJYn_4pyo311type_object10PyTypeInfo15type_object_rawB7_, symObjAddr: 0x41A70, symBinAddr: 0x4C2A0, symSize: 0x24 }
  - { offset: 0x2A4D8, size: 0x8, addend: 0x0, symName: __RNvXsU_NtCs1NyPVrLiP35_11crystal_toe2pyNtB5_8PyMixingNtNtCsinFlhxATJYn_4pyo311type_object10PyTypeInfo15type_object_rawB7_, symObjAddr: 0x41B14, symBinAddr: 0x4C344, symSize: 0x24 }
  - { offset: 0x2A515, size: 0x8, addend: 0x0, symName: __RNvXs_NtCs1NyPVrLiP35_11crystal_toe2pyNtB4_5PyToeNtNtCsinFlhxATJYn_4pyo311type_object10PyTypeInfo15type_object_rawB6_, symObjAddr: 0x41B38, symBinAddr: 0x4C368, symSize: 0x24 }
  - { offset: 0x2A552, size: 0x8, addend: 0x0, symName: __RNvXse_NtCs1NyPVrLiP35_11crystal_toe2pyNtB5_7PyGaugeNtNtCsinFlhxATJYn_4pyo311type_object10PyTypeInfo15type_object_rawB7_, symObjAddr: 0x41B5C, symBinAddr: 0x4C38C, symSize: 0x24 }
  - { offset: 0x2A58F, size: 0x8, addend: 0x0, symName: __RNvXss_NtCs1NyPVrLiP35_11crystal_toe2pyNtB5_5PyQCDNtNtCsinFlhxATJYn_4pyo311type_object10PyTypeInfo15type_object_rawB7_, symObjAddr: 0x41C00, symBinAddr: 0x4C430, symSize: 0x24 }
  - { offset: 0x3115C, size: 0x8, addend: 0x0, symName: __RNvMNvNvXs2g_NtCs1NyPVrLiP35_11crystal_toe2pyINtNtNtCsinFlhxATJYn_4pyo35impl_7pyclass20PyClassImplCollectorNtBb_7PyTruthEINtBK_9PyMethodsB1H_E10py_methods5ITEMSB1H_24___pymethod___richcmp____, symObjAddr: 0x0, symBinAddr: 0xA830, symSize: 0x48 }
  - { offset: 0x311AA, size: 0x8, addend: 0x0, symName: __RNvMs14_NtCs1NyPVrLiP35_11crystal_toe2pyNtB6_8PyMixing11cos_cabibbo, symObjAddr: 0x48, symBinAddr: 0xA878, symSize: 0x20 }
  - { offset: 0x311CC, size: 0x8, addend: 0x0, symName: __RNvMs14_NtCs1NyPVrLiP35_11crystal_toe2pyNtB6_8PyMixing11n_cp_phases, symObjAddr: 0x68, symBinAddr: 0xA898, symSize: 0x20 }
  - { offset: 0x311EE, size: 0x8, addend: 0x0, symName: __RNvMs14_NtCs1NyPVrLiP35_11crystal_toe2pyNtB6_8PyMixing11sin_cabibbo, symObjAddr: 0x88, symBinAddr: 0xA8B8, symSize: 0x20 }
  - { offset: 0x31210, size: 0x8, addend: 0x0, symName: __RNvMs14_NtCs1NyPVrLiP35_11crystal_toe2pyNtB6_8PyMixing12sin2_theta12, symObjAddr: 0xA8, symBinAddr: 0xA8D8, symSize: 0x20 }
  - { offset: 0x31232, size: 0x8, addend: 0x0, symName: __RNvMs14_NtCs1NyPVrLiP35_11crystal_toe2pyNtB6_8PyMixing12sin2_theta13, symObjAddr: 0xC8, symBinAddr: 0xA8F8, symSize: 0x20 }
  - { offset: 0x31254, size: 0x8, addend: 0x0, symName: __RNvMs14_NtCs1NyPVrLiP35_11crystal_toe2pyNtB6_8PyMixing12sin2_theta23, symObjAddr: 0xE8, symBinAddr: 0xA918, symSize: 0x20 }
  - { offset: 0x31276, size: 0x8, addend: 0x0, symName: __RNvMs14_NtCs1NyPVrLiP35_11crystal_toe2pyNtB6_8PyMixing15n_mixing_angles, symObjAddr: 0x108, symBinAddr: 0xA938, symSize: 0x20 }
  - { offset: 0x31298, size: 0x8, addend: 0x0, symName: __RNvMs14_NtCs1NyPVrLiP35_11crystal_toe2pyNtB6_8PyMixing3new, symObjAddr: 0x128, symBinAddr: 0xA958, symSize: 0x4 }
  - { offset: 0x312AB, size: 0x8, addend: 0x0, symName: __RNvMs14_NtCs1NyPVrLiP35_11crystal_toe2pyNtB6_8PyMixing4v_cb, symObjAddr: 0x12C, symBinAddr: 0xA95C, symSize: 0x20 }
  - { offset: 0x312CD, size: 0x8, addend: 0x0, symName: __RNvMs14_NtCs1NyPVrLiP35_11crystal_toe2pyNtB6_8PyMixing4v_tb, symObjAddr: 0x14C, symBinAddr: 0xA97C, symSize: 0x20 }
  - { offset: 0x312EF, size: 0x8, addend: 0x0, symName: __RNvMs14_NtCs1NyPVrLiP35_11crystal_toe2pyNtB6_8PyMixing4v_td, symObjAddr: 0x16C, symBinAddr: 0xA99C, symSize: 0x20 }
  - { offset: 0x31311, size: 0x8, addend: 0x0, symName: __RNvMs14_NtCs1NyPVrLiP35_11crystal_toe2pyNtB6_8PyMixing4v_ts, symObjAddr: 0x18C, symBinAddr: 0xA9BC, symSize: 0x20 }
  - { offset: 0x31333, size: 0x8, addend: 0x0, symName: __RNvMs14_NtCs1NyPVrLiP35_11crystal_toe2pyNtB6_8PyMixing4v_ub, symObjAddr: 0x1AC, symBinAddr: 0xA9DC, symSize: 0x20 }
  - { offset: 0x31355, size: 0x8, addend: 0x0, symName: __RNvMs14_NtCs1NyPVrLiP35_11crystal_toe2pyNtB6_8PyMixing4v_ud, symObjAddr: 0x1CC, symBinAddr: 0xA9FC, symSize: 0x20 }
  - { offset: 0x31377, size: 0x8, addend: 0x0, symName: __RNvMs14_NtCs1NyPVrLiP35_11crystal_toe2pyNtB6_8PyMixing4v_us, symObjAddr: 0x1EC, symBinAddr: 0xAA1C, symSize: 0x20 }
  - { offset: 0x31399, size: 0x8, addend: 0x0, symName: __RNvMs14_NtCs1NyPVrLiP35_11crystal_toe2pyNtB6_8PyMixing8jarlskog, symObjAddr: 0x20C, symBinAddr: 0xAA3C, symSize: 0x20 }
  - { offset: 0x313BB, size: 0x8, addend: 0x0, symName: __RNvMs16_NtCs1NyPVrLiP35_11crystal_toe2pyNtB6_8PyMixing17___pymethod_v_cb__, symObjAddr: 0x22C, symBinAddr: 0xAA5C, symSize: 0x214 }
  - { offset: 0x314AB, size: 0x8, addend: 0x0, symName: __RNvMs16_NtCs1NyPVrLiP35_11crystal_toe2pyNtB6_8PyMixing17___pymethod_v_tb__, symObjAddr: 0x440, symBinAddr: 0xAC70, symSize: 0x214 }
  - { offset: 0x3159B, size: 0x8, addend: 0x0, symName: __RNvMs16_NtCs1NyPVrLiP35_11crystal_toe2pyNtB6_8PyMixing17___pymethod_v_td__, symObjAddr: 0x654, symBinAddr: 0xAE84, symSize: 0x214 }
  - { offset: 0x3168B, size: 0x8, addend: 0x0, symName: __RNvMs16_NtCs1NyPVrLiP35_11crystal_toe2pyNtB6_8PyMixing17___pymethod_v_ts__, symObjAddr: 0x868, symBinAddr: 0xB098, symSize: 0x214 }
  - { offset: 0x3177B, size: 0x8, addend: 0x0, symName: __RNvMs16_NtCs1NyPVrLiP35_11crystal_toe2pyNtB6_8PyMixing17___pymethod_v_ub__, symObjAddr: 0xA7C, symBinAddr: 0xB2AC, symSize: 0x214 }
  - { offset: 0x3186B, size: 0x8, addend: 0x0, symName: __RNvMs16_NtCs1NyPVrLiP35_11crystal_toe2pyNtB6_8PyMixing17___pymethod_v_ud__, symObjAddr: 0xC90, symBinAddr: 0xB4C0, symSize: 0x214 }
  - { offset: 0x3195B, size: 0x8, addend: 0x0, symName: __RNvMs16_NtCs1NyPVrLiP35_11crystal_toe2pyNtB6_8PyMixing17___pymethod_v_us__, symObjAddr: 0xEA4, symBinAddr: 0xB6D4, symSize: 0x214 }
  - { offset: 0x31A4B, size: 0x8, addend: 0x0, symName: __RNvMs16_NtCs1NyPVrLiP35_11crystal_toe2pyNtB6_8PyMixing20___pymethod___new____, symObjAddr: 0x10B8, symBinAddr: 0xB8E8, symSize: 0x1A0 }
  - { offset: 0x31B87, size: 0x8, addend: 0x0, symName: __RNvMs16_NtCs1NyPVrLiP35_11crystal_toe2pyNtB6_8PyMixing21___pymethod_jarlskog__, symObjAddr: 0x1258, symBinAddr: 0xBA88, symSize: 0x214 }
  - { offset: 0x31C77, size: 0x8, addend: 0x0, symName: __RNvMs16_NtCs1NyPVrLiP35_11crystal_toe2pyNtB6_8PyMixing24___pymethod_cos_cabibbo__, symObjAddr: 0x146C, symBinAddr: 0xBC9C, symSize: 0x214 }
  - { offset: 0x31D67, size: 0x8, addend: 0x0, symName: __RNvMs16_NtCs1NyPVrLiP35_11crystal_toe2pyNtB6_8PyMixing24___pymethod_n_cp_phases__, symObjAddr: 0x1680, symBinAddr: 0xBEB0, symSize: 0x214 }
  - { offset: 0x31E57, size: 0x8, addend: 0x0, symName: __RNvMs16_NtCs1NyPVrLiP35_11crystal_toe2pyNtB6_8PyMixing24___pymethod_sin_cabibbo__, symObjAddr: 0x1894, symBinAddr: 0xC0C4, symSize: 0x214 }
  - { offset: 0x31F47, size: 0x8, addend: 0x0, symName: __RNvMs16_NtCs1NyPVrLiP35_11crystal_toe2pyNtB6_8PyMixing25___pymethod_sin2_theta12__, symObjAddr: 0x1AA8, symBinAddr: 0xC2D8, symSize: 0x214 }
  - { offset: 0x32037, size: 0x8, addend: 0x0, symName: __RNvMs16_NtCs1NyPVrLiP35_11crystal_toe2pyNtB6_8PyMixing25___pymethod_sin2_theta13__, symObjAddr: 0x1CBC, symBinAddr: 0xC4EC, symSize: 0x214 }
  - { offset: 0x32127, size: 0x8, addend: 0x0, symName: __RNvMs16_NtCs1NyPVrLiP35_11crystal_toe2pyNtB6_8PyMixing25___pymethod_sin2_theta23__, symObjAddr: 0x1ED0, symBinAddr: 0xC700, symSize: 0x214 }
  - { offset: 0x32217, size: 0x8, addend: 0x0, symName: __RNvMs16_NtCs1NyPVrLiP35_11crystal_toe2pyNtB6_8PyMixing28___pymethod_n_mixing_angles__, symObjAddr: 0x20E4, symBinAddr: 0xC914, symSize: 0x214 }
  - { offset: 0x32314, size: 0x8, addend: 0x0, symName: __RNvMs1K_NtCs1NyPVrLiP35_11crystal_toe2pyNtB6_9PyProtein11bp_per_turn, symObjAddr: 0x22F8, symBinAddr: 0xCB28, symSize: 0x20 }
  - { offset: 0x32343, size: 0x8, addend: 0x0, symName: __RNvMs1K_NtCs1NyPVrLiP35_11crystal_toe2pyNtB6_9PyProtein12vdw_radius_c, symObjAddr: 0x2318, symBinAddr: 0xCB48, symSize: 0x30 }
  - { offset: 0x32373, size: 0x8, addend: 0x0, symName: __RNvMs1K_NtCs1NyPVrLiP35_11crystal_toe2pyNtB6_9PyProtein13sp2_angle_deg, symObjAddr: 0x2348, symBinAddr: 0xCB78, symSize: 0x24 }
  - { offset: 0x32395, size: 0x8, addend: 0x0, symName: __RNvMs1K_NtCs1NyPVrLiP35_11crystal_toe2pyNtB6_9PyProtein13sp3_angle_deg, symObjAddr: 0x236C, symBinAddr: 0xCB9C, symSize: 0x24 }
  - { offset: 0x323B7, size: 0x8, addend: 0x0, symName: __RNvMs1K_NtCs1NyPVrLiP35_11crystal_toe2pyNtB6_9PyProtein14hbond_distance, symObjAddr: 0x2390, symBinAddr: 0xCBC0, symSize: 0x30 }
  - { offset: 0x323E7, size: 0x8, addend: 0x0, symName: __RNvMs1K_NtCs1NyPVrLiP35_11crystal_toe2pyNtB6_9PyProtein14helix_per_turn, symObjAddr: 0x23C0, symBinAddr: 0xCBF0, symSize: 0x20 }
  - { offset: 0x32409, size: 0x8, addend: 0x0, symName: __RNvMs1K_NtCs1NyPVrLiP35_11crystal_toe2pyNtB6_9PyProtein15water_angle_deg, symObjAddr: 0x23E0, symBinAddr: 0xCC10, symSize: 0x24 }
  - { offset: 0x3242B, size: 0x8, addend: 0x0, symName: __RNvMs1K_NtCs1NyPVrLiP35_11crystal_toe2pyNtB6_9PyProtein18protein_dielectric, symObjAddr: 0x2404, symBinAddr: 0xCC34, symSize: 0x18 }
  - { offset: 0x3244D, size: 0x8, addend: 0x0, symName: __RNvMs1K_NtCs1NyPVrLiP35_11crystal_toe2pyNtB6_9PyProtein20bohr_radius_angstrom, symObjAddr: 0x241C, symBinAddr: 0xCC4C, symSize: 0x30 }
  - { offset: 0x3247D, size: 0x8, addend: 0x0, symName: __RNvMs1K_NtCs1NyPVrLiP35_11crystal_toe2pyNtB6_9PyProtein3new, symObjAddr: 0x244C, symBinAddr: 0xCC7C, symSize: 0x4 }
  - { offset: 0x32490, size: 0x8, addend: 0x0, symName: __RNvMs1K_NtCs1NyPVrLiP35_11crystal_toe2pyNtB6_9PyProtein6e_fold, symObjAddr: 0x2450, symBinAddr: 0xCC80, symSize: 0x30 }
  - { offset: 0x324C0, size: 0x8, addend: 0x0, symName: __RNvMs1K_NtCs1NyPVrLiP35_11crystal_toe2pyNtB6_9PyProtein7e_hbond, symObjAddr: 0x2480, symBinAddr: 0xCCB0, symSize: 0x30 }
  - { offset: 0x324F0, size: 0x8, addend: 0x0, symName: __RNvMs1K_NtCs1NyPVrLiP35_11crystal_toe2pyNtB6_9PyProtein7eps_vdw, symObjAddr: 0x24B0, symBinAddr: 0xCCE0, symSize: 0x30 }
  - { offset: 0x32520, size: 0x8, addend: 0x0, symName: __RNvMs1K_NtCs1NyPVrLiP35_11crystal_toe2pyNtB6_9PyProtein7hartree, symObjAddr: 0x24E0, symBinAddr: 0xCD10, symSize: 0x30 }
  - { offset: 0x32550, size: 0x8, addend: 0x0, symName: __RNvMs1K_NtCs1NyPVrLiP35_11crystal_toe2pyNtB6_9PyProtein7k_omega, symObjAddr: 0x2510, symBinAddr: 0xCD40, symSize: 0x30 }
  - { offset: 0x32580, size: 0x8, addend: 0x0, symName: __RNvMs1K_NtCs1NyPVrLiP35_11crystal_toe2pyNtB6_9PyProtein8e_burial, symObjAddr: 0x2540, symBinAddr: 0xCD70, symSize: 0x30 }
  - { offset: 0x325B0, size: 0x8, addend: 0x0, symName: __RNvMs1K_NtCs1NyPVrLiP35_11crystal_toe2pyNtB6_9PyProtein8flory_nu, symObjAddr: 0x2570, symBinAddr: 0xCDA0, symSize: 0x20 }
  - { offset: 0x325D2, size: 0x8, addend: 0x0, symName: __RNvMs1M_NtCs1NyPVrLiP35_11crystal_toe2pyNtB6_9PyProtein19___pymethod_e_fold__, symObjAddr: 0x2590, symBinAddr: 0xCDC0, symSize: 0x3B0 }
  - { offset: 0x3276D, size: 0x8, addend: 0x0, symName: __RNvMs1M_NtCs1NyPVrLiP35_11crystal_toe2pyNtB6_9PyProtein20___pymethod___new____, symObjAddr: 0x2940, symBinAddr: 0xD170, symSize: 0x1A0 }
  - { offset: 0x328A9, size: 0x8, addend: 0x0, symName: __RNvMs1M_NtCs1NyPVrLiP35_11crystal_toe2pyNtB6_9PyProtein20___pymethod_e_hbond__, symObjAddr: 0x2AE0, symBinAddr: 0xD310, symSize: 0x3B0 }
  - { offset: 0x32A44, size: 0x8, addend: 0x0, symName: __RNvMs1M_NtCs1NyPVrLiP35_11crystal_toe2pyNtB6_9PyProtein20___pymethod_eps_vdw__, symObjAddr: 0x2E90, symBinAddr: 0xD6C0, symSize: 0x3B0 }
  - { offset: 0x32BDF, size: 0x8, addend: 0x0, symName: __RNvMs1M_NtCs1NyPVrLiP35_11crystal_toe2pyNtB6_9PyProtein20___pymethod_hartree__, symObjAddr: 0x3240, symBinAddr: 0xDA70, symSize: 0x3B0 }
  - { offset: 0x32D7A, size: 0x8, addend: 0x0, symName: __RNvMs1M_NtCs1NyPVrLiP35_11crystal_toe2pyNtB6_9PyProtein20___pymethod_k_omega__, symObjAddr: 0x35F0, symBinAddr: 0xDE20, symSize: 0x3B0 }
  - { offset: 0x32F15, size: 0x8, addend: 0x0, symName: __RNvMs1M_NtCs1NyPVrLiP35_11crystal_toe2pyNtB6_9PyProtein21___pymethod_e_burial__, symObjAddr: 0x39A0, symBinAddr: 0xE1D0, symSize: 0x3B0 }
  - { offset: 0x330B0, size: 0x8, addend: 0x0, symName: __RNvMs1M_NtCs1NyPVrLiP35_11crystal_toe2pyNtB6_9PyProtein21___pymethod_flory_nu__, symObjAddr: 0x3D50, symBinAddr: 0xE580, symSize: 0x214 }
  - { offset: 0x331A0, size: 0x8, addend: 0x0, symName: __RNvMs1M_NtCs1NyPVrLiP35_11crystal_toe2pyNtB6_9PyProtein24___pymethod_bp_per_turn__, symObjAddr: 0x3F64, symBinAddr: 0xE794, symSize: 0x214 }
  - { offset: 0x33290, size: 0x8, addend: 0x0, symName: __RNvMs1M_NtCs1NyPVrLiP35_11crystal_toe2pyNtB6_9PyProtein25___pymethod_vdw_radius_c__, symObjAddr: 0x4178, symBinAddr: 0xE9A8, symSize: 0x3B0 }
  - { offset: 0x3342B, size: 0x8, addend: 0x0, symName: __RNvMs1M_NtCs1NyPVrLiP35_11crystal_toe2pyNtB6_9PyProtein26___pymethod_sp2_angle_deg__, symObjAddr: 0x4528, symBinAddr: 0xED58, symSize: 0x214 }
  - { offset: 0x3351B, size: 0x8, addend: 0x0, symName: __RNvMs1M_NtCs1NyPVrLiP35_11crystal_toe2pyNtB6_9PyProtein26___pymethod_sp3_angle_deg__, symObjAddr: 0x473C, symBinAddr: 0xEF6C, symSize: 0x214 }
  - { offset: 0x3360B, size: 0x8, addend: 0x0, symName: __RNvMs1M_NtCs1NyPVrLiP35_11crystal_toe2pyNtB6_9PyProtein27___pymethod_hbond_distance__, symObjAddr: 0x4950, symBinAddr: 0xF180, symSize: 0x3B0 }
  - { offset: 0x337A6, size: 0x8, addend: 0x0, symName: __RNvMs1M_NtCs1NyPVrLiP35_11crystal_toe2pyNtB6_9PyProtein27___pymethod_helix_per_turn__, symObjAddr: 0x4D00, symBinAddr: 0xF530, symSize: 0x214 }
  - { offset: 0x33896, size: 0x8, addend: 0x0, symName: __RNvMs1M_NtCs1NyPVrLiP35_11crystal_toe2pyNtB6_9PyProtein28___pymethod_water_angle_deg__, symObjAddr: 0x4F14, symBinAddr: 0xF744, symSize: 0x214 }
  - { offset: 0x33986, size: 0x8, addend: 0x0, symName: __RNvMs1M_NtCs1NyPVrLiP35_11crystal_toe2pyNtB6_9PyProtein31___pymethod_protein_dielectric__, symObjAddr: 0x5128, symBinAddr: 0xF958, symSize: 0x214 }
  - { offset: 0x33A76, size: 0x8, addend: 0x0, symName: __RNvMs1M_NtCs1NyPVrLiP35_11crystal_toe2pyNtB6_9PyProtein33___pymethod_bohr_radius_angstrom__, symObjAddr: 0x533C, symBinAddr: 0xFB6C, symSize: 0x3B0 }
  - { offset: 0x33C1E, size: 0x8, addend: 0x0, symName: __RNvMs1Y_NtCs1NyPVrLiP35_11crystal_toe2pyNtB6_13PyCrossDomain13n_cross_links, symObjAddr: 0x56EC, symBinAddr: 0xFF1C, symSize: 0x20 }
  - { offset: 0x33C40, size: 0x8, addend: 0x0, symName: __RNvMs1Y_NtCs1NyPVrLiP35_11crystal_toe2pyNtB6_13PyCrossDomain15n_shared_ratios, symObjAddr: 0x570C, symBinAddr: 0xFF3C, symSize: 0x20 }
  - { offset: 0x33C62, size: 0x8, addend: 0x0, symName: __RNvMs1Y_NtCs1NyPVrLiP35_11crystal_toe2pyNtB6_13PyCrossDomain3new, symObjAddr: 0x572C, symBinAddr: 0xFF5C, symSize: 0x4 }
  - { offset: 0x33CA9, size: 0x8, addend: 0x0, symName: __RNvMs1Y_NtCs1NyPVrLiP35_11crystal_toe2pyNtB6_13PyCrossDomain6traces, symObjAddr: 0x5730, symBinAddr: 0xFF60, symSize: 0x58 }
  - { offset: 0x33CD8, size: 0x8, addend: 0x0, symName: __RNvMs1i_NtCs1NyPVrLiP35_11crystal_toe2pyNtB6_13PyAlphaProton13proton_radius, symObjAddr: 0x5788, symBinAddr: 0xFFB8, symSize: 0x20 }
  - { offset: 0x33CFA, size: 0x8, addend: 0x0, symName: __RNvMs1i_NtCs1NyPVrLiP35_11crystal_toe2pyNtB6_13PyAlphaProton14alpha_inv_full, symObjAddr: 0x57A8, symBinAddr: 0xFFD8, symSize: 0x20 }
  - { offset: 0x33D1C, size: 0x8, addend: 0x0, symName: __RNvMs1i_NtCs1NyPVrLiP35_11crystal_toe2pyNtB6_13PyAlphaProton15alpha_inv_tower, symObjAddr: 0x57C8, symBinAddr: 0xFFF8, symSize: 0x20 }
  - { offset: 0x33D3E, size: 0x8, addend: 0x0, symName: __RNvMs1i_NtCs1NyPVrLiP35_11crystal_toe2pyNtB6_13PyAlphaProton16mp_me_ratio_full, symObjAddr: 0x57E8, symBinAddr: 0x10018, symSize: 0x20 }
  - { offset: 0x33D60, size: 0x8, addend: 0x0, symName: __RNvMs1i_NtCs1NyPVrLiP35_11crystal_toe2pyNtB6_13PyAlphaProton3new, symObjAddr: 0x5808, symBinAddr: 0x10038, symSize: 0x4 }
  - { offset: 0x33D73, size: 0x8, addend: 0x0, symName: __RNvMs1k_NtCs1NyPVrLiP35_11crystal_toe2pyNtB6_13PyAlphaProton20___pymethod___new____, symObjAddr: 0x580C, symBinAddr: 0x1003C, symSize: 0x1A0 }
  - { offset: 0x33EAF, size: 0x8, addend: 0x0, symName: __RNvMs1k_NtCs1NyPVrLiP35_11crystal_toe2pyNtB6_13PyAlphaProton26___pymethod_proton_radius__, symObjAddr: 0x59AC, symBinAddr: 0x101DC, symSize: 0x214 }
  - { offset: 0x33F9F, size: 0x8, addend: 0x0, symName: __RNvMs1k_NtCs1NyPVrLiP35_11crystal_toe2pyNtB6_13PyAlphaProton27___pymethod_alpha_inv_full__, symObjAddr: 0x5BC0, symBinAddr: 0x103F0, symSize: 0x214 }
  - { offset: 0x3408F, size: 0x8, addend: 0x0, symName: __RNvMs1k_NtCs1NyPVrLiP35_11crystal_toe2pyNtB6_13PyAlphaProton28___pymethod_alpha_inv_tower__, symObjAddr: 0x5DD4, symBinAddr: 0x10604, symSize: 0x214 }
  - { offset: 0x3417F, size: 0x8, addend: 0x0, symName: __RNvMs1k_NtCs1NyPVrLiP35_11crystal_toe2pyNtB6_13PyAlphaProton29___pymethod_mp_me_ratio_full__, symObjAddr: 0x5FE8, symBinAddr: 0x10818, symSize: 0x214 }
  - { offset: 0x3427C, size: 0x8, addend: 0x0, symName: __RNvMs1w_NtCs1NyPVrLiP35_11crystal_toe2pyNtB6_9PyGravity11einstein_16, symObjAddr: 0x61FC, symBinAddr: 0x10A2C, symSize: 0x18 }
  - { offset: 0x3429E, size: 0x8, addend: 0x0, symName: __RNvMs1w_NtCs1NyPVrLiP35_11crystal_toe2pyNtB6_9PyGravity11isco_factor, symObjAddr: 0x6214, symBinAddr: 0x10A44, symSize: 0x20 }
  - { offset: 0x342C0, size: 0x8, addend: 0x0, symName: __RNvMs1w_NtCs1NyPVrLiP35_11crystal_toe2pyNtB6_9PyGravity12graviton_pol, symObjAddr: 0x6234, symBinAddr: 0x10A64, symSize: 0x18 }
  - { offset: 0x342E2, size: 0x8, addend: 0x0, symName: __RNvMs1w_NtCs1NyPVrLiP35_11crystal_toe2pyNtB6_9PyGravity13mera_bond_dim, symObjAddr: 0x624C, symBinAddr: 0x10A7C, symSize: 0x18 }
  - { offset: 0x34304, size: 0x8, addend: 0x0, symName: __RNvMs1w_NtCs1NyPVrLiP35_11crystal_toe2pyNtB6_9PyGravity13peters_factor, symObjAddr: 0x6264, symBinAddr: 0x10A94, symSize: 0x20 }
  - { offset: 0x34326, size: 0x8, addend: 0x0, symName: __RNvMs1w_NtCs1NyPVrLiP35_11crystal_toe2pyNtB6_9PyGravity13spacetime_dim, symObjAddr: 0x6284, symBinAddr: 0x10AB4, symSize: 0x18 }
  - { offset: 0x34348, size: 0x8, addend: 0x0, symName: __RNvMs1w_NtCs1NyPVrLiP35_11crystal_toe2pyNtB6_9PyGravity14chirp_exponent, symObjAddr: 0x629C, symBinAddr: 0x10ACC, symSize: 0x20 }
  - { offset: 0x3436A, size: 0x8, addend: 0x0, symName: __RNvMs1w_NtCs1NyPVrLiP35_11crystal_toe2pyNtB6_9PyGravity14gr_audit_count, symObjAddr: 0x62BC, symBinAddr: 0x10AEC, symSize: 0x18 }
  - { offset: 0x3438C, size: 0x8, addend: 0x0, symName: __RNvMs1w_NtCs1NyPVrLiP35_11crystal_toe2pyNtB6_9PyGravity14schwarz_factor, symObjAddr: 0x62D4, symBinAddr: 0x10B04, symSize: 0x18 }
  - { offset: 0x343AE, size: 0x8, addend: 0x0, symName: __RNvMs1w_NtCs1NyPVrLiP35_11crystal_toe2pyNtB6_9PyGravity15first_law_ratio, symObjAddr: 0x62EC, symBinAddr: 0x10B1C, symSize: 0x24 }
  - { offset: 0x343D0, size: 0x8, addend: 0x0, symName: __RNvMs1w_NtCs1NyPVrLiP35_11crystal_toe2pyNtB6_9PyGravity17precession_factor, symObjAddr: 0x6310, symBinAddr: 0x10B40, symSize: 0x20 }
  - { offset: 0x343F2, size: 0x8, addend: 0x0, symName: __RNvMs1w_NtCs1NyPVrLiP35_11crystal_toe2pyNtB6_9PyGravity20light_bending_factor, symObjAddr: 0x6330, symBinAddr: 0x10B60, symSize: 0x20 }
  - { offset: 0x34414, size: 0x8, addend: 0x0, symName: __RNvMs1w_NtCs1NyPVrLiP35_11crystal_toe2pyNtB6_9PyGravity20photon_sphere_factor, symObjAddr: 0x6350, symBinAddr: 0x10B80, symSize: 0x20 }
  - { offset: 0x34436, size: 0x8, addend: 0x0, symName: __RNvMs1w_NtCs1NyPVrLiP35_11crystal_toe2pyNtB6_9PyGravity23schwarzschild_radius_si, symObjAddr: 0x6370, symBinAddr: 0x10BA0, symSize: 0x24 }
  - { offset: 0x34466, size: 0x8, addend: 0x0, symName: __RNvMs1w_NtCs1NyPVrLiP35_11crystal_toe2pyNtB6_9PyGravity3new, symObjAddr: 0x6394, symBinAddr: 0x10BC4, symSize: 0x4 }
  - { offset: 0x34479, size: 0x8, addend: 0x0, symName: __RNvMs1w_NtCs1NyPVrLiP35_11crystal_toe2pyNtB6_9PyGravity9bh_factor, symObjAddr: 0x6398, symBinAddr: 0x10BC8, symSize: 0x18 }
  - { offset: 0x3449B, size: 0x8, addend: 0x0, symName: __RNvMs1y_NtCs1NyPVrLiP35_11crystal_toe2pyNtB6_9PyGravity20___pymethod___new____, symObjAddr: 0x63B0, symBinAddr: 0x10BE0, symSize: 0x1A0 }
  - { offset: 0x345D7, size: 0x8, addend: 0x0, symName: __RNvMs1y_NtCs1NyPVrLiP35_11crystal_toe2pyNtB6_9PyGravity22___pymethod_bh_factor__, symObjAddr: 0x6550, symBinAddr: 0x10D80, symSize: 0x214 }
  - { offset: 0x346C7, size: 0x8, addend: 0x0, symName: __RNvMs1y_NtCs1NyPVrLiP35_11crystal_toe2pyNtB6_9PyGravity24___pymethod_einstein_16__, symObjAddr: 0x6764, symBinAddr: 0x10F94, symSize: 0x214 }
  - { offset: 0x347B7, size: 0x8, addend: 0x0, symName: __RNvMs1y_NtCs1NyPVrLiP35_11crystal_toe2pyNtB6_9PyGravity24___pymethod_isco_factor__, symObjAddr: 0x6978, symBinAddr: 0x111A8, symSize: 0x214 }
  - { offset: 0x348A7, size: 0x8, addend: 0x0, symName: __RNvMs1y_NtCs1NyPVrLiP35_11crystal_toe2pyNtB6_9PyGravity25___pymethod_graviton_pol__, symObjAddr: 0x6B8C, symBinAddr: 0x113BC, symSize: 0x214 }
  - { offset: 0x34997, size: 0x8, addend: 0x0, symName: __RNvMs1y_NtCs1NyPVrLiP35_11crystal_toe2pyNtB6_9PyGravity26___pymethod_mera_bond_dim__, symObjAddr: 0x6DA0, symBinAddr: 0x115D0, symSize: 0x214 }
  - { offset: 0x34A87, size: 0x8, addend: 0x0, symName: __RNvMs1y_NtCs1NyPVrLiP35_11crystal_toe2pyNtB6_9PyGravity26___pymethod_peters_factor__, symObjAddr: 0x6FB4, symBinAddr: 0x117E4, symSize: 0x214 }
  - { offset: 0x34B77, size: 0x8, addend: 0x0, symName: __RNvMs1y_NtCs1NyPVrLiP35_11crystal_toe2pyNtB6_9PyGravity26___pymethod_spacetime_dim__, symObjAddr: 0x71C8, symBinAddr: 0x119F8, symSize: 0x214 }
  - { offset: 0x34C67, size: 0x8, addend: 0x0, symName: __RNvMs1y_NtCs1NyPVrLiP35_11crystal_toe2pyNtB6_9PyGravity27___pymethod_chirp_exponent__, symObjAddr: 0x73DC, symBinAddr: 0x11C0C, symSize: 0x214 }
  - { offset: 0x34D57, size: 0x8, addend: 0x0, symName: __RNvMs1y_NtCs1NyPVrLiP35_11crystal_toe2pyNtB6_9PyGravity27___pymethod_gr_audit_count__, symObjAddr: 0x75F0, symBinAddr: 0x11E20, symSize: 0x214 }
  - { offset: 0x34E47, size: 0x8, addend: 0x0, symName: __RNvMs1y_NtCs1NyPVrLiP35_11crystal_toe2pyNtB6_9PyGravity27___pymethod_schwarz_factor__, symObjAddr: 0x7804, symBinAddr: 0x12034, symSize: 0x214 }
  - { offset: 0x34F37, size: 0x8, addend: 0x0, symName: __RNvMs1y_NtCs1NyPVrLiP35_11crystal_toe2pyNtB6_9PyGravity28___pymethod_first_law_ratio__, symObjAddr: 0x7A18, symBinAddr: 0x12248, symSize: 0x214 }
  - { offset: 0x35027, size: 0x8, addend: 0x0, symName: __RNvMs1y_NtCs1NyPVrLiP35_11crystal_toe2pyNtB6_9PyGravity30___pymethod_precession_factor__, symObjAddr: 0x7C2C, symBinAddr: 0x1245C, symSize: 0x214 }
  - { offset: 0x35117, size: 0x8, addend: 0x0, symName: __RNvMs1y_NtCs1NyPVrLiP35_11crystal_toe2pyNtB6_9PyGravity33___pymethod_light_bending_factor__, symObjAddr: 0x7E40, symBinAddr: 0x12670, symSize: 0x214 }
  - { offset: 0x35207, size: 0x8, addend: 0x0, symName: __RNvMs1y_NtCs1NyPVrLiP35_11crystal_toe2pyNtB6_9PyGravity33___pymethod_photon_sphere_factor__, symObjAddr: 0x8054, symBinAddr: 0x12884, symSize: 0x214 }
  - { offset: 0x352F7, size: 0x8, addend: 0x0, symName: __RNvMs1y_NtCs1NyPVrLiP35_11crystal_toe2pyNtB6_9PyGravity36___pymethod_schwarzschild_radius_si__, symObjAddr: 0x8268, symBinAddr: 0x12A98, symSize: 0x378 }
  - { offset: 0x35492, size: 0x8, addend: 0x0, symName: __RNvMs20_NtCs1NyPVrLiP35_11crystal_toe2pyNtB6_13PyCrossDomain19___pymethod_traces__, symObjAddr: 0x85E0, symBinAddr: 0x12E10, symSize: 0x290 }
  - { offset: 0x3557A, size: 0x8, addend: 0x0, symName: __RNvMs20_NtCs1NyPVrLiP35_11crystal_toe2pyNtB6_13PyCrossDomain20___pymethod___new____, symObjAddr: 0x8870, symBinAddr: 0x130A0, symSize: 0x1A0 }
  - { offset: 0x356B6, size: 0x8, addend: 0x0, symName: __RNvMs20_NtCs1NyPVrLiP35_11crystal_toe2pyNtB6_13PyCrossDomain26___pymethod_n_cross_links__, symObjAddr: 0x8A10, symBinAddr: 0x13240, symSize: 0x214 }
  - { offset: 0x357A6, size: 0x8, addend: 0x0, symName: __RNvMs20_NtCs1NyPVrLiP35_11crystal_toe2pyNtB6_13PyCrossDomain28___pymethod_n_shared_ratios__, symObjAddr: 0x8C24, symBinAddr: 0x13454, symSize: 0x214 }
  - { offset: 0x358A3, size: 0x8, addend: 0x0, symName: __RNvMs2H_NtCs1NyPVrLiP35_11crystal_toe2pyNtB6_11PyHierarchy12omega_lambda, symObjAddr: 0x8E38, symBinAddr: 0x13668, symSize: 0x30 }
  - { offset: 0x358F9, size: 0x8, addend: 0x0, symName: __RNvMs2H_NtCs1NyPVrLiP35_11crystal_toe2pyNtB6_11PyHierarchy18implosion_channels, symObjAddr: 0x8E68, symBinAddr: 0x13698, symSize: 0x58 }
  - { offset: 0x3591B, size: 0x8, addend: 0x0, symName: __RNvMs2H_NtCs1NyPVrLiP35_11crystal_toe2pyNtB6_11PyHierarchy2a0, symObjAddr: 0x8EC0, symBinAddr: 0x136F0, symSize: 0x18 }
  - { offset: 0x3593D, size: 0x8, addend: 0x0, symName: __RNvMs2H_NtCs1NyPVrLiP35_11crystal_toe2pyNtB6_11PyHierarchy2a4, symObjAddr: 0x8ED8, symBinAddr: 0x13708, symSize: 0x18 }
  - { offset: 0x3595F, size: 0x8, addend: 0x0, symName: __RNvMs2H_NtCs1NyPVrLiP35_11crystal_toe2pyNtB6_11PyHierarchy3new, symObjAddr: 0x8EF0, symBinAddr: 0x13720, symSize: 0x4 }
  - { offset: 0x35972, size: 0x8, addend: 0x0, symName: __RNvMs2H_NtCs1NyPVrLiP35_11crystal_toe2pyNtB6_11PyHierarchy7omega_b, symObjAddr: 0x8EF4, symBinAddr: 0x13724, symSize: 0x30 }
  - { offset: 0x35994, size: 0x8, addend: 0x0, symName: __RNvMs2H_NtCs1NyPVrLiP35_11crystal_toe2pyNtB6_11PyHierarchy8core_val, symObjAddr: 0x8F24, symBinAddr: 0x13754, symSize: 0x18 }
  - { offset: 0x359B6, size: 0x8, addend: 0x0, symName: __RNvMs2H_NtCs1NyPVrLiP35_11crystal_toe2pyNtB6_11PyHierarchy9omega_cdm, symObjAddr: 0x8F3C, symBinAddr: 0x1376C, symSize: 0x30 }
  - { offset: 0x359D8, size: 0x8, addend: 0x0, symName: __RNvMs2J_NtCs1NyPVrLiP35_11crystal_toe2pyNtB6_11PyHierarchy15___pymethod_a0__, symObjAddr: 0x8F6C, symBinAddr: 0x1379C, symSize: 0x214 }
  - { offset: 0x35AC8, size: 0x8, addend: 0x0, symName: __RNvMs2J_NtCs1NyPVrLiP35_11crystal_toe2pyNtB6_11PyHierarchy15___pymethod_a4__, symObjAddr: 0x9180, symBinAddr: 0x139B0, symSize: 0x214 }
  - { offset: 0x35BB8, size: 0x8, addend: 0x0, symName: __RNvMs2J_NtCs1NyPVrLiP35_11crystal_toe2pyNtB6_11PyHierarchy20___pymethod___new____, symObjAddr: 0x9394, symBinAddr: 0x13BC4, symSize: 0x1A0 }
  - { offset: 0x35CF4, size: 0x8, addend: 0x0, symName: __RNvMs2J_NtCs1NyPVrLiP35_11crystal_toe2pyNtB6_11PyHierarchy20___pymethod_omega_b__, symObjAddr: 0x9534, symBinAddr: 0x13D64, symSize: 0x214 }
  - { offset: 0x35DE4, size: 0x8, addend: 0x0, symName: __RNvMs2J_NtCs1NyPVrLiP35_11crystal_toe2pyNtB6_11PyHierarchy21___pymethod_core_val__, symObjAddr: 0x9748, symBinAddr: 0x13F78, symSize: 0x214 }
  - { offset: 0x35ED4, size: 0x8, addend: 0x0, symName: __RNvMs2J_NtCs1NyPVrLiP35_11crystal_toe2pyNtB6_11PyHierarchy22___pymethod_omega_cdm__, symObjAddr: 0x995C, symBinAddr: 0x1418C, symSize: 0x214 }
  - { offset: 0x35FC4, size: 0x8, addend: 0x0, symName: __RNvMs2J_NtCs1NyPVrLiP35_11crystal_toe2pyNtB6_11PyHierarchy25___pymethod_omega_lambda__, symObjAddr: 0x9B70, symBinAddr: 0x143A0, symSize: 0x214 }
  - { offset: 0x360B4, size: 0x8, addend: 0x0, symName: __RNvMs2J_NtCs1NyPVrLiP35_11crystal_toe2pyNtB6_11PyHierarchy31___pymethod_implosion_channels__, symObjAddr: 0x9D84, symBinAddr: 0x145B4, symSize: 0x290 }
  - { offset: 0x361A9, size: 0x8, addend: 0x0, symName: __RNvMs2W_NtCs1NyPVrLiP35_11crystal_toe2pyNtB6_14PyAlgebraState10amplitudes, symObjAddr: 0xA014, symBinAddr: 0x14844, symSize: 0x2C }
  - { offset: 0x361CC, size: 0x8, addend: 0x0, symName: __RNvMs2W_NtCs1NyPVrLiP35_11crystal_toe2pyNtB6_14PyAlgebraState10tick_count, symObjAddr: 0xA040, symBinAddr: 0x14870, symSize: 0x18 }
  - { offset: 0x361EF, size: 0x8, addend: 0x0, symName: __RNvMs2W_NtCs1NyPVrLiP35_11crystal_toe2pyNtB6_14PyAlgebraState12total_weight, symObjAddr: 0xA058, symBinAddr: 0x14888, symSize: 0x24 }
  - { offset: 0x36212, size: 0x8, addend: 0x0, symName: __RNvMs2W_NtCs1NyPVrLiP35_11crystal_toe2pyNtB6_14PyAlgebraState3new, symObjAddr: 0xA07C, symBinAddr: 0x148AC, symSize: 0x3C }
  - { offset: 0x36232, size: 0x8, addend: 0x0, symName: __RNvMs2W_NtCs1NyPVrLiP35_11crystal_toe2pyNtB6_14PyAlgebraState4tick, symObjAddr: 0xA0B8, symBinAddr: 0x148E8, symSize: 0x24 }
  - { offset: 0x36254, size: 0x8, addend: 0x0, symName: __RNvMs2W_NtCs1NyPVrLiP35_11crystal_toe2pyNtB6_14PyAlgebraState4weak, symObjAddr: 0xA0DC, symBinAddr: 0x1490C, symSize: 0x18 }
  - { offset: 0x36277, size: 0x8, addend: 0x0, symName: __RNvMs2W_NtCs1NyPVrLiP35_11crystal_toe2pyNtB6_14PyAlgebraState5mixed, symObjAddr: 0xA0F4, symBinAddr: 0x14924, symSize: 0x18 }
  - { offset: 0x3629A, size: 0x8, addend: 0x0, symName: __RNvMs2W_NtCs1NyPVrLiP35_11crystal_toe2pyNtB6_14PyAlgebraState6colour, symObjAddr: 0xA10C, symBinAddr: 0x1493C, symSize: 0x18 }
  - { offset: 0x362BD, size: 0x8, addend: 0x0, symName: __RNvMs2W_NtCs1NyPVrLiP35_11crystal_toe2pyNtB6_14PyAlgebraState6evolve, symObjAddr: 0xA124, symBinAddr: 0x14954, symSize: 0x28 }
  - { offset: 0x362EF, size: 0x8, addend: 0x0, symName: __RNvMs2W_NtCs1NyPVrLiP35_11crystal_toe2pyNtB6_14PyAlgebraState7at_tick, symObjAddr: 0xA14C, symBinAddr: 0x1497C, symSize: 0x40 }
  - { offset: 0x36311, size: 0x8, addend: 0x0, symName: __RNvMs2W_NtCs1NyPVrLiP35_11crystal_toe2pyNtB6_14PyAlgebraState7entropy, symObjAddr: 0xA18C, symBinAddr: 0x149BC, symSize: 0x24 }
  - { offset: 0x36334, size: 0x8, addend: 0x0, symName: __RNvMs2W_NtCs1NyPVrLiP35_11crystal_toe2pyNtB6_14PyAlgebraState7singlet, symObjAddr: 0xA1B0, symBinAddr: 0x149E0, symSize: 0x18 }
  - { offset: 0x36357, size: 0x8, addend: 0x0, symName: __RNvMs2W_NtCs1NyPVrLiP35_11crystal_toe2pyNtB6_14PyAlgebraState8___repr__, symObjAddr: 0xA1C8, symBinAddr: 0x149F8, symSize: 0x68 }
  - { offset: 0x363D4, size: 0x8, addend: 0x0, symName: __RNvMs2Y_NtCs1NyPVrLiP35_11crystal_toe2pyNtB6_14PyAlgebraState17___pymethod_tick__, symObjAddr: 0xA230, symBinAddr: 0x14A60, symSize: 0x1E8 }
  - { offset: 0x364C4, size: 0x8, addend: 0x0, symName: __RNvMs2Y_NtCs1NyPVrLiP35_11crystal_toe2pyNtB6_14PyAlgebraState19___pymethod_evolve__, symObjAddr: 0xA418, symBinAddr: 0x14C48, symSize: 0x34C }
  - { offset: 0x36660, size: 0x8, addend: 0x0, symName: __RNvMs2Y_NtCs1NyPVrLiP35_11crystal_toe2pyNtB6_14PyAlgebraState20___pymethod___new____, symObjAddr: 0xA764, symBinAddr: 0x14F94, symSize: 0x200 }
  - { offset: 0x3679C, size: 0x8, addend: 0x0, symName: __RNvMs2Y_NtCs1NyPVrLiP35_11crystal_toe2pyNtB6_14PyAlgebraState20___pymethod_at_tick__, symObjAddr: 0xA964, symBinAddr: 0x15194, symSize: 0x290 }
  - { offset: 0x36913, size: 0x8, addend: 0x0, symName: __RNvMs2Y_NtCs1NyPVrLiP35_11crystal_toe2pyNtB6_14PyAlgebraState21___pymethod___repr____, symObjAddr: 0xABF4, symBinAddr: 0x15424, symSize: 0x178 }
  - { offset: 0x369CD, size: 0x8, addend: 0x0, symName: __RNvMs2Y_NtCs1NyPVrLiP35_11crystal_toe2pyNtB6_14PyAlgebraState21___pymethod_get_weak__, symObjAddr: 0xAD6C, symBinAddr: 0x1559C, symSize: 0x134 }
  - { offset: 0x36A5B, size: 0x8, addend: 0x0, symName: __RNvMs2Y_NtCs1NyPVrLiP35_11crystal_toe2pyNtB6_14PyAlgebraState22___pymethod_get_mixed__, symObjAddr: 0xAEA0, symBinAddr: 0x156D0, symSize: 0x134 }
  - { offset: 0x36AE9, size: 0x8, addend: 0x0, symName: __RNvMs2Y_NtCs1NyPVrLiP35_11crystal_toe2pyNtB6_14PyAlgebraState23___pymethod_get_colour__, symObjAddr: 0xAFD4, symBinAddr: 0x15804, symSize: 0x134 }
  - { offset: 0x36B77, size: 0x8, addend: 0x0, symName: __RNvMs2Y_NtCs1NyPVrLiP35_11crystal_toe2pyNtB6_14PyAlgebraState24___pymethod_get_entropy__, symObjAddr: 0xB108, symBinAddr: 0x15938, symSize: 0x134 }
  - { offset: 0x36C05, size: 0x8, addend: 0x0, symName: __RNvMs2Y_NtCs1NyPVrLiP35_11crystal_toe2pyNtB6_14PyAlgebraState24___pymethod_get_singlet__, symObjAddr: 0xB23C, symBinAddr: 0x15A6C, symSize: 0x134 }
  - { offset: 0x36C93, size: 0x8, addend: 0x0, symName: __RNvMs2Y_NtCs1NyPVrLiP35_11crystal_toe2pyNtB6_14PyAlgebraState27___pymethod_get_amplitudes__, symObjAddr: 0xB370, symBinAddr: 0x15BA0, symSize: 0x134 }
  - { offset: 0x36D20, size: 0x8, addend: 0x0, symName: __RNvMs2Y_NtCs1NyPVrLiP35_11crystal_toe2pyNtB6_14PyAlgebraState27___pymethod_get_tick_count__, symObjAddr: 0xB4A4, symBinAddr: 0x15CD4, symSize: 0x134 }
  - { offset: 0x36DAE, size: 0x8, addend: 0x0, symName: __RNvMs2Y_NtCs1NyPVrLiP35_11crystal_toe2pyNtB6_14PyAlgebraState29___pymethod_get_total_weight__, symObjAddr: 0xB5D8, symBinAddr: 0x15E08, symSize: 0x134 }
  - { offset: 0x36E49, size: 0x8, addend: 0x0, symName: __RNvMs2d_NtCs1NyPVrLiP35_11crystal_toe2pyNtB6_7PyTruth4join, symObjAddr: 0xB70C, symBinAddr: 0x15F3C, symSize: 0x44 }
  - { offset: 0x36E79, size: 0x8, addend: 0x0, symName: __RNvMs2d_NtCs1NyPVrLiP35_11crystal_toe2pyNtB6_7PyTruth4meet, symObjAddr: 0xB750, symBinAddr: 0x15F80, symSize: 0x44 }
  - { offset: 0x36EA9, size: 0x8, addend: 0x0, symName: __RNvMs2d_NtCs1NyPVrLiP35_11crystal_toe2pyNtB6_7PyTruth4weak, symObjAddr: 0xB794, symBinAddr: 0x15FC4, symSize: 0x14 }
  - { offset: 0x36EBC, size: 0x8, addend: 0x0, symName: __RNvMs2d_NtCs1NyPVrLiP35_11crystal_toe2pyNtB6_7PyTruth5mixed, symObjAddr: 0xB7A8, symBinAddr: 0x15FD8, symSize: 0x14 }
  - { offset: 0x36ECF, size: 0x8, addend: 0x0, symName: __RNvMs2d_NtCs1NyPVrLiP35_11crystal_toe2pyNtB6_7PyTruth5value, symObjAddr: 0xB7BC, symBinAddr: 0x15FEC, symSize: 0x30 }
  - { offset: 0x36EF8, size: 0x8, addend: 0x0, symName: __RNvMs2d_NtCs1NyPVrLiP35_11crystal_toe2pyNtB6_7PyTruth6___eq__, symObjAddr: 0xB7EC, symBinAddr: 0x1601C, symSize: 0x2C }
  - { offset: 0x36F28, size: 0x8, addend: 0x0, symName: __RNvMs2d_NtCs1NyPVrLiP35_11crystal_toe2pyNtB6_7PyTruth6colour, symObjAddr: 0xB818, symBinAddr: 0x16048, symSize: 0x14 }
  - { offset: 0x36F3B, size: 0x8, addend: 0x0, symName: __RNvMs2d_NtCs1NyPVrLiP35_11crystal_toe2pyNtB6_7PyTruth6negate, symObjAddr: 0xB82C, symBinAddr: 0x1605C, symSize: 0x30 }
  - { offset: 0x36F5D, size: 0x8, addend: 0x0, symName: __RNvMs2d_NtCs1NyPVrLiP35_11crystal_toe2pyNtB6_7PyTruth7implies, symObjAddr: 0xB85C, symBinAddr: 0x1608C, symSize: 0x44 }
  - { offset: 0x36F8D, size: 0x8, addend: 0x0, symName: __RNvMs2d_NtCs1NyPVrLiP35_11crystal_toe2pyNtB6_7PyTruth8___repr__, symObjAddr: 0xB8A0, symBinAddr: 0x160D0, symSize: 0x68 }
  - { offset: 0x37006, size: 0x8, addend: 0x0, symName: __RNvMs2d_NtCs1NyPVrLiP35_11crystal_toe2pyNtB6_7PyTruth8true_val, symObjAddr: 0xB908, symBinAddr: 0x16138, symSize: 0x10 }
  - { offset: 0x37019, size: 0x8, addend: 0x0, symName: __RNvMs2d_NtCs1NyPVrLiP35_11crystal_toe2pyNtB6_7PyTruth9false_val, symObjAddr: 0xB918, symBinAddr: 0x16148, symSize: 0x10 }
  - { offset: 0x3702C, size: 0x8, addend: 0x0, symName: __RNvMs2e_NtCs1NyPVrLiP35_11crystal_toe2pyNtB6_7PyTruth19___pymethod___eq____, symObjAddr: 0xB928, symBinAddr: 0x16158, symSize: 0x204 }
  - { offset: 0x370D7, size: 0x8, addend: 0x0, symName: __RNvMs2h_NtCs1NyPVrLiP35_11crystal_toe2pyNtB6_7PyTruth17___pymethod_join__, symObjAddr: 0xBB2C, symBinAddr: 0x1635C, symSize: 0x43C }
  - { offset: 0x37272, size: 0x8, addend: 0x0, symName: __RNvMs2h_NtCs1NyPVrLiP35_11crystal_toe2pyNtB6_7PyTruth17___pymethod_meet__, symObjAddr: 0xBF68, symBinAddr: 0x16798, symSize: 0x43C }
  - { offset: 0x3740D, size: 0x8, addend: 0x0, symName: __RNvMs2h_NtCs1NyPVrLiP35_11crystal_toe2pyNtB6_7PyTruth17___pymethod_weak__, symObjAddr: 0xC3A4, symBinAddr: 0x16BD4, symSize: 0x10C }
  - { offset: 0x374A6, size: 0x8, addend: 0x0, symName: __RNvMs2h_NtCs1NyPVrLiP35_11crystal_toe2pyNtB6_7PyTruth18___pymethod_mixed__, symObjAddr: 0xC4B0, symBinAddr: 0x16CE0, symSize: 0x10C }
  - { offset: 0x3753F, size: 0x8, addend: 0x0, symName: __RNvMs2h_NtCs1NyPVrLiP35_11crystal_toe2pyNtB6_7PyTruth18___pymethod_value__, symObjAddr: 0xC5BC, symBinAddr: 0x16DEC, symSize: 0x214 }
  - { offset: 0x3762F, size: 0x8, addend: 0x0, symName: __RNvMs2h_NtCs1NyPVrLiP35_11crystal_toe2pyNtB6_7PyTruth19___pymethod_colour__, symObjAddr: 0xC7D0, symBinAddr: 0x17000, symSize: 0x10C }
  - { offset: 0x376C8, size: 0x8, addend: 0x0, symName: __RNvMs2h_NtCs1NyPVrLiP35_11crystal_toe2pyNtB6_7PyTruth19___pymethod_negate__, symObjAddr: 0xC8DC, symBinAddr: 0x1710C, symSize: 0x2EC }
  - { offset: 0x3783F, size: 0x8, addend: 0x0, symName: __RNvMs2h_NtCs1NyPVrLiP35_11crystal_toe2pyNtB6_7PyTruth20___pymethod_implies__, symObjAddr: 0xCBC8, symBinAddr: 0x173F8, symSize: 0x43C }
  - { offset: 0x379DA, size: 0x8, addend: 0x0, symName: __RNvMs2h_NtCs1NyPVrLiP35_11crystal_toe2pyNtB6_7PyTruth21___pymethod___repr____, symObjAddr: 0xD004, symBinAddr: 0x17834, symSize: 0x178 }
  - { offset: 0x37A94, size: 0x8, addend: 0x0, symName: __RNvMs2h_NtCs1NyPVrLiP35_11crystal_toe2pyNtB6_7PyTruth21___pymethod_true_val__, symObjAddr: 0xD17C, symBinAddr: 0x179AC, symSize: 0x10C }
  - { offset: 0x37B2D, size: 0x8, addend: 0x0, symName: __RNvMs2h_NtCs1NyPVrLiP35_11crystal_toe2pyNtB6_7PyTruth22___pymethod_false_val__, symObjAddr: 0xD288, symBinAddr: 0x17AB8, symSize: 0x10C }
  - { offset: 0x37BFC, size: 0x8, addend: 0x0, symName: __RNvMs2t_NtCs1NyPVrLiP35_11crystal_toe2pyNtB6_7PyTower10key_layers, symObjAddr: 0xD394, symBinAddr: 0x17BC4, symSize: 0x68 }
  - { offset: 0x37C1E, size: 0x8, addend: 0x0, symName: __RNvMs2t_NtCs1NyPVrLiP35_11crystal_toe2pyNtB6_7PyTower14alpha_at_layer, symObjAddr: 0xD3FC, symBinAddr: 0x17C2C, symSize: 0x2C }
  - { offset: 0x37C4E, size: 0x8, addend: 0x0, symName: __RNvMs2t_NtCs1NyPVrLiP35_11crystal_toe2pyNtB6_7PyTower18alpha_inv_at_layer, symObjAddr: 0xD428, symBinAddr: 0x17C58, symSize: 0x2C }
  - { offset: 0x37C7E, size: 0x8, addend: 0x0, symName: __RNvMs2t_NtCs1NyPVrLiP35_11crystal_toe2pyNtB6_7PyTower3new, symObjAddr: 0xD454, symBinAddr: 0x17C84, symSize: 0x4 }
  - { offset: 0x37C91, size: 0x8, addend: 0x0, symName: __RNvMs2t_NtCs1NyPVrLiP35_11crystal_toe2pyNtB6_7PyTower6layers, symObjAddr: 0xD458, symBinAddr: 0x17C88, symSize: 0x58 }
  - { offset: 0x37CB3, size: 0x8, addend: 0x0, symName: __RNvMs2v_NtCs1NyPVrLiP35_11crystal_toe2pyNtB6_7PyTower19___pymethod_layers__, symObjAddr: 0xD4B0, symBinAddr: 0x17CE0, symSize: 0x290 }
  - { offset: 0x37D9B, size: 0x8, addend: 0x0, symName: __RNvMs2v_NtCs1NyPVrLiP35_11crystal_toe2pyNtB6_7PyTower20___pymethod___new____, symObjAddr: 0xD740, symBinAddr: 0x17F70, symSize: 0x1A0 }
  - { offset: 0x37ED7, size: 0x8, addend: 0x0, symName: __RNvMs2v_NtCs1NyPVrLiP35_11crystal_toe2pyNtB6_7PyTower23___pymethod_key_layers__, symObjAddr: 0xD8E0, symBinAddr: 0x18110, symSize: 0x290 }
  - { offset: 0x37FBF, size: 0x8, addend: 0x0, symName: __RNvMs2v_NtCs1NyPVrLiP35_11crystal_toe2pyNtB6_7PyTower27___pymethod_alpha_at_layer__, symObjAddr: 0xDB70, symBinAddr: 0x183A0, symSize: 0x378 }
  - { offset: 0x3815A, size: 0x8, addend: 0x0, symName: __RNvMs2v_NtCs1NyPVrLiP35_11crystal_toe2pyNtB6_7PyTower31___pymethod_alpha_inv_at_layer__, symObjAddr: 0xDEE8, symBinAddr: 0x18718, symSize: 0x378 }
  - { offset: 0x38302, size: 0x8, addend: 0x0, symName: __RNvMs3C_NtCs1NyPVrLiP35_11crystal_toe2pyNtB6_4PyGW10chirp_mass, symObjAddr: 0xE260, symBinAddr: 0x18A90, symSize: 0x28 }
  - { offset: 0x38343, size: 0x8, addend: 0x0, symName: __RNvMs3C_NtCs1NyPVrLiP35_11crystal_toe2pyNtB6_4PyGW14chirp_exponent, symObjAddr: 0xE288, symBinAddr: 0x18AB8, symSize: 0x20 }
  - { offset: 0x38366, size: 0x8, addend: 0x0, symName: __RNvMs3C_NtCs1NyPVrLiP35_11crystal_toe2pyNtB6_4PyGW16gw_polarizations, symObjAddr: 0xE2A8, symBinAddr: 0x18AD8, symSize: 0x18 }
  - { offset: 0x38389, size: 0x8, addend: 0x0, symName: __RNvMs3C_NtCs1NyPVrLiP35_11crystal_toe2pyNtB6_4PyGW18orbital_decay_rate, symObjAddr: 0xE2C0, symBinAddr: 0x18AF0, symSize: 0x2C }
  - { offset: 0x383D9, size: 0x8, addend: 0x0, symName: __RNvMs3C_NtCs1NyPVrLiP35_11crystal_toe2pyNtB6_4PyGW18peters_coefficient, symObjAddr: 0xE2EC, symBinAddr: 0x18B1C, symSize: 0x20 }
  - { offset: 0x383FC, size: 0x8, addend: 0x0, symName: __RNvMs3C_NtCs1NyPVrLiP35_11crystal_toe2pyNtB6_4PyGW3new, symObjAddr: 0xE30C, symBinAddr: 0x18B3C, symSize: 0x4 }
  - { offset: 0x3840F, size: 0x8, addend: 0x0, symName: __RNvMs3E_NtCs1NyPVrLiP35_11crystal_toe2pyNtB6_4PyGW20___pymethod___new____, symObjAddr: 0xE310, symBinAddr: 0x18B40, symSize: 0x1A0 }
  - { offset: 0x38559, size: 0x8, addend: 0x0, symName: __RNvMs3E_NtCs1NyPVrLiP35_11crystal_toe2pyNtB6_4PyGW23___pymethod_chirp_mass__, symObjAddr: 0xE4B0, symBinAddr: 0x18CE0, symSize: 0x488 }
  - { offset: 0x38735, size: 0x8, addend: 0x0, symName: __RNvMs3E_NtCs1NyPVrLiP35_11crystal_toe2pyNtB6_4PyGW27___pymethod_chirp_exponent__, symObjAddr: 0xE938, symBinAddr: 0x19168, symSize: 0x214 }
  - { offset: 0x3882F, size: 0x8, addend: 0x0, symName: __RNvMs3E_NtCs1NyPVrLiP35_11crystal_toe2pyNtB6_4PyGW29___pymethod_gw_polarizations__, symObjAddr: 0xEB4C, symBinAddr: 0x1937C, symSize: 0x214 }
  - { offset: 0x38929, size: 0x8, addend: 0x0, symName: __RNvMs3E_NtCs1NyPVrLiP35_11crystal_toe2pyNtB6_4PyGW31___pymethod_orbital_decay_rate__, symObjAddr: 0xED60, symBinAddr: 0x19590, symSize: 0x550 }
  - { offset: 0x38B33, size: 0x8, addend: 0x0, symName: __RNvMs3E_NtCs1NyPVrLiP35_11crystal_toe2pyNtB6_4PyGW31___pymethod_peters_coefficient__, symObjAddr: 0xF2B0, symBinAddr: 0x19AE0, symSize: 0x214 }
  - { offset: 0x38C3A, size: 0x8, addend: 0x0, symName: __RNvMs3Q_NtCs1NyPVrLiP35_11crystal_toe2pyNtB6_4PyEM12larmor_power, symObjAddr: 0xF4C4, symBinAddr: 0x19CF4, symSize: 0x28 }
  - { offset: 0x38C7B, size: 0x8, addend: 0x0, symName: __RNvMs3Q_NtCs1NyPVrLiP35_11crystal_toe2pyNtB6_4PyEM13coulomb_force, symObjAddr: 0xF4EC, symBinAddr: 0x19D1C, symSize: 0x2C }
  - { offset: 0x38CCB, size: 0x8, addend: 0x0, symName: __RNvMs3Q_NtCs1NyPVrLiP35_11crystal_toe2pyNtB6_4PyEM13em_components, symObjAddr: 0xF518, symBinAddr: 0x19D48, symSize: 0x18 }
  - { offset: 0x38CEE, size: 0x8, addend: 0x0, symName: __RNvMs3Q_NtCs1NyPVrLiP35_11crystal_toe2pyNtB6_4PyEM17maxwell_equations, symObjAddr: 0xF530, symBinAddr: 0x19D60, symSize: 0x18 }
  - { offset: 0x38D11, size: 0x8, addend: 0x0, symName: __RNvMs3Q_NtCs1NyPVrLiP35_11crystal_toe2pyNtB6_4PyEM19polarization_states, symObjAddr: 0xF548, symBinAddr: 0x19D78, symSize: 0x18 }
  - { offset: 0x38D34, size: 0x8, addend: 0x0, symName: __RNvMs3Q_NtCs1NyPVrLiP35_11crystal_toe2pyNtB6_4PyEM3new, symObjAddr: 0xF560, symBinAddr: 0x19D90, symSize: 0x4 }
  - { offset: 0x38D47, size: 0x8, addend: 0x0, symName: __RNvMs3S_NtCs1NyPVrLiP35_11crystal_toe2pyNtB6_4PyEM20___pymethod___new____, symObjAddr: 0xF564, symBinAddr: 0x19D94, symSize: 0x1A0 }
  - { offset: 0x38E91, size: 0x8, addend: 0x0, symName: __RNvMs3S_NtCs1NyPVrLiP35_11crystal_toe2pyNtB6_4PyEM25___pymethod_larmor_power__, symObjAddr: 0xF704, symBinAddr: 0x19F34, symSize: 0x488 }
  - { offset: 0x3906D, size: 0x8, addend: 0x0, symName: __RNvMs3S_NtCs1NyPVrLiP35_11crystal_toe2pyNtB6_4PyEM26___pymethod_coulomb_force__, symObjAddr: 0xFB8C, symBinAddr: 0x1A3BC, symSize: 0x550 }
  - { offset: 0x39277, size: 0x8, addend: 0x0, symName: __RNvMs3S_NtCs1NyPVrLiP35_11crystal_toe2pyNtB6_4PyEM26___pymethod_em_components__, symObjAddr: 0x100DC, symBinAddr: 0x1A90C, symSize: 0x214 }
  - { offset: 0x39371, size: 0x8, addend: 0x0, symName: __RNvMs3S_NtCs1NyPVrLiP35_11crystal_toe2pyNtB6_4PyEM30___pymethod_maxwell_equations__, symObjAddr: 0x102F0, symBinAddr: 0x1AB20, symSize: 0x214 }
  - { offset: 0x3946B, size: 0x8, addend: 0x0, symName: __RNvMs3S_NtCs1NyPVrLiP35_11crystal_toe2pyNtB6_4PyEM32___pymethod_polarization_states__, symObjAddr: 0x10504, symBinAddr: 0x1AD34, symSize: 0x214 }
  - { offset: 0x39572, size: 0x8, addend: 0x0, symName: __RNvMs3a_NtCs1NyPVrLiP35_11crystal_toe2pyNtB6_11PyClassical11spatial_dim, symObjAddr: 0x10718, symBinAddr: 0x1AF48, symSize: 0x18 }
  - { offset: 0x395B3, size: 0x8, addend: 0x0, symName: __RNvMs3a_NtCs1NyPVrLiP35_11crystal_toe2pyNtB6_11PyClassical11verlet_step, symObjAddr: 0x10730, symBinAddr: 0x1AF60, symSize: 0x30 }
  - { offset: 0x39612, size: 0x8, addend: 0x0, symName: __RNvMs3a_NtCs1NyPVrLiP35_11crystal_toe2pyNtB6_11PyClassical13kepler_period, symObjAddr: 0x10760, symBinAddr: 0x1AF90, symSize: 0x28 }
  - { offset: 0x39653, size: 0x8, addend: 0x0, symName: __RNvMs3a_NtCs1NyPVrLiP35_11crystal_toe2pyNtB6_11PyClassical14force_exponent, symObjAddr: 0x10788, symBinAddr: 0x1AFB8, symSize: 0x18 }
  - { offset: 0x39676, size: 0x8, addend: 0x0, symName: __RNvMs3a_NtCs1NyPVrLiP35_11crystal_toe2pyNtB6_11PyClassical15phase_space_dim, symObjAddr: 0x107A0, symBinAddr: 0x1AFD0, symSize: 0x18 }
  - { offset: 0x39699, size: 0x8, addend: 0x0, symName: __RNvMs3a_NtCs1NyPVrLiP35_11crystal_toe2pyNtB6_11PyClassical19gravitational_accel, symObjAddr: 0x107B8, symBinAddr: 0x1AFE8, symSize: 0x28 }
  - { offset: 0x396DA, size: 0x8, addend: 0x0, symName: __RNvMs3a_NtCs1NyPVrLiP35_11crystal_toe2pyNtB6_11PyClassical3new, symObjAddr: 0x107E0, symBinAddr: 0x1B010, symSize: 0x4 }
  - { offset: 0x396ED, size: 0x8, addend: 0x0, symName: __RNvMs3c_NtCs1NyPVrLiP35_11crystal_toe2pyNtB6_11PyClassical20___pymethod___new____, symObjAddr: 0x107E4, symBinAddr: 0x1B014, symSize: 0x1A0 }
  - { offset: 0x39837, size: 0x8, addend: 0x0, symName: __RNvMs3c_NtCs1NyPVrLiP35_11crystal_toe2pyNtB6_11PyClassical24___pymethod_spatial_dim__, symObjAddr: 0x10984, symBinAddr: 0x1B1B4, symSize: 0x214 }
  - { offset: 0x39931, size: 0x8, addend: 0x0, symName: __RNvMs3c_NtCs1NyPVrLiP35_11crystal_toe2pyNtB6_11PyClassical24___pymethod_verlet_step__, symObjAddr: 0x10B98, symBinAddr: 0x1B3C8, symSize: 0x634 }
  - { offset: 0x39B69, size: 0x8, addend: 0x0, symName: __RNvMs3c_NtCs1NyPVrLiP35_11crystal_toe2pyNtB6_11PyClassical26___pymethod_kepler_period__, symObjAddr: 0x111CC, symBinAddr: 0x1B9FC, symSize: 0x488 }
  - { offset: 0x39D45, size: 0x8, addend: 0x0, symName: __RNvMs3c_NtCs1NyPVrLiP35_11crystal_toe2pyNtB6_11PyClassical27___pymethod_force_exponent__, symObjAddr: 0x11654, symBinAddr: 0x1BE84, symSize: 0x214 }
  - { offset: 0x39E3F, size: 0x8, addend: 0x0, symName: __RNvMs3c_NtCs1NyPVrLiP35_11crystal_toe2pyNtB6_11PyClassical28___pymethod_phase_space_dim__, symObjAddr: 0x11868, symBinAddr: 0x1C098, symSize: 0x214 }
  - { offset: 0x39F39, size: 0x8, addend: 0x0, symName: __RNvMs3c_NtCs1NyPVrLiP35_11crystal_toe2pyNtB6_11PyClassical32___pymethod_gravitational_accel__, symObjAddr: 0x11A7C, symBinAddr: 0x1C2AC, symSize: 0x488 }
  - { offset: 0x3A122, size: 0x8, addend: 0x0, symName: __RNvMs3o_NtCs1NyPVrLiP35_11crystal_toe2pyNtB6_4PyGR11isco_factor, symObjAddr: 0x11F04, symBinAddr: 0x1C734, symSize: 0x18 }
  - { offset: 0x3A145, size: 0x8, addend: 0x0, symName: __RNvMs3o_NtCs1NyPVrLiP35_11crystal_toe2pyNtB6_4PyGR13photon_sphere, symObjAddr: 0x11F1C, symBinAddr: 0x1C74C, symSize: 0x18 }
  - { offset: 0x3A168, size: 0x8, addend: 0x0, symName: __RNvMs3o_NtCs1NyPVrLiP35_11crystal_toe2pyNtB6_4PyGR14bending_factor, symObjAddr: 0x11F34, symBinAddr: 0x1C764, symSize: 0x18 }
  - { offset: 0x3A18B, size: 0x8, addend: 0x0, symName: __RNvMs3o_NtCs1NyPVrLiP35_11crystal_toe2pyNtB6_4PyGR16light_deflection, symObjAddr: 0x11F4C, symBinAddr: 0x1C77C, symSize: 0x28 }
  - { offset: 0x3A1CC, size: 0x8, addend: 0x0, symName: __RNvMs3o_NtCs1NyPVrLiP35_11crystal_toe2pyNtB6_4PyGR17precession_factor, symObjAddr: 0x11F74, symBinAddr: 0x1C7A4, symSize: 0x18 }
  - { offset: 0x3A1EF, size: 0x8, addend: 0x0, symName: __RNvMs3o_NtCs1NyPVrLiP35_11crystal_toe2pyNtB6_4PyGR20schwarzschild_metric, symObjAddr: 0x11F8C, symBinAddr: 0x1C7BC, symSize: 0x28 }
  - { offset: 0x3A230, size: 0x8, addend: 0x0, symName: __RNvMs3o_NtCs1NyPVrLiP35_11crystal_toe2pyNtB6_4PyGR21perihelion_precession, symObjAddr: 0x11FB4, symBinAddr: 0x1C7E4, symSize: 0x2C }
  - { offset: 0x3A280, size: 0x8, addend: 0x0, symName: __RNvMs3o_NtCs1NyPVrLiP35_11crystal_toe2pyNtB6_4PyGR22gravitational_redshift, symObjAddr: 0x11FE0, symBinAddr: 0x1C810, symSize: 0x28 }
  - { offset: 0x3A2C1, size: 0x8, addend: 0x0, symName: __RNvMs3o_NtCs1NyPVrLiP35_11crystal_toe2pyNtB6_4PyGR3new, symObjAddr: 0x12008, symBinAddr: 0x1C838, symSize: 0x4 }
  - { offset: 0x3A2D4, size: 0x8, addend: 0x0, symName: __RNvMs3q_NtCs1NyPVrLiP35_11crystal_toe2pyNtB6_4PyGR20___pymethod___new____, symObjAddr: 0x1200C, symBinAddr: 0x1C83C, symSize: 0x1A0 }
  - { offset: 0x3A41E, size: 0x8, addend: 0x0, symName: __RNvMs3q_NtCs1NyPVrLiP35_11crystal_toe2pyNtB6_4PyGR24___pymethod_isco_factor__, symObjAddr: 0x121AC, symBinAddr: 0x1C9DC, symSize: 0x214 }
  - { offset: 0x3A518, size: 0x8, addend: 0x0, symName: __RNvMs3q_NtCs1NyPVrLiP35_11crystal_toe2pyNtB6_4PyGR26___pymethod_photon_sphere__, symObjAddr: 0x123C0, symBinAddr: 0x1CBF0, symSize: 0x214 }
  - { offset: 0x3A612, size: 0x8, addend: 0x0, symName: __RNvMs3q_NtCs1NyPVrLiP35_11crystal_toe2pyNtB6_4PyGR27___pymethod_bending_factor__, symObjAddr: 0x125D4, symBinAddr: 0x1CE04, symSize: 0x214 }
  - { offset: 0x3A70C, size: 0x8, addend: 0x0, symName: __RNvMs3q_NtCs1NyPVrLiP35_11crystal_toe2pyNtB6_4PyGR29___pymethod_light_deflection__, symObjAddr: 0x127E8, symBinAddr: 0x1D018, symSize: 0x488 }
  - { offset: 0x3A8E8, size: 0x8, addend: 0x0, symName: __RNvMs3q_NtCs1NyPVrLiP35_11crystal_toe2pyNtB6_4PyGR30___pymethod_precession_factor__, symObjAddr: 0x12C70, symBinAddr: 0x1D4A0, symSize: 0x214 }
  - { offset: 0x3A9E2, size: 0x8, addend: 0x0, symName: __RNvMs3q_NtCs1NyPVrLiP35_11crystal_toe2pyNtB6_4PyGR33___pymethod_schwarzschild_metric__, symObjAddr: 0x12E84, symBinAddr: 0x1D6B4, symSize: 0x488 }
  - { offset: 0x3ABBE, size: 0x8, addend: 0x0, symName: __RNvMs3q_NtCs1NyPVrLiP35_11crystal_toe2pyNtB6_4PyGR34___pymethod_perihelion_precession__, symObjAddr: 0x1330C, symBinAddr: 0x1DB3C, symSize: 0x550 }
  - { offset: 0x3ADC8, size: 0x8, addend: 0x0, symName: __RNvMs3q_NtCs1NyPVrLiP35_11crystal_toe2pyNtB6_4PyGR35___pymethod_gravitational_redshift__, symObjAddr: 0x1385C, symBinAddr: 0x1E08C, symSize: 0x488 }
  - { offset: 0x3AFB1, size: 0x8, addend: 0x0, symName: __RNvMs44_NtCs1NyPVrLiP35_11crystal_toe2pyNtB6_11PyFriedmann12omega_baryon, symObjAddr: 0x13CE4, symBinAddr: 0x1E514, symSize: 0x20 }
  - { offset: 0x3AFD4, size: 0x8, addend: 0x0, symName: __RNvMs44_NtCs1NyPVrLiP35_11crystal_toe2pyNtB6_11PyFriedmann12omega_lambda, symObjAddr: 0x13D04, symBinAddr: 0x1E534, symSize: 0x20 }
  - { offset: 0x3AFF7, size: 0x8, addend: 0x0, symName: __RNvMs44_NtCs1NyPVrLiP35_11crystal_toe2pyNtB6_11PyFriedmann12omega_matter, symObjAddr: 0x13D24, symBinAddr: 0x1E554, symSize: 0x20 }
  - { offset: 0x3B01A, size: 0x8, addend: 0x0, symName: __RNvMs44_NtCs1NyPVrLiP35_11crystal_toe2pyNtB6_11PyFriedmann16hubble_parameter, symObjAddr: 0x13D44, symBinAddr: 0x1E574, symSize: 0x24 }
  - { offset: 0x3B04C, size: 0x8, addend: 0x0, symName: __RNvMs44_NtCs1NyPVrLiP35_11crystal_toe2pyNtB6_11PyFriedmann22deceleration_parameter, symObjAddr: 0x13D68, symBinAddr: 0x1E598, symSize: 0x20 }
  - { offset: 0x3B06F, size: 0x8, addend: 0x0, symName: __RNvMs44_NtCs1NyPVrLiP35_11crystal_toe2pyNtB6_11PyFriedmann3new, symObjAddr: 0x13D88, symBinAddr: 0x1E5B8, symSize: 0x4 }
  - { offset: 0x3B082, size: 0x8, addend: 0x0, symName: __RNvMs46_NtCs1NyPVrLiP35_11crystal_toe2pyNtB6_11PyFriedmann20___pymethod___new____, symObjAddr: 0x13D8C, symBinAddr: 0x1E5BC, symSize: 0x1A0 }
  - { offset: 0x3B1CC, size: 0x8, addend: 0x0, symName: __RNvMs46_NtCs1NyPVrLiP35_11crystal_toe2pyNtB6_11PyFriedmann25___pymethod_omega_baryon__, symObjAddr: 0x13F2C, symBinAddr: 0x1E75C, symSize: 0x214 }
  - { offset: 0x3B2C6, size: 0x8, addend: 0x0, symName: __RNvMs46_NtCs1NyPVrLiP35_11crystal_toe2pyNtB6_11PyFriedmann25___pymethod_omega_lambda__, symObjAddr: 0x14140, symBinAddr: 0x1E970, symSize: 0x214 }
  - { offset: 0x3B3C0, size: 0x8, addend: 0x0, symName: __RNvMs46_NtCs1NyPVrLiP35_11crystal_toe2pyNtB6_11PyFriedmann25___pymethod_omega_matter__, symObjAddr: 0x14354, symBinAddr: 0x1EB84, symSize: 0x214 }
  - { offset: 0x3B4BA, size: 0x8, addend: 0x0, symName: __RNvMs46_NtCs1NyPVrLiP35_11crystal_toe2pyNtB6_11PyFriedmann29___pymethod_hubble_parameter__, symObjAddr: 0x14568, symBinAddr: 0x1ED98, symSize: 0x378 }
  - { offset: 0x3B668, size: 0x8, addend: 0x0, symName: __RNvMs46_NtCs1NyPVrLiP35_11crystal_toe2pyNtB6_11PyFriedmann35___pymethod_deceleration_parameter__, symObjAddr: 0x148E0, symBinAddr: 0x1F110, symSize: 0x214 }
  - { offset: 0x3B76F, size: 0x8, addend: 0x0, symName: __RNvMs4K_NtCs1NyPVrLiP35_11crystal_toe2pyNtB6_5PyCFD11stokes_drag, symObjAddr: 0x14AF4, symBinAddr: 0x1F324, symSize: 0x18 }
  - { offset: 0x3B792, size: 0x8, addend: 0x0, symName: __RNvMs4K_NtCs1NyPVrLiP35_11crystal_toe2pyNtB6_5PyCFD15d2q9_velocities, symObjAddr: 0x14B0C, symBinAddr: 0x1F33C, symSize: 0x18 }
  - { offset: 0x3B7B5, size: 0x8, addend: 0x0, symName: __RNvMs4K_NtCs1NyPVrLiP35_11crystal_toe2pyNtB6_5PyCFD15reynolds_number, symObjAddr: 0x14B24, symBinAddr: 0x1F354, symSize: 0x30 }
  - { offset: 0x3B814, size: 0x8, addend: 0x0, symName: __RNvMs4K_NtCs1NyPVrLiP35_11crystal_toe2pyNtB6_5PyCFD19kolmogorov_spectrum, symObjAddr: 0x14B54, symBinAddr: 0x1F384, symSize: 0x28 }
  - { offset: 0x3B855, size: 0x8, addend: 0x0, symName: __RNvMs4K_NtCs1NyPVrLiP35_11crystal_toe2pyNtB6_5PyCFD3new, symObjAddr: 0x14B7C, symBinAddr: 0x1F3AC, symSize: 0x4 }
  - { offset: 0x3B868, size: 0x8, addend: 0x0, symName: __RNvMs4M_NtCs1NyPVrLiP35_11crystal_toe2pyNtB6_5PyCFD20___pymethod___new____, symObjAddr: 0x14B80, symBinAddr: 0x1F3B0, symSize: 0x1A0 }
  - { offset: 0x3B9B2, size: 0x8, addend: 0x0, symName: __RNvMs4M_NtCs1NyPVrLiP35_11crystal_toe2pyNtB6_5PyCFD24___pymethod_stokes_drag__, symObjAddr: 0x14D20, symBinAddr: 0x1F550, symSize: 0x214 }
  - { offset: 0x3BAAC, size: 0x8, addend: 0x0, symName: __RNvMs4M_NtCs1NyPVrLiP35_11crystal_toe2pyNtB6_5PyCFD28___pymethod_d2q9_velocities__, symObjAddr: 0x14F34, symBinAddr: 0x1F764, symSize: 0x214 }
  - { offset: 0x3BBA6, size: 0x8, addend: 0x0, symName: __RNvMs4M_NtCs1NyPVrLiP35_11crystal_toe2pyNtB6_5PyCFD28___pymethod_reynolds_number__, symObjAddr: 0x15148, symBinAddr: 0x1F978, symSize: 0x618 }
  - { offset: 0x3BDDE, size: 0x8, addend: 0x0, symName: __RNvMs4M_NtCs1NyPVrLiP35_11crystal_toe2pyNtB6_5PyCFD32___pymethod_kolmogorov_spectrum__, symObjAddr: 0x15760, symBinAddr: 0x1FF90, symSize: 0x488 }
  - { offset: 0x3BFC7, size: 0x8, addend: 0x0, symName: __RNvMs4Y_NtCs1NyPVrLiP35_11crystal_toe2pyNtB6_7PyDecay11beta_factor, symObjAddr: 0x15BE8, symBinAddr: 0x20418, symSize: 0x18 }
  - { offset: 0x3BFEA, size: 0x8, addend: 0x0, symName: __RNvMs4Y_NtCs1NyPVrLiP35_11crystal_toe2pyNtB6_7PyDecay15beta_decay_rate, symObjAddr: 0x15C00, symBinAddr: 0x20430, symSize: 0x28 }
  - { offset: 0x3C02B, size: 0x8, addend: 0x0, symName: __RNvMs4Y_NtCs1NyPVrLiP35_11crystal_toe2pyNtB6_7PyDecay17fermi_golden_rule, symObjAddr: 0x15C28, symBinAddr: 0x20458, symSize: 0x28 }
  - { offset: 0x3C06C, size: 0x8, addend: 0x0, symName: __RNvMs4Y_NtCs1NyPVrLiP35_11crystal_toe2pyNtB6_7PyDecay3new, symObjAddr: 0x15C50, symBinAddr: 0x20480, symSize: 0x4 }
  - { offset: 0x3C08C, size: 0x8, addend: 0x0, symName: __RNvMs4i_NtCs1NyPVrLiP35_11crystal_toe2pyNtB6_7PyNBody15octree_children, symObjAddr: 0x15C54, symBinAddr: 0x20484, symSize: 0x18 }
  - { offset: 0x3C0AF, size: 0x8, addend: 0x0, symName: __RNvMs4i_NtCs1NyPVrLiP35_11crystal_toe2pyNtB6_7PyNBody16should_open_node, symObjAddr: 0x15C6C, symBinAddr: 0x2049C, symSize: 0x28 }
  - { offset: 0x3C0F0, size: 0x8, addend: 0x0, symName: __RNvMs4i_NtCs1NyPVrLiP35_11crystal_toe2pyNtB6_7PyNBody3new, symObjAddr: 0x15C94, symBinAddr: 0x204C4, symSize: 0x4 }
  - { offset: 0x3C103, size: 0x8, addend: 0x0, symName: __RNvMs4k_NtCs1NyPVrLiP35_11crystal_toe2pyNtB6_7PyNBody20___pymethod___new____, symObjAddr: 0x15C98, symBinAddr: 0x204C8, symSize: 0x1A0 }
  - { offset: 0x3C24D, size: 0x8, addend: 0x0, symName: __RNvMs4k_NtCs1NyPVrLiP35_11crystal_toe2pyNtB6_7PyNBody28___pymethod_octree_children__, symObjAddr: 0x15E38, symBinAddr: 0x20668, symSize: 0x214 }
  - { offset: 0x3C347, size: 0x8, addend: 0x0, symName: __RNvMs4k_NtCs1NyPVrLiP35_11crystal_toe2pyNtB6_7PyNBody29___pymethod_should_open_node__, symObjAddr: 0x1604C, symBinAddr: 0x2087C, symSize: 0x48C }
  - { offset: 0x3C530, size: 0x8, addend: 0x0, symName: __RNvMs4w_NtCs1NyPVrLiP35_11crystal_toe2pyNtB6_8PyThermo10lj_attract, symObjAddr: 0x164D8, symBinAddr: 0x20D08, symSize: 0x18 }
  - { offset: 0x3C553, size: 0x8, addend: 0x0, symName: __RNvMs4w_NtCs1NyPVrLiP35_11crystal_toe2pyNtB6_8PyThermo12lj_potential, symObjAddr: 0x164F0, symBinAddr: 0x20D20, symSize: 0x2C }
  - { offset: 0x3C5A3, size: 0x8, addend: 0x0, symName: __RNvMs4w_NtCs1NyPVrLiP35_11crystal_toe2pyNtB6_8PyThermo17maxwell_speed_rms, symObjAddr: 0x1651C, symBinAddr: 0x20D4C, symSize: 0x28 }
  - { offset: 0x3C5E4, size: 0x8, addend: 0x0, symName: __RNvMs4w_NtCs1NyPVrLiP35_11crystal_toe2pyNtB6_8PyThermo20equipartition_energy, symObjAddr: 0x16544, symBinAddr: 0x20D74, symSize: 0x30 }
  - { offset: 0x3C625, size: 0x8, addend: 0x0, symName: __RNvMs4w_NtCs1NyPVrLiP35_11crystal_toe2pyNtB6_8PyThermo3new, symObjAddr: 0x16574, symBinAddr: 0x20DA4, symSize: 0x4 }
  - { offset: 0x3C638, size: 0x8, addend: 0x0, symName: __RNvMs4w_NtCs1NyPVrLiP35_11crystal_toe2pyNtB6_8PyThermo8lj_repel, symObjAddr: 0x16578, symBinAddr: 0x20DA8, symSize: 0x18 }
  - { offset: 0x3C65B, size: 0x8, addend: 0x0, symName: __RNvMs4y_NtCs1NyPVrLiP35_11crystal_toe2pyNtB6_8PyThermo20___pymethod___new____, symObjAddr: 0x16590, symBinAddr: 0x20DC0, symSize: 0x1A0 }
  - { offset: 0x3C7A5, size: 0x8, addend: 0x0, symName: __RNvMs4y_NtCs1NyPVrLiP35_11crystal_toe2pyNtB6_8PyThermo21___pymethod_lj_repel__, symObjAddr: 0x16730, symBinAddr: 0x20F60, symSize: 0x214 }
  - { offset: 0x3C89F, size: 0x8, addend: 0x0, symName: __RNvMs4y_NtCs1NyPVrLiP35_11crystal_toe2pyNtB6_8PyThermo23___pymethod_lj_attract__, symObjAddr: 0x16944, symBinAddr: 0x21174, symSize: 0x214 }
  - { offset: 0x3C999, size: 0x8, addend: 0x0, symName: __RNvMs4y_NtCs1NyPVrLiP35_11crystal_toe2pyNtB6_8PyThermo25___pymethod_lj_potential__, symObjAddr: 0x16B58, symBinAddr: 0x21388, symSize: 0x550 }
  - { offset: 0x3CBA3, size: 0x8, addend: 0x0, symName: __RNvMs4y_NtCs1NyPVrLiP35_11crystal_toe2pyNtB6_8PyThermo30___pymethod_maxwell_speed_rms__, symObjAddr: 0x170A8, symBinAddr: 0x218D8, symSize: 0x488 }
  - { offset: 0x3CD7F, size: 0x8, addend: 0x0, symName: __RNvMs4y_NtCs1NyPVrLiP35_11crystal_toe2pyNtB6_8PyThermo33___pymethod_equipartition_energy__, symObjAddr: 0x17530, symBinAddr: 0x21D60, symSize: 0x488 }
  - { offset: 0x3CF5B, size: 0x8, addend: 0x0, symName: __RNvMs50_NtCs1NyPVrLiP35_11crystal_toe2pyNtB6_7PyDecay20___pymethod___new____, symObjAddr: 0x179B8, symBinAddr: 0x221E8, symSize: 0x1A0 }
  - { offset: 0x3D0A5, size: 0x8, addend: 0x0, symName: __RNvMs50_NtCs1NyPVrLiP35_11crystal_toe2pyNtB6_7PyDecay24___pymethod_beta_factor__, symObjAddr: 0x17B58, symBinAddr: 0x22388, symSize: 0x214 }
  - { offset: 0x3D19F, size: 0x8, addend: 0x0, symName: __RNvMs50_NtCs1NyPVrLiP35_11crystal_toe2pyNtB6_7PyDecay28___pymethod_beta_decay_rate__, symObjAddr: 0x17D6C, symBinAddr: 0x2259C, symSize: 0x488 }
  - { offset: 0x3D37B, size: 0x8, addend: 0x0, symName: __RNvMs50_NtCs1NyPVrLiP35_11crystal_toe2pyNtB6_7PyDecay30___pymethod_fermi_golden_rule__, symObjAddr: 0x181F4, symBinAddr: 0x22A24, symSize: 0x488 }
  - { offset: 0x3D564, size: 0x8, addend: 0x0, symName: __RNvMs5E_NtCs1NyPVrLiP35_11crystal_toe2pyNtB6_11PyCondensed10onsager_tc, symObjAddr: 0x1867C, symBinAddr: 0x22EAC, symSize: 0x20 }
  - { offset: 0x3D587, size: 0x8, addend: 0x0, symName: __RNvMs5E_NtCs1NyPVrLiP35_11crystal_toe2pyNtB6_11PyCondensed13bcs_gap_ratio, symObjAddr: 0x1869C, symBinAddr: 0x22ECC, symSize: 0x20 }
  - { offset: 0x3D5AA, size: 0x8, addend: 0x0, symName: __RNvMs5E_NtCs1NyPVrLiP35_11crystal_toe2pyNtB6_11PyCondensed14ising_z_square, symObjAddr: 0x186BC, symBinAddr: 0x22EEC, symSize: 0x18 }
  - { offset: 0x3D5CD, size: 0x8, addend: 0x0, symName: __RNvMs5E_NtCs1NyPVrLiP35_11crystal_toe2pyNtB6_11PyCondensed19ising_magnetization, symObjAddr: 0x186D4, symBinAddr: 0x22F04, symSize: 0x24 }
  - { offset: 0x3D5FF, size: 0x8, addend: 0x0, symName: __RNvMs5E_NtCs1NyPVrLiP35_11crystal_toe2pyNtB6_11PyCondensed3new, symObjAddr: 0x186F8, symBinAddr: 0x22F28, symSize: 0x4 }
  - { offset: 0x3D612, size: 0x8, addend: 0x0, symName: __RNvMs5G_NtCs1NyPVrLiP35_11crystal_toe2pyNtB6_11PyCondensed20___pymethod___new____, symObjAddr: 0x186FC, symBinAddr: 0x22F2C, symSize: 0x1A0 }
  - { offset: 0x3D75C, size: 0x8, addend: 0x0, symName: __RNvMs5G_NtCs1NyPVrLiP35_11crystal_toe2pyNtB6_11PyCondensed23___pymethod_onsager_tc__, symObjAddr: 0x1889C, symBinAddr: 0x230CC, symSize: 0x214 }
  - { offset: 0x3D856, size: 0x8, addend: 0x0, symName: __RNvMs5G_NtCs1NyPVrLiP35_11crystal_toe2pyNtB6_11PyCondensed26___pymethod_bcs_gap_ratio__, symObjAddr: 0x18AB0, symBinAddr: 0x232E0, symSize: 0x214 }
  - { offset: 0x3D950, size: 0x8, addend: 0x0, symName: __RNvMs5G_NtCs1NyPVrLiP35_11crystal_toe2pyNtB6_11PyCondensed27___pymethod_ising_z_square__, symObjAddr: 0x18CC4, symBinAddr: 0x234F4, symSize: 0x214 }
  - { offset: 0x3DA4A, size: 0x8, addend: 0x0, symName: __RNvMs5G_NtCs1NyPVrLiP35_11crystal_toe2pyNtB6_11PyCondensed32___pymethod_ising_magnetization__, symObjAddr: 0x18ED8, symBinAddr: 0x23708, symSize: 0x378 }
  - { offset: 0x3DC05, size: 0x8, addend: 0x0, symName: __RNvMs5S_NtCs1NyPVrLiP35_11crystal_toe2pyNtB6_8PyPlasma10mhd_states, symObjAddr: 0x19250, symBinAddr: 0x23A80, symSize: 0x18 }
  - { offset: 0x3DC28, size: 0x8, addend: 0x0, symName: __RNvMs5S_NtCs1NyPVrLiP35_11crystal_toe2pyNtB6_8PyPlasma10wave_types, symObjAddr: 0x19268, symBinAddr: 0x23A98, symSize: 0x18 }
  - { offset: 0x3DC4B, size: 0x8, addend: 0x0, symName: __RNvMs5S_NtCs1NyPVrLiP35_11crystal_toe2pyNtB6_8PyPlasma11plasma_beta, symObjAddr: 0x19280, symBinAddr: 0x23AB0, symSize: 0x28 }
  - { offset: 0x3DC8C, size: 0x8, addend: 0x0, symName: __RNvMs5S_NtCs1NyPVrLiP35_11crystal_toe2pyNtB6_8PyPlasma12alfven_speed, symObjAddr: 0x192A8, symBinAddr: 0x23AD8, symSize: 0x28 }
  - { offset: 0x3DCCD, size: 0x8, addend: 0x0, symName: __RNvMs5S_NtCs1NyPVrLiP35_11crystal_toe2pyNtB6_8PyPlasma12debye_length, symObjAddr: 0x192D0, symBinAddr: 0x23B00, symSize: 0x2C }
  - { offset: 0x3DD1D, size: 0x8, addend: 0x0, symName: __RNvMs5S_NtCs1NyPVrLiP35_11crystal_toe2pyNtB6_8PyPlasma17propagating_modes, symObjAddr: 0x192FC, symBinAddr: 0x23B2C, symSize: 0x18 }
  - { offset: 0x3DD40, size: 0x8, addend: 0x0, symName: __RNvMs5S_NtCs1NyPVrLiP35_11crystal_toe2pyNtB6_8PyPlasma19cyclotron_frequency, symObjAddr: 0x19314, symBinAddr: 0x23B44, symSize: 0x2C }
  - { offset: 0x3DD90, size: 0x8, addend: 0x0, symName: __RNvMs5S_NtCs1NyPVrLiP35_11crystal_toe2pyNtB6_8PyPlasma3new, symObjAddr: 0x19340, symBinAddr: 0x23B70, symSize: 0x4 }
  - { offset: 0x3DDA3, size: 0x8, addend: 0x0, symName: __RNvMs5U_NtCs1NyPVrLiP35_11crystal_toe2pyNtB6_8PyPlasma20___pymethod___new____, symObjAddr: 0x19344, symBinAddr: 0x23B74, symSize: 0x1A0 }
  - { offset: 0x3DEED, size: 0x8, addend: 0x0, symName: __RNvMs5U_NtCs1NyPVrLiP35_11crystal_toe2pyNtB6_8PyPlasma23___pymethod_mhd_states__, symObjAddr: 0x194E4, symBinAddr: 0x23D14, symSize: 0x214 }
  - { offset: 0x3DFE7, size: 0x8, addend: 0x0, symName: __RNvMs5U_NtCs1NyPVrLiP35_11crystal_toe2pyNtB6_8PyPlasma23___pymethod_wave_types__, symObjAddr: 0x196F8, symBinAddr: 0x23F28, symSize: 0x214 }
  - { offset: 0x3E0E1, size: 0x8, addend: 0x0, symName: __RNvMs5U_NtCs1NyPVrLiP35_11crystal_toe2pyNtB6_8PyPlasma24___pymethod_plasma_beta__, symObjAddr: 0x1990C, symBinAddr: 0x2413C, symSize: 0x488 }
  - { offset: 0x3E2BD, size: 0x8, addend: 0x0, symName: __RNvMs5U_NtCs1NyPVrLiP35_11crystal_toe2pyNtB6_8PyPlasma25___pymethod_alfven_speed__, symObjAddr: 0x19D94, symBinAddr: 0x245C4, symSize: 0x488 }
  - { offset: 0x3E499, size: 0x8, addend: 0x0, symName: __RNvMs5U_NtCs1NyPVrLiP35_11crystal_toe2pyNtB6_8PyPlasma25___pymethod_debye_length__, symObjAddr: 0x1A21C, symBinAddr: 0x24A4C, symSize: 0x550 }
  - { offset: 0x3E6A3, size: 0x8, addend: 0x0, symName: __RNvMs5U_NtCs1NyPVrLiP35_11crystal_toe2pyNtB6_8PyPlasma30___pymethod_propagating_modes__, symObjAddr: 0x1A76C, symBinAddr: 0x24F9C, symSize: 0x214 }
  - { offset: 0x3E79D, size: 0x8, addend: 0x0, symName: __RNvMs5U_NtCs1NyPVrLiP35_11crystal_toe2pyNtB6_8PyPlasma32___pymethod_cyclotron_frequency__, symObjAddr: 0x1A980, symBinAddr: 0x251B0, symSize: 0x550 }
  - { offset: 0x3E9B4, size: 0x8, addend: 0x0, symName: __RNvMs5c_NtCs1NyPVrLiP35_11crystal_toe2pyNtB6_8PyOptics14brewster_angle, symObjAddr: 0x1AED0, symBinAddr: 0x25700, symSize: 0x28 }
  - { offset: 0x3E9F5, size: 0x8, addend: 0x0, symName: __RNvMs5c_NtCs1NyPVrLiP35_11crystal_toe2pyNtB6_8PyOptics17planck_lambda_exp, symObjAddr: 0x1AEF8, symBinAddr: 0x25728, symSize: 0x18 }
  - { offset: 0x3EA18, size: 0x8, addend: 0x0, symName: __RNvMs5c_NtCs1NyPVrLiP35_11crystal_toe2pyNtB6_8PyOptics19rayleigh_lambda_exp, symObjAddr: 0x1AF10, symBinAddr: 0x25740, symSize: 0x18 }
  - { offset: 0x3EA3B, size: 0x8, addend: 0x0, symName: __RNvMs5c_NtCs1NyPVrLiP35_11crystal_toe2pyNtB6_8PyOptics3new, symObjAddr: 0x1AF28, symBinAddr: 0x25758, symSize: 0x4 }
  - { offset: 0x3EA4E, size: 0x8, addend: 0x0, symName: __RNvMs5c_NtCs1NyPVrLiP35_11crystal_toe2pyNtB6_8PyOptics5snell, symObjAddr: 0x1AF2C, symBinAddr: 0x2575C, symSize: 0x2C }
  - { offset: 0x3EA9E, size: 0x8, addend: 0x0, symName: __RNvMs5c_NtCs1NyPVrLiP35_11crystal_toe2pyNtB6_8PyOptics7n_glass, symObjAddr: 0x1AF58, symBinAddr: 0x25788, symSize: 0x20 }
  - { offset: 0x3EAC1, size: 0x8, addend: 0x0, symName: __RNvMs5c_NtCs1NyPVrLiP35_11crystal_toe2pyNtB6_8PyOptics7n_water, symObjAddr: 0x1AF78, symBinAddr: 0x257A8, symSize: 0x20 }
  - { offset: 0x3EAE4, size: 0x8, addend: 0x0, symName: __RNvMs5c_NtCs1NyPVrLiP35_11crystal_toe2pyNtB6_8PyOptics9n_diamond, symObjAddr: 0x1AF98, symBinAddr: 0x257C8, symSize: 0x20 }
  - { offset: 0x3EB07, size: 0x8, addend: 0x0, symName: __RNvMs5e_NtCs1NyPVrLiP35_11crystal_toe2pyNtB6_8PyOptics18___pymethod_snell__, symObjAddr: 0x1AFB8, symBinAddr: 0x257E8, symSize: 0x550 }
  - { offset: 0x3ED11, size: 0x8, addend: 0x0, symName: __RNvMs5e_NtCs1NyPVrLiP35_11crystal_toe2pyNtB6_8PyOptics20___pymethod___new____, symObjAddr: 0x1B508, symBinAddr: 0x25D38, symSize: 0x1A0 }
  - { offset: 0x3EE5B, size: 0x8, addend: 0x0, symName: __RNvMs5e_NtCs1NyPVrLiP35_11crystal_toe2pyNtB6_8PyOptics20___pymethod_n_glass__, symObjAddr: 0x1B6A8, symBinAddr: 0x25ED8, symSize: 0x214 }
  - { offset: 0x3EF55, size: 0x8, addend: 0x0, symName: __RNvMs5e_NtCs1NyPVrLiP35_11crystal_toe2pyNtB6_8PyOptics20___pymethod_n_water__, symObjAddr: 0x1B8BC, symBinAddr: 0x260EC, symSize: 0x214 }
  - { offset: 0x3F04F, size: 0x8, addend: 0x0, symName: __RNvMs5e_NtCs1NyPVrLiP35_11crystal_toe2pyNtB6_8PyOptics22___pymethod_n_diamond__, symObjAddr: 0x1BAD0, symBinAddr: 0x26300, symSize: 0x214 }
  - { offset: 0x3F149, size: 0x8, addend: 0x0, symName: __RNvMs5e_NtCs1NyPVrLiP35_11crystal_toe2pyNtB6_8PyOptics27___pymethod_brewster_angle__, symObjAddr: 0x1BCE4, symBinAddr: 0x26514, symSize: 0x488 }
  - { offset: 0x3F325, size: 0x8, addend: 0x0, symName: __RNvMs5e_NtCs1NyPVrLiP35_11crystal_toe2pyNtB6_8PyOptics30___pymethod_planck_lambda_exp__, symObjAddr: 0x1C16C, symBinAddr: 0x2699C, symSize: 0x214 }
  - { offset: 0x3F41F, size: 0x8, addend: 0x0, symName: __RNvMs5e_NtCs1NyPVrLiP35_11crystal_toe2pyNtB6_8PyOptics32___pymethod_rayleigh_lambda_exp__, symObjAddr: 0x1C380, symBinAddr: 0x26BB0, symSize: 0x214 }
  - { offset: 0x3F526, size: 0x8, addend: 0x0, symName: __RNvMs5q_NtCs1NyPVrLiP35_11crystal_toe2pyNtB6_4PyMD11amino_acids, symObjAddr: 0x1C594, symBinAddr: 0x26DC4, symSize: 0x18 }
  - { offset: 0x3F549, size: 0x8, addend: 0x0, symName: __RNvMs5q_NtCs1NyPVrLiP35_11crystal_toe2pyNtB6_4PyMD14helix_per_turn, symObjAddr: 0x1C5AC, symBinAddr: 0x26DDC, symSize: 0x20 }
  - { offset: 0x3F56C, size: 0x8, addend: 0x0, symName: __RNvMs5q_NtCs1NyPVrLiP35_11crystal_toe2pyNtB6_4PyMD15water_angle_deg, symObjAddr: 0x1C5CC, symBinAddr: 0x26DFC, symSize: 0x24 }
  - { offset: 0x3F58F, size: 0x8, addend: 0x0, symName: __RNvMs5q_NtCs1NyPVrLiP35_11crystal_toe2pyNtB6_4PyMD21tetrahedral_angle_deg, symObjAddr: 0x1C5F0, symBinAddr: 0x26E20, symSize: 0x24 }
  - { offset: 0x3F5B2, size: 0x8, addend: 0x0, symName: __RNvMs5q_NtCs1NyPVrLiP35_11crystal_toe2pyNtB6_4PyMD3new, symObjAddr: 0x1C614, symBinAddr: 0x26E44, symSize: 0x4 }
  - { offset: 0x3F5C5, size: 0x8, addend: 0x0, symName: __RNvMs5q_NtCs1NyPVrLiP35_11crystal_toe2pyNtB6_4PyMD8flory_nu, symObjAddr: 0x1C618, symBinAddr: 0x26E48, symSize: 0x20 }
  - { offset: 0x3F5E8, size: 0x8, addend: 0x0, symName: __RNvMs5q_NtCs1NyPVrLiP35_11crystal_toe2pyNtB6_4PyMD8lj_force, symObjAddr: 0x1C638, symBinAddr: 0x26E68, symSize: 0x2C }
  - { offset: 0x3F638, size: 0x8, addend: 0x0, symName: __RNvMs5q_NtCs1NyPVrLiP35_11crystal_toe2pyNtB6_4PyMD9dna_bases, symObjAddr: 0x1C664, symBinAddr: 0x26E94, symSize: 0x18 }
  - { offset: 0x3F65B, size: 0x8, addend: 0x0, symName: __RNvMs5s_NtCs1NyPVrLiP35_11crystal_toe2pyNtB6_4PyMD20___pymethod___new____, symObjAddr: 0x1C67C, symBinAddr: 0x26EAC, symSize: 0x1A0 }
  - { offset: 0x3F7A5, size: 0x8, addend: 0x0, symName: __RNvMs5s_NtCs1NyPVrLiP35_11crystal_toe2pyNtB6_4PyMD21___pymethod_flory_nu__, symObjAddr: 0x1C81C, symBinAddr: 0x2704C, symSize: 0x214 }
  - { offset: 0x3F89F, size: 0x8, addend: 0x0, symName: __RNvMs5s_NtCs1NyPVrLiP35_11crystal_toe2pyNtB6_4PyMD21___pymethod_lj_force__, symObjAddr: 0x1CA30, symBinAddr: 0x27260, symSize: 0x550 }
  - { offset: 0x3FAA9, size: 0x8, addend: 0x0, symName: __RNvMs5s_NtCs1NyPVrLiP35_11crystal_toe2pyNtB6_4PyMD22___pymethod_dna_bases__, symObjAddr: 0x1CF80, symBinAddr: 0x277B0, symSize: 0x214 }
  - { offset: 0x3FBA3, size: 0x8, addend: 0x0, symName: __RNvMs5s_NtCs1NyPVrLiP35_11crystal_toe2pyNtB6_4PyMD24___pymethod_amino_acids__, symObjAddr: 0x1D194, symBinAddr: 0x279C4, symSize: 0x214 }
  - { offset: 0x3FC9D, size: 0x8, addend: 0x0, symName: __RNvMs5s_NtCs1NyPVrLiP35_11crystal_toe2pyNtB6_4PyMD27___pymethod_helix_per_turn__, symObjAddr: 0x1D3A8, symBinAddr: 0x27BD8, symSize: 0x214 }
  - { offset: 0x3FD97, size: 0x8, addend: 0x0, symName: __RNvMs5s_NtCs1NyPVrLiP35_11crystal_toe2pyNtB6_4PyMD28___pymethod_water_angle_deg__, symObjAddr: 0x1D5BC, symBinAddr: 0x27DEC, symSize: 0x214 }
  - { offset: 0x3FE91, size: 0x8, addend: 0x0, symName: __RNvMs5s_NtCs1NyPVrLiP35_11crystal_toe2pyNtB6_4PyMD34___pymethod_tetrahedral_angle_deg__, symObjAddr: 0x1D7D0, symBinAddr: 0x28000, symSize: 0x214 }
  - { offset: 0x3FF98, size: 0x8, addend: 0x0, symName: __RNvMs66_NtCs1NyPVrLiP35_11crystal_toe2pyNtB6_5PyQFT10photon_pol, symObjAddr: 0x1D9E4, symBinAddr: 0x28214, symSize: 0x18 }
  - { offset: 0x3FFBB, size: 0x8, addend: 0x0, symName: __RNvMs66_NtCs1NyPVrLiP35_11crystal_toe2pyNtB6_5PyQFT10thomson_cs, symObjAddr: 0x1D9FC, symBinAddr: 0x2822C, symSize: 0x20 }
  - { offset: 0x3FFDE, size: 0x8, addend: 0x0, symName: __RNvMs66_NtCs1NyPVrLiP35_11crystal_toe2pyNtB6_5PyQFT12dirac_gammas, symObjAddr: 0x1DA1C, symBinAddr: 0x2824C, symSize: 0x18 }
  - { offset: 0x40001, size: 0x8, addend: 0x0, symName: __RNvMs66_NtCs1NyPVrLiP35_11crystal_toe2pyNtB6_5PyQFT13gluon_colours, symObjAddr: 0x1DA34, symBinAddr: 0x28264, symSize: 0x18 }
  - { offset: 0x40024, size: 0x8, addend: 0x0, symName: __RNvMs66_NtCs1NyPVrLiP35_11crystal_toe2pyNtB6_5PyQFT13sigma_ee_mumu, symObjAddr: 0x1DA4C, symBinAddr: 0x2827C, symSize: 0x24 }
  - { offset: 0x40056, size: 0x8, addend: 0x0, symName: __RNvMs66_NtCs1NyPVrLiP35_11crystal_toe2pyNtB6_5PyQFT13spacetime_dim, symObjAddr: 0x1DA70, symBinAddr: 0x282A0, symSize: 0x18 }
  - { offset: 0x40079, size: 0x8, addend: 0x0, symName: __RNvMs66_NtCs1NyPVrLiP35_11crystal_toe2pyNtB6_5PyQFT15one_loop_factor, symObjAddr: 0x1DA88, symBinAddr: 0x282B8, symSize: 0x18 }
  - { offset: 0x4009C, size: 0x8, addend: 0x0, symName: __RNvMs66_NtCs1NyPVrLiP35_11crystal_toe2pyNtB6_5PyQFT18lorentz_generators, symObjAddr: 0x1DAA0, symBinAddr: 0x282D0, symSize: 0x18 }
  - { offset: 0x400BF, size: 0x8, addend: 0x0, symName: __RNvMs66_NtCs1NyPVrLiP35_11crystal_toe2pyNtB6_5PyQFT3new, symObjAddr: 0x1DAB8, symBinAddr: 0x282E8, symSize: 0x4 }
  - { offset: 0x400D2, size: 0x8, addend: 0x0, symName: __RNvMs66_NtCs1NyPVrLiP35_11crystal_toe2pyNtB6_5PyQFT9alpha_qcd, symObjAddr: 0x1DABC, symBinAddr: 0x282EC, symSize: 0x28 }
  - { offset: 0x40113, size: 0x8, addend: 0x0, symName: __RNvMs66_NtCs1NyPVrLiP35_11crystal_toe2pyNtB6_5PyQFT9qcd_beta0, symObjAddr: 0x1DAE4, symBinAddr: 0x28314, symSize: 0x18 }
  - { offset: 0x40136, size: 0x8, addend: 0x0, symName: __RNvMs68_NtCs1NyPVrLiP35_11crystal_toe2pyNtB6_5PyQFT20___pymethod___new____, symObjAddr: 0x1DAFC, symBinAddr: 0x2832C, symSize: 0x1A0 }
  - { offset: 0x40280, size: 0x8, addend: 0x0, symName: __RNvMs68_NtCs1NyPVrLiP35_11crystal_toe2pyNtB6_5PyQFT22___pymethod_alpha_qcd__, symObjAddr: 0x1DC9C, symBinAddr: 0x284CC, symSize: 0x488 }
  - { offset: 0x4045C, size: 0x8, addend: 0x0, symName: __RNvMs68_NtCs1NyPVrLiP35_11crystal_toe2pyNtB6_5PyQFT22___pymethod_qcd_beta0__, symObjAddr: 0x1E124, symBinAddr: 0x28954, symSize: 0x214 }
  - { offset: 0x40556, size: 0x8, addend: 0x0, symName: __RNvMs68_NtCs1NyPVrLiP35_11crystal_toe2pyNtB6_5PyQFT23___pymethod_photon_pol__, symObjAddr: 0x1E338, symBinAddr: 0x28B68, symSize: 0x214 }
  - { offset: 0x40650, size: 0x8, addend: 0x0, symName: __RNvMs68_NtCs1NyPVrLiP35_11crystal_toe2pyNtB6_5PyQFT23___pymethod_thomson_cs__, symObjAddr: 0x1E54C, symBinAddr: 0x28D7C, symSize: 0x214 }
  - { offset: 0x4074A, size: 0x8, addend: 0x0, symName: __RNvMs68_NtCs1NyPVrLiP35_11crystal_toe2pyNtB6_5PyQFT25___pymethod_dirac_gammas__, symObjAddr: 0x1E760, symBinAddr: 0x28F90, symSize: 0x214 }
  - { offset: 0x40844, size: 0x8, addend: 0x0, symName: __RNvMs68_NtCs1NyPVrLiP35_11crystal_toe2pyNtB6_5PyQFT26___pymethod_gluon_colours__, symObjAddr: 0x1E974, symBinAddr: 0x291A4, symSize: 0x214 }
  - { offset: 0x4093E, size: 0x8, addend: 0x0, symName: __RNvMs68_NtCs1NyPVrLiP35_11crystal_toe2pyNtB6_5PyQFT26___pymethod_sigma_ee_mumu__, symObjAddr: 0x1EB88, symBinAddr: 0x293B8, symSize: 0x378 }
  - { offset: 0x40AEC, size: 0x8, addend: 0x0, symName: __RNvMs68_NtCs1NyPVrLiP35_11crystal_toe2pyNtB6_5PyQFT26___pymethod_spacetime_dim__, symObjAddr: 0x1EF00, symBinAddr: 0x29730, symSize: 0x214 }
  - { offset: 0x40BE6, size: 0x8, addend: 0x0, symName: __RNvMs68_NtCs1NyPVrLiP35_11crystal_toe2pyNtB6_5PyQFT28___pymethod_one_loop_factor__, symObjAddr: 0x1F114, symBinAddr: 0x29944, symSize: 0x214 }
  - { offset: 0x40CE0, size: 0x8, addend: 0x0, symName: __RNvMs68_NtCs1NyPVrLiP35_11crystal_toe2pyNtB6_5PyQFT31___pymethod_lorentz_generators__, symObjAddr: 0x1F328, symBinAddr: 0x29B58, symSize: 0x214 }
  - { offset: 0x40DDA, size: 0x8, addend: 0x0, symName: __RNvMs6A_NtCs1NyPVrLiP35_11crystal_toe2pyNtB6_6PyChem20___pymethod___new____, symObjAddr: 0x1F53C, symBinAddr: 0x29D6C, symSize: 0x1A0 }
  - { offset: 0x40F24, size: 0x8, addend: 0x0, symName: __RNvMs6A_NtCs1NyPVrLiP35_11crystal_toe2pyNtB6_6PyChem21___pymethod_noble_ar__, symObjAddr: 0x1F6DC, symBinAddr: 0x29F0C, symSize: 0x214 }
  - { offset: 0x4101E, size: 0x8, addend: 0x0, symName: __RNvMs6A_NtCs1NyPVrLiP35_11crystal_toe2pyNtB6_6PyChem21___pymethod_noble_he__, symObjAddr: 0x1F8F0, symBinAddr: 0x2A120, symSize: 0x214 }
  - { offset: 0x41118, size: 0x8, addend: 0x0, symName: __RNvMs6A_NtCs1NyPVrLiP35_11crystal_toe2pyNtB6_6PyChem21___pymethod_noble_kr__, symObjAddr: 0x1FB04, symBinAddr: 0x2A334, symSize: 0x214 }
  - { offset: 0x41212, size: 0x8, addend: 0x0, symName: __RNvMs6A_NtCs1NyPVrLiP35_11crystal_toe2pyNtB6_6PyChem21___pymethod_noble_ne__, symObjAddr: 0x1FD18, symBinAddr: 0x2A548, symSize: 0x214 }
  - { offset: 0x4130C, size: 0x8, addend: 0x0, symName: __RNvMs6A_NtCs1NyPVrLiP35_11crystal_toe2pyNtB6_6PyChem22___pymethod_arrhenius__, symObjAddr: 0x1FF2C, symBinAddr: 0x2A75C, symSize: 0x488 }
  - { offset: 0x414E8, size: 0x8, addend: 0x0, symName: __RNvMs6A_NtCs1NyPVrLiP35_11crystal_toe2pyNtB6_6PyChem23___pymethod_d_capacity__, symObjAddr: 0x203B4, symBinAddr: 0x2ABE4, symSize: 0x214 }
  - { offset: 0x415E2, size: 0x8, addend: 0x0, symName: __RNvMs6A_NtCs1NyPVrLiP35_11crystal_toe2pyNtB6_6PyChem23___pymethod_f_capacity__, symObjAddr: 0x205C8, symBinAddr: 0x2ADF8, symSize: 0x214 }
  - { offset: 0x416DC, size: 0x8, addend: 0x0, symName: __RNvMs6A_NtCs1NyPVrLiP35_11crystal_toe2pyNtB6_6PyChem23___pymethod_neutral_ph__, symObjAddr: 0x207DC, symBinAddr: 0x2B00C, symSize: 0x214 }
  - { offset: 0x417D6, size: 0x8, addend: 0x0, symName: __RNvMs6A_NtCs1NyPVrLiP35_11crystal_toe2pyNtB6_6PyChem23___pymethod_p_capacity__, symObjAddr: 0x209F0, symBinAddr: 0x2B220, symSize: 0x214 }
  - { offset: 0x418D0, size: 0x8, addend: 0x0, symName: __RNvMs6A_NtCs1NyPVrLiP35_11crystal_toe2pyNtB6_6PyChem23___pymethod_s_capacity__, symObjAddr: 0x20C04, symBinAddr: 0x2B434, symSize: 0x214 }
  - { offset: 0x419CA, size: 0x8, addend: 0x0, symName: __RNvMs6A_NtCs1NyPVrLiP35_11crystal_toe2pyNtB6_6PyChem26___pymethod_sp2_angle_deg__, symObjAddr: 0x20E18, symBinAddr: 0x2B648, symSize: 0x214 }
  - { offset: 0x41AC4, size: 0x8, addend: 0x0, symName: __RNvMs6A_NtCs1NyPVrLiP35_11crystal_toe2pyNtB6_6PyChem26___pymethod_sp3_angle_deg__, symObjAddr: 0x2102C, symBinAddr: 0x2B85C, symSize: 0x214 }
  - { offset: 0x41BBE, size: 0x8, addend: 0x0, symName: __RNvMs6A_NtCs1NyPVrLiP35_11crystal_toe2pyNtB6_6PyChem27___pymethod_shell_capacity__, symObjAddr: 0x21240, symBinAddr: 0x2BA70, symSize: 0x378 }
  - { offset: 0x41D6C, size: 0x8, addend: 0x0, symName: __RNvMs6A_NtCs1NyPVrLiP35_11crystal_toe2pyNtB6_6PyChem28___pymethod_water_angle_deg__, symObjAddr: 0x215B8, symBinAddr: 0x2BDE8, symSize: 0x214 }
  - { offset: 0x41E73, size: 0x8, addend: 0x0, symName: __RNvMs6M_NtCs1NyPVrLiP35_11crystal_toe2pyNtB6_9PyNuclear13magic_numbers, symObjAddr: 0x217CC, symBinAddr: 0x2BFFC, symSize: 0x40 }
  - { offset: 0x41E96, size: 0x8, addend: 0x0, symName: __RNvMs6M_NtCs1NyPVrLiP35_11crystal_toe2pyNtB6_9PyNuclear14alpha_particle, symObjAddr: 0x2180C, symBinAddr: 0x2C03C, symSize: 0x18 }
  - { offset: 0x41EB9, size: 0x8, addend: 0x0, symName: __RNvMs6M_NtCs1NyPVrLiP35_11crystal_toe2pyNtB6_9PyNuclear14binding_energy, symObjAddr: 0x21824, symBinAddr: 0x2C054, symSize: 0x34 }
  - { offset: 0x41EFA, size: 0x8, addend: 0x0, symName: __RNvMs6M_NtCs1NyPVrLiP35_11crystal_toe2pyNtB6_9PyNuclear14isospin_states, symObjAddr: 0x21858, symBinAddr: 0x2C088, symSize: 0x18 }
  - { offset: 0x41F1D, size: 0x8, addend: 0x0, symName: __RNvMs6M_NtCs1NyPVrLiP35_11crystal_toe2pyNtB6_9PyNuclear19binding_per_nucleon, symObjAddr: 0x21870, symBinAddr: 0x2C0A0, symSize: 0x34 }
  - { offset: 0x41F5E, size: 0x8, addend: 0x0, symName: __RNvMs6M_NtCs1NyPVrLiP35_11crystal_toe2pyNtB6_9PyNuclear3new, symObjAddr: 0x218A4, symBinAddr: 0x2C0D4, symSize: 0x4 }
  - { offset: 0x41F71, size: 0x8, addend: 0x0, symName: __RNvMs6M_NtCs1NyPVrLiP35_11crystal_toe2pyNtB6_9PyNuclear9iron_peak, symObjAddr: 0x218A8, symBinAddr: 0x2C0D8, symSize: 0x18 }
  - { offset: 0x41F94, size: 0x8, addend: 0x0, symName: __RNvMs6O_NtCs1NyPVrLiP35_11crystal_toe2pyNtB6_9PyNuclear20___pymethod___new____, symObjAddr: 0x218C0, symBinAddr: 0x2C0F0, symSize: 0x1A0 }
  - { offset: 0x420DE, size: 0x8, addend: 0x0, symName: __RNvMs6O_NtCs1NyPVrLiP35_11crystal_toe2pyNtB6_9PyNuclear22___pymethod_iron_peak__, symObjAddr: 0x21A60, symBinAddr: 0x2C290, symSize: 0x214 }
  - { offset: 0x421D8, size: 0x8, addend: 0x0, symName: __RNvMs6O_NtCs1NyPVrLiP35_11crystal_toe2pyNtB6_9PyNuclear26___pymethod_magic_numbers__, symObjAddr: 0x21C74, symBinAddr: 0x2C4A4, symSize: 0x290 }
  - { offset: 0x422CA, size: 0x8, addend: 0x0, symName: __RNvMs6O_NtCs1NyPVrLiP35_11crystal_toe2pyNtB6_9PyNuclear27___pymethod_alpha_particle__, symObjAddr: 0x21F04, symBinAddr: 0x2C734, symSize: 0x214 }
  - { offset: 0x423C4, size: 0x8, addend: 0x0, symName: __RNvMs6O_NtCs1NyPVrLiP35_11crystal_toe2pyNtB6_9PyNuclear27___pymethod_binding_energy__, symObjAddr: 0x22118, symBinAddr: 0x2C948, symSize: 0x498 }
  - { offset: 0x425A0, size: 0x8, addend: 0x0, symName: __RNvMs6O_NtCs1NyPVrLiP35_11crystal_toe2pyNtB6_9PyNuclear27___pymethod_isospin_states__, symObjAddr: 0x225B0, symBinAddr: 0x2CDE0, symSize: 0x214 }
  - { offset: 0x4269A, size: 0x8, addend: 0x0, symName: __RNvMs6O_NtCs1NyPVrLiP35_11crystal_toe2pyNtB6_9PyNuclear32___pymethod_binding_per_nucleon__, symObjAddr: 0x227C4, symBinAddr: 0x2CFF4, symSize: 0x498 }
  - { offset: 0x42883, size: 0x8, addend: 0x0, symName: __RNvMs6k_NtCs1NyPVrLiP35_11crystal_toe2pyNtB6_7PyRigid12euler_angles, symObjAddr: 0x22C5C, symBinAddr: 0x2D48C, symSize: 0x18 }
  - { offset: 0x428A6, size: 0x8, addend: 0x0, symName: __RNvMs6k_NtCs1NyPVrLiP35_11crystal_toe2pyNtB6_7PyRigid13inertia_indep, symObjAddr: 0x22C74, symBinAddr: 0x2D4A4, symSize: 0x18 }
  - { offset: 0x428C9, size: 0x8, addend: 0x0, symName: __RNvMs6k_NtCs1NyPVrLiP35_11crystal_toe2pyNtB6_7PyRigid15i_sphere_factor, symObjAddr: 0x22C8C, symBinAddr: 0x2D4BC, symSize: 0x20 }
  - { offset: 0x428EC, size: 0x8, addend: 0x0, symName: __RNvMs6k_NtCs1NyPVrLiP35_11crystal_toe2pyNtB6_7PyRigid15quat_components, symObjAddr: 0x22CAC, symBinAddr: 0x2D4DC, symSize: 0x18 }
  - { offset: 0x4290F, size: 0x8, addend: 0x0, symName: __RNvMs6k_NtCs1NyPVrLiP35_11crystal_toe2pyNtB6_7PyRigid3new, symObjAddr: 0x22CC4, symBinAddr: 0x2D4F4, symSize: 0x4 }
  - { offset: 0x42922, size: 0x8, addend: 0x0, symName: __RNvMs6k_NtCs1NyPVrLiP35_11crystal_toe2pyNtB6_7PyRigid5i_rod, symObjAddr: 0x22CC8, symBinAddr: 0x2D4F8, symSize: 0x28 }
  - { offset: 0x42963, size: 0x8, addend: 0x0, symName: __RNvMs6k_NtCs1NyPVrLiP35_11crystal_toe2pyNtB6_7PyRigid6i_disk, symObjAddr: 0x22CF0, symBinAddr: 0x2D520, symSize: 0x28 }
  - { offset: 0x429A4, size: 0x8, addend: 0x0, symName: __RNvMs6k_NtCs1NyPVrLiP35_11crystal_toe2pyNtB6_7PyRigid7i_shell, symObjAddr: 0x22D18, symBinAddr: 0x2D548, symSize: 0x28 }
  - { offset: 0x429E5, size: 0x8, addend: 0x0, symName: __RNvMs6k_NtCs1NyPVrLiP35_11crystal_toe2pyNtB6_7PyRigid8i_sphere, symObjAddr: 0x22D40, symBinAddr: 0x2D570, symSize: 0x28 }
  - { offset: 0x42A26, size: 0x8, addend: 0x0, symName: __RNvMs6k_NtCs1NyPVrLiP35_11crystal_toe2pyNtB6_7PyRigid9rigid_dof, symObjAddr: 0x22D68, symBinAddr: 0x2D598, symSize: 0x18 }
  - { offset: 0x42A49, size: 0x8, addend: 0x0, symName: __RNvMs6m_NtCs1NyPVrLiP35_11crystal_toe2pyNtB6_7PyRigid18___pymethod_i_rod__, symObjAddr: 0x22D80, symBinAddr: 0x2D5B0, symSize: 0x488 }
  - { offset: 0x42C25, size: 0x8, addend: 0x0, symName: __RNvMs6m_NtCs1NyPVrLiP35_11crystal_toe2pyNtB6_7PyRigid19___pymethod_i_disk__, symObjAddr: 0x23208, symBinAddr: 0x2DA38, symSize: 0x488 }
  - { offset: 0x42E01, size: 0x8, addend: 0x0, symName: __RNvMs6m_NtCs1NyPVrLiP35_11crystal_toe2pyNtB6_7PyRigid20___pymethod___new____, symObjAddr: 0x23690, symBinAddr: 0x2DEC0, symSize: 0x1A0 }
  - { offset: 0x42F4B, size: 0x8, addend: 0x0, symName: __RNvMs6m_NtCs1NyPVrLiP35_11crystal_toe2pyNtB6_7PyRigid20___pymethod_i_shell__, symObjAddr: 0x23830, symBinAddr: 0x2E060, symSize: 0x488 }
  - { offset: 0x43127, size: 0x8, addend: 0x0, symName: __RNvMs6m_NtCs1NyPVrLiP35_11crystal_toe2pyNtB6_7PyRigid21___pymethod_i_sphere__, symObjAddr: 0x23CB8, symBinAddr: 0x2E4E8, symSize: 0x488 }
  - { offset: 0x43303, size: 0x8, addend: 0x0, symName: __RNvMs6m_NtCs1NyPVrLiP35_11crystal_toe2pyNtB6_7PyRigid22___pymethod_rigid_dof__, symObjAddr: 0x24140, symBinAddr: 0x2E970, symSize: 0x214 }
  - { offset: 0x433FD, size: 0x8, addend: 0x0, symName: __RNvMs6m_NtCs1NyPVrLiP35_11crystal_toe2pyNtB6_7PyRigid25___pymethod_euler_angles__, symObjAddr: 0x24354, symBinAddr: 0x2EB84, symSize: 0x214 }
  - { offset: 0x434F7, size: 0x8, addend: 0x0, symName: __RNvMs6m_NtCs1NyPVrLiP35_11crystal_toe2pyNtB6_7PyRigid26___pymethod_inertia_indep__, symObjAddr: 0x24568, symBinAddr: 0x2ED98, symSize: 0x214 }
  - { offset: 0x435F1, size: 0x8, addend: 0x0, symName: __RNvMs6m_NtCs1NyPVrLiP35_11crystal_toe2pyNtB6_7PyRigid28___pymethod_i_sphere_factor__, symObjAddr: 0x2477C, symBinAddr: 0x2EFAC, symSize: 0x214 }
  - { offset: 0x436EB, size: 0x8, addend: 0x0, symName: __RNvMs6m_NtCs1NyPVrLiP35_11crystal_toe2pyNtB6_7PyRigid28___pymethod_quat_components__, symObjAddr: 0x24990, symBinAddr: 0x2F1C0, symSize: 0x214 }
  - { offset: 0x437F2, size: 0x8, addend: 0x0, symName: __RNvMs6y_NtCs1NyPVrLiP35_11crystal_toe2pyNtB6_6PyChem10d_capacity, symObjAddr: 0x24BA4, symBinAddr: 0x2F3D4, symSize: 0x18 }
  - { offset: 0x43815, size: 0x8, addend: 0x0, symName: __RNvMs6y_NtCs1NyPVrLiP35_11crystal_toe2pyNtB6_6PyChem10f_capacity, symObjAddr: 0x24BBC, symBinAddr: 0x2F3EC, symSize: 0x18 }
  - { offset: 0x43838, size: 0x8, addend: 0x0, symName: __RNvMs6y_NtCs1NyPVrLiP35_11crystal_toe2pyNtB6_6PyChem10neutral_ph, symObjAddr: 0x24BD4, symBinAddr: 0x2F404, symSize: 0x18 }
  - { offset: 0x4385B, size: 0x8, addend: 0x0, symName: __RNvMs6y_NtCs1NyPVrLiP35_11crystal_toe2pyNtB6_6PyChem10p_capacity, symObjAddr: 0x24BEC, symBinAddr: 0x2F41C, symSize: 0x18 }
  - { offset: 0x4387E, size: 0x8, addend: 0x0, symName: __RNvMs6y_NtCs1NyPVrLiP35_11crystal_toe2pyNtB6_6PyChem10s_capacity, symObjAddr: 0x24C04, symBinAddr: 0x2F434, symSize: 0x18 }
  - { offset: 0x438A1, size: 0x8, addend: 0x0, symName: __RNvMs6y_NtCs1NyPVrLiP35_11crystal_toe2pyNtB6_6PyChem13sp2_angle_deg, symObjAddr: 0x24C1C, symBinAddr: 0x2F44C, symSize: 0x24 }
  - { offset: 0x438C4, size: 0x8, addend: 0x0, symName: __RNvMs6y_NtCs1NyPVrLiP35_11crystal_toe2pyNtB6_6PyChem13sp3_angle_deg, symObjAddr: 0x24C40, symBinAddr: 0x2F470, symSize: 0x24 }
  - { offset: 0x438E7, size: 0x8, addend: 0x0, symName: __RNvMs6y_NtCs1NyPVrLiP35_11crystal_toe2pyNtB6_6PyChem14shell_capacity, symObjAddr: 0x24C64, symBinAddr: 0x2F494, symSize: 0x2C }
  - { offset: 0x43919, size: 0x8, addend: 0x0, symName: __RNvMs6y_NtCs1NyPVrLiP35_11crystal_toe2pyNtB6_6PyChem15water_angle_deg, symObjAddr: 0x24C90, symBinAddr: 0x2F4C0, symSize: 0x24 }
  - { offset: 0x4393C, size: 0x8, addend: 0x0, symName: __RNvMs6y_NtCs1NyPVrLiP35_11crystal_toe2pyNtB6_6PyChem3new, symObjAddr: 0x24CB4, symBinAddr: 0x2F4E4, symSize: 0x4 }
  - { offset: 0x4394F, size: 0x8, addend: 0x0, symName: __RNvMs6y_NtCs1NyPVrLiP35_11crystal_toe2pyNtB6_6PyChem8noble_ar, symObjAddr: 0x24CB8, symBinAddr: 0x2F4E8, symSize: 0x18 }
  - { offset: 0x43972, size: 0x8, addend: 0x0, symName: __RNvMs6y_NtCs1NyPVrLiP35_11crystal_toe2pyNtB6_6PyChem8noble_he, symObjAddr: 0x24CD0, symBinAddr: 0x2F500, symSize: 0x18 }
  - { offset: 0x43995, size: 0x8, addend: 0x0, symName: __RNvMs6y_NtCs1NyPVrLiP35_11crystal_toe2pyNtB6_6PyChem8noble_kr, symObjAddr: 0x24CE8, symBinAddr: 0x2F518, symSize: 0x18 }
  - { offset: 0x439B8, size: 0x8, addend: 0x0, symName: __RNvMs6y_NtCs1NyPVrLiP35_11crystal_toe2pyNtB6_6PyChem8noble_ne, symObjAddr: 0x24D00, symBinAddr: 0x2F530, symSize: 0x18 }
  - { offset: 0x439DB, size: 0x8, addend: 0x0, symName: __RNvMs6y_NtCs1NyPVrLiP35_11crystal_toe2pyNtB6_6PyChem9arrhenius, symObjAddr: 0x24D18, symBinAddr: 0x2F548, symSize: 0x28 }
  - { offset: 0x43A29, size: 0x8, addend: 0x0, symName: __RNvMs70_NtCs1NyPVrLiP35_11crystal_toe2pyNtB6_7PyAstro10lane_emden, symObjAddr: 0x24D40, symBinAddr: 0x2F570, symSize: 0x24 }
  - { offset: 0x43A5B, size: 0x8, addend: 0x0, symName: __RNvMs70_NtCs1NyPVrLiP35_11crystal_toe2pyNtB6_7PyAstro12polytrope_nr, symObjAddr: 0x24D64, symBinAddr: 0x2F594, symSize: 0x14 }
  - { offset: 0x43A7E, size: 0x8, addend: 0x0, symName: __RNvMs70_NtCs1NyPVrLiP35_11crystal_toe2pyNtB6_7PyAstro13polytrope_rel, symObjAddr: 0x24D78, symBinAddr: 0x2F5A8, symSize: 0x18 }
  - { offset: 0x43AA1, size: 0x8, addend: 0x0, symName: __RNvMs70_NtCs1NyPVrLiP35_11crystal_toe2pyNtB6_7PyAstro14hawking_factor, symObjAddr: 0x24D90, symBinAddr: 0x2F5C0, symSize: 0x18 }
  - { offset: 0x43AC4, size: 0x8, addend: 0x0, symName: __RNvMs70_NtCs1NyPVrLiP35_11crystal_toe2pyNtB6_7PyAstro14sb_denominator, symObjAddr: 0x24DA8, symBinAddr: 0x2F5D8, symSize: 0x18 }
  - { offset: 0x43AE7, size: 0x8, addend: 0x0, symName: __RNvMs70_NtCs1NyPVrLiP35_11crystal_toe2pyNtB6_7PyAstro16eddington_factor, symObjAddr: 0x24DC0, symBinAddr: 0x2F5F0, symSize: 0x18 }
  - { offset: 0x43B0A, size: 0x8, addend: 0x0, symName: __RNvMs70_NtCs1NyPVrLiP35_11crystal_toe2pyNtB6_7PyAstro3new, symObjAddr: 0x24DD8, symBinAddr: 0x2F608, symSize: 0x4 }
  - { offset: 0x43B1D, size: 0x8, addend: 0x0, symName: __RNvMs70_NtCs1NyPVrLiP35_11crystal_toe2pyNtB6_7PyAstro6virial, symObjAddr: 0x24DDC, symBinAddr: 0x2F60C, symSize: 0x18 }
  - { offset: 0x43B40, size: 0x8, addend: 0x0, symName: __RNvMs72_NtCs1NyPVrLiP35_11crystal_toe2pyNtB6_7PyAstro19___pymethod_virial__, symObjAddr: 0x24DF4, symBinAddr: 0x2F624, symSize: 0x214 }
  - { offset: 0x43C3A, size: 0x8, addend: 0x0, symName: __RNvMs72_NtCs1NyPVrLiP35_11crystal_toe2pyNtB6_7PyAstro20___pymethod___new____, symObjAddr: 0x25008, symBinAddr: 0x2F838, symSize: 0x1A0 }
  - { offset: 0x43D84, size: 0x8, addend: 0x0, symName: __RNvMs72_NtCs1NyPVrLiP35_11crystal_toe2pyNtB6_7PyAstro23___pymethod_lane_emden__, symObjAddr: 0x251A8, symBinAddr: 0x2F9D8, symSize: 0x394 }
  - { offset: 0x43F32, size: 0x8, addend: 0x0, symName: __RNvMs72_NtCs1NyPVrLiP35_11crystal_toe2pyNtB6_7PyAstro25___pymethod_polytrope_nr__, symObjAddr: 0x2553C, symBinAddr: 0x2FD6C, symSize: 0x214 }
  - { offset: 0x4402C, size: 0x8, addend: 0x0, symName: __RNvMs72_NtCs1NyPVrLiP35_11crystal_toe2pyNtB6_7PyAstro26___pymethod_polytrope_rel__, symObjAddr: 0x25750, symBinAddr: 0x2FF80, symSize: 0x214 }
  - { offset: 0x44126, size: 0x8, addend: 0x0, symName: __RNvMs72_NtCs1NyPVrLiP35_11crystal_toe2pyNtB6_7PyAstro27___pymethod_hawking_factor__, symObjAddr: 0x25964, symBinAddr: 0x30194, symSize: 0x214 }
  - { offset: 0x44220, size: 0x8, addend: 0x0, symName: __RNvMs72_NtCs1NyPVrLiP35_11crystal_toe2pyNtB6_7PyAstro27___pymethod_sb_denominator__, symObjAddr: 0x25B78, symBinAddr: 0x303A8, symSize: 0x214 }
  - { offset: 0x4431A, size: 0x8, addend: 0x0, symName: __RNvMs72_NtCs1NyPVrLiP35_11crystal_toe2pyNtB6_7PyAstro29___pymethod_eddington_factor__, symObjAddr: 0x25D8C, symBinAddr: 0x305BC, symSize: 0x214 }
  - { offset: 0x44421, size: 0x8, addend: 0x0, symName: __RNvMs7G_NtCs1NyPVrLiP35_11crystal_toe2pyNtB6_8PyArcade10fixed_bits, symObjAddr: 0x25FA0, symBinAddr: 0x307D0, symSize: 0x18 }
  - { offset: 0x44444, size: 0x8, addend: 0x0, symName: __RNvMs7G_NtCs1NyPVrLiP35_11crystal_toe2pyNtB6_8PyArcade10lod_levels, symObjAddr: 0x25FB8, symBinAddr: 0x307E8, symSize: 0x18 }
  - { offset: 0x44467, size: 0x8, addend: 0x0, symName: __RNvMs7G_NtCs1NyPVrLiP35_11crystal_toe2pyNtB6_8PyArcade10wca_cutoff, symObjAddr: 0x25FD0, symBinAddr: 0x30800, symSize: 0x20 }
  - { offset: 0x4448A, size: 0x8, addend: 0x0, symName: __RNvMs7G_NtCs1NyPVrLiP35_11crystal_toe2pyNtB6_8PyArcade14fast_alpha_inv, symObjAddr: 0x25FF0, symBinAddr: 0x30820, symSize: 0x18 }
  - { offset: 0x444AD, size: 0x8, addend: 0x0, symName: __RNvMs7G_NtCs1NyPVrLiP35_11crystal_toe2pyNtB6_8PyArcade15octree_children, symObjAddr: 0x26008, symBinAddr: 0x30838, symSize: 0x18 }
  - { offset: 0x444D0, size: 0x8, addend: 0x0, symName: __RNvMs7G_NtCs1NyPVrLiP35_11crystal_toe2pyNtB6_8PyArcade16fixed_resolution, symObjAddr: 0x26020, symBinAddr: 0x30850, symSize: 0x20 }
  - { offset: 0x444F3, size: 0x8, addend: 0x0, symName: __RNvMs7G_NtCs1NyPVrLiP35_11crystal_toe2pyNtB6_8PyArcade3new, symObjAddr: 0x26040, symBinAddr: 0x30870, symSize: 0x4 }
  - { offset: 0x44506, size: 0x8, addend: 0x0, symName: __RNvMs7G_NtCs1NyPVrLiP35_11crystal_toe2pyNtB6_8PyArcade8bh_theta, symObjAddr: 0x26044, symBinAddr: 0x30874, symSize: 0x20 }
  - { offset: 0x44529, size: 0x8, addend: 0x0, symName: __RNvMs7G_NtCs1NyPVrLiP35_11crystal_toe2pyNtB6_8PyArcade9lj_cutoff, symObjAddr: 0x26064, symBinAddr: 0x30894, symSize: 0x18 }
  - { offset: 0x4454C, size: 0x8, addend: 0x0, symName: __RNvMs7I_NtCs1NyPVrLiP35_11crystal_toe2pyNtB6_8PyArcade20___pymethod___new____, symObjAddr: 0x2607C, symBinAddr: 0x308AC, symSize: 0x1A0 }
  - { offset: 0x44696, size: 0x8, addend: 0x0, symName: __RNvMs7I_NtCs1NyPVrLiP35_11crystal_toe2pyNtB6_8PyArcade21___pymethod_bh_theta__, symObjAddr: 0x2621C, symBinAddr: 0x30A4C, symSize: 0x214 }
  - { offset: 0x44790, size: 0x8, addend: 0x0, symName: __RNvMs7I_NtCs1NyPVrLiP35_11crystal_toe2pyNtB6_8PyArcade22___pymethod_lj_cutoff__, symObjAddr: 0x26430, symBinAddr: 0x30C60, symSize: 0x214 }
  - { offset: 0x4488A, size: 0x8, addend: 0x0, symName: __RNvMs7I_NtCs1NyPVrLiP35_11crystal_toe2pyNtB6_8PyArcade23___pymethod_fixed_bits__, symObjAddr: 0x26644, symBinAddr: 0x30E74, symSize: 0x214 }
  - { offset: 0x44984, size: 0x8, addend: 0x0, symName: __RNvMs7I_NtCs1NyPVrLiP35_11crystal_toe2pyNtB6_8PyArcade23___pymethod_lod_levels__, symObjAddr: 0x26858, symBinAddr: 0x31088, symSize: 0x214 }
  - { offset: 0x44A7E, size: 0x8, addend: 0x0, symName: __RNvMs7I_NtCs1NyPVrLiP35_11crystal_toe2pyNtB6_8PyArcade23___pymethod_wca_cutoff__, symObjAddr: 0x26A6C, symBinAddr: 0x3129C, symSize: 0x214 }
  - { offset: 0x44B78, size: 0x8, addend: 0x0, symName: __RNvMs7I_NtCs1NyPVrLiP35_11crystal_toe2pyNtB6_8PyArcade27___pymethod_fast_alpha_inv__, symObjAddr: 0x26C80, symBinAddr: 0x314B0, symSize: 0x214 }
  - { offset: 0x44C72, size: 0x8, addend: 0x0, symName: __RNvMs7I_NtCs1NyPVrLiP35_11crystal_toe2pyNtB6_8PyArcade28___pymethod_octree_children__, symObjAddr: 0x26E94, symBinAddr: 0x316C4, symSize: 0x214 }
  - { offset: 0x44D6C, size: 0x8, addend: 0x0, symName: __RNvMs7I_NtCs1NyPVrLiP35_11crystal_toe2pyNtB6_8PyArcade29___pymethod_fixed_resolution__, symObjAddr: 0x270A8, symBinAddr: 0x318D8, symSize: 0x214 }
  - { offset: 0x44E73, size: 0x8, addend: 0x0, symName: __RNvMs7e_NtCs1NyPVrLiP35_11crystal_toe2pyNtB6_7PyQInfo10mera_depth, symObjAddr: 0x272BC, symBinAddr: 0x31AEC, symSize: 0x18 }
  - { offset: 0x44E96, size: 0x8, addend: 0x0, symName: __RNvMs7e_NtCs1NyPVrLiP35_11crystal_toe2pyNtB6_7PyQInfo11bell_states, symObjAddr: 0x272D4, symBinAddr: 0x31B04, symSize: 0x18 }
  - { offset: 0x44EE2, size: 0x8, addend: 0x0, symName: __RNvMs7e_NtCs1NyPVrLiP35_11crystal_toe2pyNtB6_7PyQInfo11steane_code, symObjAddr: 0x272EC, symBinAddr: 0x31B1C, symSize: 0x2C }
  - { offset: 0x44F05, size: 0x8, addend: 0x0, symName: __RNvMs7e_NtCs1NyPVrLiP35_11crystal_toe2pyNtB6_7PyQInfo12bell_entropy, symObjAddr: 0x27318, symBinAddr: 0x31B48, symSize: 0x20 }
  - { offset: 0x44F28, size: 0x8, addend: 0x0, symName: __RNvMs7e_NtCs1NyPVrLiP35_11crystal_toe2pyNtB6_7PyQInfo12qubit_states, symObjAddr: 0x27338, symBinAddr: 0x31B68, symSize: 0x18 }
  - { offset: 0x44F4B, size: 0x8, addend: 0x0, symName: __RNvMs7e_NtCs1NyPVrLiP35_11crystal_toe2pyNtB6_7PyQInfo13hamming_check, symObjAddr: 0x27350, symBinAddr: 0x31B80, symSize: 0x20 }
  - { offset: 0x44F6E, size: 0x8, addend: 0x0, symName: __RNvMs7e_NtCs1NyPVrLiP35_11crystal_toe2pyNtB6_7PyQInfo13teleport_bits, symObjAddr: 0x27370, symBinAddr: 0x31BA0, symSize: 0x18 }
  - { offset: 0x44F91, size: 0x8, addend: 0x0, symName: __RNvMs7e_NtCs1NyPVrLiP35_11crystal_toe2pyNtB6_7PyQInfo14pauli_matrices, symObjAddr: 0x27388, symBinAddr: 0x31BB8, symSize: 0x18 }
  - { offset: 0x44FB4, size: 0x8, addend: 0x0, symName: __RNvMs7e_NtCs1NyPVrLiP35_11crystal_toe2pyNtB6_7PyQInfo17mera_link_entropy, symObjAddr: 0x273A0, symBinAddr: 0x31BD0, symSize: 0x20 }
  - { offset: 0x44FD7, size: 0x8, addend: 0x0, symName: __RNvMs7e_NtCs1NyPVrLiP35_11crystal_toe2pyNtB6_7PyQInfo3new, symObjAddr: 0x273C0, symBinAddr: 0x31BF0, symSize: 0x4 }
  - { offset: 0x44FEA, size: 0x8, addend: 0x0, symName: __RNvMs7e_NtCs1NyPVrLiP35_11crystal_toe2pyNtB6_7PyQInfo6shor_n, symObjAddr: 0x273C4, symBinAddr: 0x31BF4, symSize: 0x18 }
  - { offset: 0x4500D, size: 0x8, addend: 0x0, symName: __RNvMs7e_NtCs1NyPVrLiP35_11crystal_toe2pyNtB6_7PyQInfo7toffoli, symObjAddr: 0x273DC, symBinAddr: 0x31C0C, symSize: 0x18 }
  - { offset: 0x45030, size: 0x8, addend: 0x0, symName: __RNvMs7e_NtCs1NyPVrLiP35_11crystal_toe2pyNtB6_7PyQInfo9mera_bond, symObjAddr: 0x273F4, symBinAddr: 0x31C24, symSize: 0x18 }
  - { offset: 0x45053, size: 0x8, addend: 0x0, symName: __RNvMs7g_NtCs1NyPVrLiP35_11crystal_toe2pyNtB6_7PyQInfo19___pymethod_shor_n__, symObjAddr: 0x2740C, symBinAddr: 0x31C3C, symSize: 0x214 }
  - { offset: 0x4514D, size: 0x8, addend: 0x0, symName: __RNvMs7g_NtCs1NyPVrLiP35_11crystal_toe2pyNtB6_7PyQInfo20___pymethod___new____, symObjAddr: 0x27620, symBinAddr: 0x31E50, symSize: 0x1A0 }
  - { offset: 0x45297, size: 0x8, addend: 0x0, symName: __RNvMs7g_NtCs1NyPVrLiP35_11crystal_toe2pyNtB6_7PyQInfo20___pymethod_toffoli__, symObjAddr: 0x277C0, symBinAddr: 0x31FF0, symSize: 0x214 }
  - { offset: 0x45391, size: 0x8, addend: 0x0, symName: __RNvMs7g_NtCs1NyPVrLiP35_11crystal_toe2pyNtB6_7PyQInfo22___pymethod_mera_bond__, symObjAddr: 0x279D4, symBinAddr: 0x32204, symSize: 0x214 }
  - { offset: 0x4548B, size: 0x8, addend: 0x0, symName: __RNvMs7g_NtCs1NyPVrLiP35_11crystal_toe2pyNtB6_7PyQInfo23___pymethod_mera_depth__, symObjAddr: 0x27BE8, symBinAddr: 0x32418, symSize: 0x214 }
  - { offset: 0x45585, size: 0x8, addend: 0x0, symName: __RNvMs7g_NtCs1NyPVrLiP35_11crystal_toe2pyNtB6_7PyQInfo24___pymethod_bell_states__, symObjAddr: 0x27DFC, symBinAddr: 0x3262C, symSize: 0x214 }
  - { offset: 0x4567F, size: 0x8, addend: 0x0, symName: __RNvMs7g_NtCs1NyPVrLiP35_11crystal_toe2pyNtB6_7PyQInfo24___pymethod_steane_code__, symObjAddr: 0x28010, symBinAddr: 0x32840, symSize: 0x228 }
  - { offset: 0x45779, size: 0x8, addend: 0x0, symName: __RNvMs7g_NtCs1NyPVrLiP35_11crystal_toe2pyNtB6_7PyQInfo25___pymethod_bell_entropy__, symObjAddr: 0x28238, symBinAddr: 0x32A68, symSize: 0x214 }
  - { offset: 0x45873, size: 0x8, addend: 0x0, symName: __RNvMs7g_NtCs1NyPVrLiP35_11crystal_toe2pyNtB6_7PyQInfo25___pymethod_qubit_states__, symObjAddr: 0x2844C, symBinAddr: 0x32C7C, symSize: 0x214 }
  - { offset: 0x4596D, size: 0x8, addend: 0x0, symName: __RNvMs7g_NtCs1NyPVrLiP35_11crystal_toe2pyNtB6_7PyQInfo26___pymethod_hamming_check__, symObjAddr: 0x28660, symBinAddr: 0x32E90, symSize: 0x218 }
  - { offset: 0x45A67, size: 0x8, addend: 0x0, symName: __RNvMs7g_NtCs1NyPVrLiP35_11crystal_toe2pyNtB6_7PyQInfo26___pymethod_teleport_bits__, symObjAddr: 0x28878, symBinAddr: 0x330A8, symSize: 0x214 }
  - { offset: 0x45B61, size: 0x8, addend: 0x0, symName: __RNvMs7g_NtCs1NyPVrLiP35_11crystal_toe2pyNtB6_7PyQInfo27___pymethod_pauli_matrices__, symObjAddr: 0x28A8C, symBinAddr: 0x332BC, symSize: 0x214 }
  - { offset: 0x45C5B, size: 0x8, addend: 0x0, symName: __RNvMs7g_NtCs1NyPVrLiP35_11crystal_toe2pyNtB6_7PyQInfo30___pymethod_mera_link_entropy__, symObjAddr: 0x28CA0, symBinAddr: 0x334D0, symSize: 0x214 }
  - { offset: 0x45D62, size: 0x8, addend: 0x0, symName: __RNvMs7s_NtCs1NyPVrLiP35_11crystal_toe2pyNtB6_5PyBio11amino_acids, symObjAddr: 0x28EB4, symBinAddr: 0x336E4, symSize: 0x18 }
  - { offset: 0x45D85, size: 0x8, addend: 0x0, symName: __RNvMs7s_NtCs1NyPVrLiP35_11crystal_toe2pyNtB6_5PyBio11bp_per_turn, symObjAddr: 0x28ECC, symBinAddr: 0x336FC, symSize: 0x18 }
  - { offset: 0x45DA8, size: 0x8, addend: 0x0, symName: __RNvMs7s_NtCs1NyPVrLiP35_11crystal_toe2pyNtB6_5PyBio11stop_codons, symObjAddr: 0x28EE4, symBinAddr: 0x33714, symSize: 0x18 }
  - { offset: 0x45DCB, size: 0x8, addend: 0x0, symName: __RNvMs7s_NtCs1NyPVrLiP35_11crystal_toe2pyNtB6_5PyBio12lipid_layers, symObjAddr: 0x28EFC, symBinAddr: 0x3372C, symSize: 0x18 }
  - { offset: 0x45DEE, size: 0x8, addend: 0x0, symName: __RNvMs7s_NtCs1NyPVrLiP35_11crystal_toe2pyNtB6_5PyBio13helix_strands, symObjAddr: 0x28F14, symBinAddr: 0x33744, symSize: 0x18 }
  - { offset: 0x45E11, size: 0x8, addend: 0x0, symName: __RNvMs7s_NtCs1NyPVrLiP35_11crystal_toe2pyNtB6_5PyBio14helix_per_turn, symObjAddr: 0x28F2C, symBinAddr: 0x3375C, symSize: 0x20 }
  - { offset: 0x45E34, size: 0x8, addend: 0x0, symName: __RNvMs7s_NtCs1NyPVrLiP35_11crystal_toe2pyNtB6_5PyBio16codon_redundancy, symObjAddr: 0x28F4C, symBinAddr: 0x3377C, symSize: 0x20 }
  - { offset: 0x45E57, size: 0x8, addend: 0x0, symName: __RNvMs7s_NtCs1NyPVrLiP35_11crystal_toe2pyNtB6_5PyBio16kleiber_exponent, symObjAddr: 0x28F6C, symBinAddr: 0x3379C, symSize: 0x20 }
  - { offset: 0x45E7A, size: 0x8, addend: 0x0, symName: __RNvMs7s_NtCs1NyPVrLiP35_11crystal_toe2pyNtB6_5PyBio16surface_exponent, symObjAddr: 0x28F8C, symBinAddr: 0x337BC, symSize: 0x20 }
  - { offset: 0x45E9D, size: 0x8, addend: 0x0, symName: __RNvMs7s_NtCs1NyPVrLiP35_11crystal_toe2pyNtB6_5PyBio19heart_rate_exponent, symObjAddr: 0x28FAC, symBinAddr: 0x337DC, symSize: 0x20 }
  - { offset: 0x45EC0, size: 0x8, addend: 0x0, symName: __RNvMs7s_NtCs1NyPVrLiP35_11crystal_toe2pyNtB6_5PyBio3new, symObjAddr: 0x28FCC, symBinAddr: 0x337FC, symSize: 0x4 }
  - { offset: 0x45ED3, size: 0x8, addend: 0x0, symName: __RNvMs7s_NtCs1NyPVrLiP35_11crystal_toe2pyNtB6_5PyBio6codons, symObjAddr: 0x28FD0, symBinAddr: 0x33800, symSize: 0x18 }
  - { offset: 0x45EF6, size: 0x8, addend: 0x0, symName: __RNvMs7s_NtCs1NyPVrLiP35_11crystal_toe2pyNtB6_5PyBio8flory_nu, symObjAddr: 0x28FE8, symBinAddr: 0x33818, symSize: 0x20 }
  - { offset: 0x45F19, size: 0x8, addend: 0x0, symName: __RNvMs7s_NtCs1NyPVrLiP35_11crystal_toe2pyNtB6_5PyBio8hbond_at, symObjAddr: 0x29008, symBinAddr: 0x33838, symSize: 0x18 }
  - { offset: 0x45F3C, size: 0x8, addend: 0x0, symName: __RNvMs7s_NtCs1NyPVrLiP35_11crystal_toe2pyNtB6_5PyBio8hbond_gc, symObjAddr: 0x29020, symBinAddr: 0x33850, symSize: 0x18 }
  - { offset: 0x45F5F, size: 0x8, addend: 0x0, symName: __RNvMs7s_NtCs1NyPVrLiP35_11crystal_toe2pyNtB6_5PyBio9codon_len, symObjAddr: 0x29038, symBinAddr: 0x33868, symSize: 0x18 }
  - { offset: 0x45F82, size: 0x8, addend: 0x0, symName: __RNvMs7s_NtCs1NyPVrLiP35_11crystal_toe2pyNtB6_5PyBio9dna_bases, symObjAddr: 0x29050, symBinAddr: 0x33880, symSize: 0x18 }
  - { offset: 0x45FA5, size: 0x8, addend: 0x0, symName: __RNvMs7u_NtCs1NyPVrLiP35_11crystal_toe2pyNtB6_5PyBio19___pymethod_codons__, symObjAddr: 0x29068, symBinAddr: 0x33898, symSize: 0x214 }
  - { offset: 0x4609F, size: 0x8, addend: 0x0, symName: __RNvMs7u_NtCs1NyPVrLiP35_11crystal_toe2pyNtB6_5PyBio20___pymethod___new____, symObjAddr: 0x2927C, symBinAddr: 0x33AAC, symSize: 0x1A0 }
  - { offset: 0x461E9, size: 0x8, addend: 0x0, symName: __RNvMs7u_NtCs1NyPVrLiP35_11crystal_toe2pyNtB6_5PyBio21___pymethod_flory_nu__, symObjAddr: 0x2941C, symBinAddr: 0x33C4C, symSize: 0x214 }
  - { offset: 0x462E3, size: 0x8, addend: 0x0, symName: __RNvMs7u_NtCs1NyPVrLiP35_11crystal_toe2pyNtB6_5PyBio21___pymethod_hbond_at__, symObjAddr: 0x29630, symBinAddr: 0x33E60, symSize: 0x214 }
  - { offset: 0x463DD, size: 0x8, addend: 0x0, symName: __RNvMs7u_NtCs1NyPVrLiP35_11crystal_toe2pyNtB6_5PyBio21___pymethod_hbond_gc__, symObjAddr: 0x29844, symBinAddr: 0x34074, symSize: 0x214 }
  - { offset: 0x464D7, size: 0x8, addend: 0x0, symName: __RNvMs7u_NtCs1NyPVrLiP35_11crystal_toe2pyNtB6_5PyBio22___pymethod_codon_len__, symObjAddr: 0x29A58, symBinAddr: 0x34288, symSize: 0x214 }
  - { offset: 0x465D1, size: 0x8, addend: 0x0, symName: __RNvMs7u_NtCs1NyPVrLiP35_11crystal_toe2pyNtB6_5PyBio22___pymethod_dna_bases__, symObjAddr: 0x29C6C, symBinAddr: 0x3449C, symSize: 0x214 }
  - { offset: 0x466CB, size: 0x8, addend: 0x0, symName: __RNvMs7u_NtCs1NyPVrLiP35_11crystal_toe2pyNtB6_5PyBio24___pymethod_amino_acids__, symObjAddr: 0x29E80, symBinAddr: 0x346B0, symSize: 0x214 }
  - { offset: 0x467C5, size: 0x8, addend: 0x0, symName: __RNvMs7u_NtCs1NyPVrLiP35_11crystal_toe2pyNtB6_5PyBio24___pymethod_bp_per_turn__, symObjAddr: 0x2A094, symBinAddr: 0x348C4, symSize: 0x214 }
  - { offset: 0x468BF, size: 0x8, addend: 0x0, symName: __RNvMs7u_NtCs1NyPVrLiP35_11crystal_toe2pyNtB6_5PyBio24___pymethod_stop_codons__, symObjAddr: 0x2A2A8, symBinAddr: 0x34AD8, symSize: 0x214 }
  - { offset: 0x469B9, size: 0x8, addend: 0x0, symName: __RNvMs7u_NtCs1NyPVrLiP35_11crystal_toe2pyNtB6_5PyBio25___pymethod_lipid_layers__, symObjAddr: 0x2A4BC, symBinAddr: 0x34CEC, symSize: 0x214 }
  - { offset: 0x46AB3, size: 0x8, addend: 0x0, symName: __RNvMs7u_NtCs1NyPVrLiP35_11crystal_toe2pyNtB6_5PyBio26___pymethod_helix_strands__, symObjAddr: 0x2A6D0, symBinAddr: 0x34F00, symSize: 0x214 }
  - { offset: 0x46BAD, size: 0x8, addend: 0x0, symName: __RNvMs7u_NtCs1NyPVrLiP35_11crystal_toe2pyNtB6_5PyBio27___pymethod_helix_per_turn__, symObjAddr: 0x2A8E4, symBinAddr: 0x35114, symSize: 0x214 }
  - { offset: 0x46CA7, size: 0x8, addend: 0x0, symName: __RNvMs7u_NtCs1NyPVrLiP35_11crystal_toe2pyNtB6_5PyBio29___pymethod_codon_redundancy__, symObjAddr: 0x2AAF8, symBinAddr: 0x35328, symSize: 0x214 }
  - { offset: 0x46DA1, size: 0x8, addend: 0x0, symName: __RNvMs7u_NtCs1NyPVrLiP35_11crystal_toe2pyNtB6_5PyBio29___pymethod_kleiber_exponent__, symObjAddr: 0x2AD0C, symBinAddr: 0x3553C, symSize: 0x214 }
  - { offset: 0x46E9B, size: 0x8, addend: 0x0, symName: __RNvMs7u_NtCs1NyPVrLiP35_11crystal_toe2pyNtB6_5PyBio29___pymethod_surface_exponent__, symObjAddr: 0x2AF20, symBinAddr: 0x35750, symSize: 0x214 }
  - { offset: 0x46F95, size: 0x8, addend: 0x0, symName: __RNvMs7u_NtCs1NyPVrLiP35_11crystal_toe2pyNtB6_5PyBio32___pymethod_heart_rate_exponent__, symObjAddr: 0x2B134, symBinAddr: 0x35964, symSize: 0x214 }
  - { offset: 0x4709C, size: 0x8, addend: 0x0, symName: __RNvMsC_NtCs1NyPVrLiP35_11crystal_toe2pyNtB5_5PyQCD10charm_mass, symObjAddr: 0x2B348, symBinAddr: 0x35B78, symSize: 0x30 }
  - { offset: 0x470CC, size: 0x8, addend: 0x0, symName: __RNvMsC_NtCs1NyPVrLiP35_11crystal_toe2pyNtB5_5PyQCD10delta_mass, symObjAddr: 0x2B378, symBinAddr: 0x35BA8, symSize: 0x30 }
  - { offset: 0x470FC, size: 0x8, addend: 0x0, symName: __RNvMsC_NtCs1NyPVrLiP35_11crystal_toe2pyNtB5_5PyQCD10lambda_qcd, symObjAddr: 0x2B3A8, symBinAddr: 0x35BD8, symSize: 0x30 }
  - { offset: 0x4712C, size: 0x8, addend: 0x0, symName: __RNvMsC_NtCs1NyPVrLiP35_11crystal_toe2pyNtB5_5PyQCD10mn_mp_diff, symObjAddr: 0x2B3D8, symBinAddr: 0x35C08, symSize: 0x30 }
  - { offset: 0x4715C, size: 0x8, addend: 0x0, symName: __RNvMsC_NtCs1NyPVrLiP35_11crystal_toe2pyNtB5_5PyQCD10omega_mass, symObjAddr: 0x2B408, symBinAddr: 0x35C38, symSize: 0x30 }
  - { offset: 0x4718C, size: 0x8, addend: 0x0, symName: __RNvMsC_NtCs1NyPVrLiP35_11crystal_toe2pyNtB5_5PyQCD11bottom_mass, symObjAddr: 0x2B438, symBinAddr: 0x35C68, symSize: 0x30 }
  - { offset: 0x471BC, size: 0x8, addend: 0x0, symName: __RNvMsC_NtCs1NyPVrLiP35_11crystal_toe2pyNtB5_5PyQCD11mp_me_ratio, symObjAddr: 0x2B468, symBinAddr: 0x35C98, symSize: 0x20 }
  - { offset: 0x471DE, size: 0x8, addend: 0x0, symName: __RNvMsC_NtCs1NyPVrLiP35_11crystal_toe2pyNtB5_5PyQCD11proton_mass, symObjAddr: 0x2B488, symBinAddr: 0x35CB8, symSize: 0x30 }
  - { offset: 0x4720E, size: 0x8, addend: 0x0, symName: __RNvMsC_NtCs1NyPVrLiP35_11crystal_toe2pyNtB5_5PyQCD12mpi_mp_ratio, symObjAddr: 0x2B4B8, symBinAddr: 0x35CE8, symSize: 0x20 }
  - { offset: 0x47230, size: 0x8, addend: 0x0, symName: __RNvMsC_NtCs1NyPVrLiP35_11crystal_toe2pyNtB5_5PyQCD12neutron_mass, symObjAddr: 0x2B4D8, symBinAddr: 0x35D08, symSize: 0x30 }
  - { offset: 0x47260, size: 0x8, addend: 0x0, symName: __RNvMsC_NtCs1NyPVrLiP35_11crystal_toe2pyNtB5_5PyQCD12strange_mass, symObjAddr: 0x2B508, symBinAddr: 0x35D38, symSize: 0x30 }
  - { offset: 0x47290, size: 0x8, addend: 0x0, symName: __RNvMsC_NtCs1NyPVrLiP35_11crystal_toe2pyNtB5_5PyQCD19lambda_qcd_mp_ratio, symObjAddr: 0x2B538, symBinAddr: 0x35D68, symSize: 0x20 }
  - { offset: 0x472B2, size: 0x8, addend: 0x0, symName: __RNvMsC_NtCs1NyPVrLiP35_11crystal_toe2pyNtB5_5PyQCD3new, symObjAddr: 0x2B558, symBinAddr: 0x35D88, symSize: 0x4 }
  - { offset: 0x472C5, size: 0x8, addend: 0x0, symName: __RNvMsC_NtCs1NyPVrLiP35_11crystal_toe2pyNtB5_5PyQCD4f_pi, symObjAddr: 0x2B55C, symBinAddr: 0x35D8C, symSize: 0x30 }
  - { offset: 0x472F5, size: 0x8, addend: 0x0, symName: __RNvMsC_NtCs1NyPVrLiP35_11crystal_toe2pyNtB5_5PyQCD7up_mass, symObjAddr: 0x2B58C, symBinAddr: 0x35DBC, symSize: 0x30 }
  - { offset: 0x47325, size: 0x8, addend: 0x0, symName: __RNvMsC_NtCs1NyPVrLiP35_11crystal_toe2pyNtB5_5PyQCD8rho_mass, symObjAddr: 0x2B5BC, symBinAddr: 0x35DEC, symSize: 0x30 }
  - { offset: 0x47355, size: 0x8, addend: 0x0, symName: __RNvMsC_NtCs1NyPVrLiP35_11crystal_toe2pyNtB5_5PyQCD8top_mass, symObjAddr: 0x2B5EC, symBinAddr: 0x35E1C, symSize: 0x30 }
  - { offset: 0x47385, size: 0x8, addend: 0x0, symName: __RNvMsC_NtCs1NyPVrLiP35_11crystal_toe2pyNtB5_5PyQCD9down_mass, symObjAddr: 0x2B61C, symBinAddr: 0x35E4C, symSize: 0x30 }
  - { offset: 0x473B5, size: 0x8, addend: 0x0, symName: __RNvMsC_NtCs1NyPVrLiP35_11crystal_toe2pyNtB5_5PyQCD9kaon_mass, symObjAddr: 0x2B64C, symBinAddr: 0x35E7C, symSize: 0x30 }
  - { offset: 0x473E5, size: 0x8, addend: 0x0, symName: __RNvMsC_NtCs1NyPVrLiP35_11crystal_toe2pyNtB5_5PyQCD9pion_mass, symObjAddr: 0x2B67C, symBinAddr: 0x35EAC, symSize: 0x30 }
  - { offset: 0x47415, size: 0x8, addend: 0x0, symName: __RNvMsE_NtCs1NyPVrLiP35_11crystal_toe2pyNtB5_5PyQCD17___pymethod_f_pi__, symObjAddr: 0x2B6AC, symBinAddr: 0x35EDC, symSize: 0x3B0 }
  - { offset: 0x475B0, size: 0x8, addend: 0x0, symName: __RNvMsE_NtCs1NyPVrLiP35_11crystal_toe2pyNtB5_5PyQCD20___pymethod___new____, symObjAddr: 0x2BA5C, symBinAddr: 0x3628C, symSize: 0x1A0 }
  - { offset: 0x476EC, size: 0x8, addend: 0x0, symName: __RNvMsE_NtCs1NyPVrLiP35_11crystal_toe2pyNtB5_5PyQCD20___pymethod_up_mass__, symObjAddr: 0x2BBFC, symBinAddr: 0x3642C, symSize: 0x3B0 }
  - { offset: 0x47887, size: 0x8, addend: 0x0, symName: __RNvMsE_NtCs1NyPVrLiP35_11crystal_toe2pyNtB5_5PyQCD21___pymethod_rho_mass__, symObjAddr: 0x2BFAC, symBinAddr: 0x367DC, symSize: 0x3B0 }
  - { offset: 0x47A22, size: 0x8, addend: 0x0, symName: __RNvMsE_NtCs1NyPVrLiP35_11crystal_toe2pyNtB5_5PyQCD21___pymethod_top_mass__, symObjAddr: 0x2C35C, symBinAddr: 0x36B8C, symSize: 0x3B0 }
  - { offset: 0x47BBD, size: 0x8, addend: 0x0, symName: __RNvMsE_NtCs1NyPVrLiP35_11crystal_toe2pyNtB5_5PyQCD22___pymethod_down_mass__, symObjAddr: 0x2C70C, symBinAddr: 0x36F3C, symSize: 0x3B0 }
  - { offset: 0x47D58, size: 0x8, addend: 0x0, symName: __RNvMsE_NtCs1NyPVrLiP35_11crystal_toe2pyNtB5_5PyQCD22___pymethod_kaon_mass__, symObjAddr: 0x2CABC, symBinAddr: 0x372EC, symSize: 0x3B0 }
  - { offset: 0x47EF3, size: 0x8, addend: 0x0, symName: __RNvMsE_NtCs1NyPVrLiP35_11crystal_toe2pyNtB5_5PyQCD22___pymethod_pion_mass__, symObjAddr: 0x2CE6C, symBinAddr: 0x3769C, symSize: 0x3B0 }
  - { offset: 0x4808E, size: 0x8, addend: 0x0, symName: __RNvMsE_NtCs1NyPVrLiP35_11crystal_toe2pyNtB5_5PyQCD23___pymethod_charm_mass__, symObjAddr: 0x2D21C, symBinAddr: 0x37A4C, symSize: 0x3B0 }
  - { offset: 0x48229, size: 0x8, addend: 0x0, symName: __RNvMsE_NtCs1NyPVrLiP35_11crystal_toe2pyNtB5_5PyQCD23___pymethod_delta_mass__, symObjAddr: 0x2D5CC, symBinAddr: 0x37DFC, symSize: 0x3B0 }
  - { offset: 0x483C4, size: 0x8, addend: 0x0, symName: __RNvMsE_NtCs1NyPVrLiP35_11crystal_toe2pyNtB5_5PyQCD23___pymethod_lambda_qcd__, symObjAddr: 0x2D97C, symBinAddr: 0x381AC, symSize: 0x3B0 }
  - { offset: 0x4855F, size: 0x8, addend: 0x0, symName: __RNvMsE_NtCs1NyPVrLiP35_11crystal_toe2pyNtB5_5PyQCD23___pymethod_mn_mp_diff__, symObjAddr: 0x2DD2C, symBinAddr: 0x3855C, symSize: 0x3B0 }
  - { offset: 0x486FA, size: 0x8, addend: 0x0, symName: __RNvMsE_NtCs1NyPVrLiP35_11crystal_toe2pyNtB5_5PyQCD23___pymethod_omega_mass__, symObjAddr: 0x2E0DC, symBinAddr: 0x3890C, symSize: 0x3B0 }
  - { offset: 0x48895, size: 0x8, addend: 0x0, symName: __RNvMsE_NtCs1NyPVrLiP35_11crystal_toe2pyNtB5_5PyQCD24___pymethod_bottom_mass__, symObjAddr: 0x2E48C, symBinAddr: 0x38CBC, symSize: 0x3B0 }
  - { offset: 0x48A30, size: 0x8, addend: 0x0, symName: __RNvMsE_NtCs1NyPVrLiP35_11crystal_toe2pyNtB5_5PyQCD24___pymethod_mp_me_ratio__, symObjAddr: 0x2E83C, symBinAddr: 0x3906C, symSize: 0x214 }
  - { offset: 0x48B20, size: 0x8, addend: 0x0, symName: __RNvMsE_NtCs1NyPVrLiP35_11crystal_toe2pyNtB5_5PyQCD24___pymethod_proton_mass__, symObjAddr: 0x2EA50, symBinAddr: 0x39280, symSize: 0x3B0 }
  - { offset: 0x48CBB, size: 0x8, addend: 0x0, symName: __RNvMsE_NtCs1NyPVrLiP35_11crystal_toe2pyNtB5_5PyQCD25___pymethod_mpi_mp_ratio__, symObjAddr: 0x2EE00, symBinAddr: 0x39630, symSize: 0x214 }
  - { offset: 0x48DAB, size: 0x8, addend: 0x0, symName: __RNvMsE_NtCs1NyPVrLiP35_11crystal_toe2pyNtB5_5PyQCD25___pymethod_neutron_mass__, symObjAddr: 0x2F014, symBinAddr: 0x39844, symSize: 0x3B0 }
  - { offset: 0x48F46, size: 0x8, addend: 0x0, symName: __RNvMsE_NtCs1NyPVrLiP35_11crystal_toe2pyNtB5_5PyQCD25___pymethod_strange_mass__, symObjAddr: 0x2F3C4, symBinAddr: 0x39BF4, symSize: 0x3B0 }
  - { offset: 0x490E1, size: 0x8, addend: 0x0, symName: __RNvMsE_NtCs1NyPVrLiP35_11crystal_toe2pyNtB5_5PyQCD32___pymethod_lambda_qcd_mp_ratio__, symObjAddr: 0x2F774, symBinAddr: 0x39FA4, symSize: 0x214 }
  - { offset: 0x491DE, size: 0x8, addend: 0x0, symName: __RNvMsQ_NtCs1NyPVrLiP35_11crystal_toe2pyNtB5_7PyCosmo11n_neutrinos, symObjAddr: 0x2F988, symBinAddr: 0x3A1B8, symSize: 0x18 }
  - { offset: 0x49200, size: 0x8, addend: 0x0, symName: __RNvMsQ_NtCs1NyPVrLiP35_11crystal_toe2pyNtB5_7PyCosmo11omega_total, symObjAddr: 0x2F9A0, symBinAddr: 0x3A1D0, symSize: 0x20 }
  - { offset: 0x49222, size: 0x8, addend: 0x0, symName: __RNvMsQ_NtCs1NyPVrLiP35_11crystal_toe2pyNtB5_7PyCosmo12omega_lambda, symObjAddr: 0x2F9C0, symBinAddr: 0x3A1F0, symSize: 0x20 }
  - { offset: 0x49244, size: 0x8, addend: 0x0, symName: __RNvMsQ_NtCs1NyPVrLiP35_11crystal_toe2pyNtB5_7PyCosmo13n_generations, symObjAddr: 0x2F9E0, symBinAddr: 0x3A210, symSize: 0x18 }
  - { offset: 0x49266, size: 0x8, addend: 0x0, symName: __RNvMsQ_NtCs1NyPVrLiP35_11crystal_toe2pyNtB5_7PyCosmo14spectral_index, symObjAddr: 0x2F9F8, symBinAddr: 0x3A228, symSize: 0x20 }
  - { offset: 0x49288, size: 0x8, addend: 0x0, symName: __RNvMsQ_NtCs1NyPVrLiP35_11crystal_toe2pyNtB5_7PyCosmo17neutrino_mass_sum, symObjAddr: 0x2FA18, symBinAddr: 0x3A248, symSize: 0x30 }
  - { offset: 0x492B8, size: 0x8, addend: 0x0, symName: __RNvMsQ_NtCs1NyPVrLiP35_11crystal_toe2pyNtB5_7PyCosmo19neutrino_mass_scale, symObjAddr: 0x2FA48, symBinAddr: 0x3A278, symSize: 0x30 }
  - { offset: 0x492E8, size: 0x8, addend: 0x0, symName: __RNvMsQ_NtCs1NyPVrLiP35_11crystal_toe2pyNtB5_7PyCosmo19tensor_scalar_ratio, symObjAddr: 0x2FA78, symBinAddr: 0x3A2A8, symSize: 0x20 }
  - { offset: 0x4930A, size: 0x8, addend: 0x0, symName: __RNvMsQ_NtCs1NyPVrLiP35_11crystal_toe2pyNtB5_7PyCosmo2h0, symObjAddr: 0x2FA98, symBinAddr: 0x3A2C8, symSize: 0x20 }
  - { offset: 0x4932C, size: 0x8, addend: 0x0, symName: __RNvMsQ_NtCs1NyPVrLiP35_11crystal_toe2pyNtB5_7PyCosmo3new, symObjAddr: 0x2FAB8, symBinAddr: 0x3A2E8, symSize: 0x4 }
  - { offset: 0x4933F, size: 0x8, addend: 0x0, symName: __RNvMsQ_NtCs1NyPVrLiP35_11crystal_toe2pyNtB5_7PyCosmo7omega_b, symObjAddr: 0x2FABC, symBinAddr: 0x3A2EC, symSize: 0x20 }
  - { offset: 0x49361, size: 0x8, addend: 0x0, symName: __RNvMsQ_NtCs1NyPVrLiP35_11crystal_toe2pyNtB5_7PyCosmo7omega_m, symObjAddr: 0x2FADC, symBinAddr: 0x3A30C, symSize: 0x20 }
  - { offset: 0x49383, size: 0x8, addend: 0x0, symName: __RNvMsQ_NtCs1NyPVrLiP35_11crystal_toe2pyNtB5_7PyCosmo8hubble_h, symObjAddr: 0x2FAFC, symBinAddr: 0x3A32C, symSize: 0x20 }
  - { offset: 0x493A5, size: 0x8, addend: 0x0, symName: __RNvMsQ_NtCs1NyPVrLiP35_11crystal_toe2pyNtB5_7PyCosmo9omega_cdm, symObjAddr: 0x2FB1C, symBinAddr: 0x3A34C, symSize: 0x20 }
  - { offset: 0x493C7, size: 0x8, addend: 0x0, symName: __RNvMsS_NtCs1NyPVrLiP35_11crystal_toe2pyNtB5_7PyCosmo15___pymethod_h0__, symObjAddr: 0x2FB3C, symBinAddr: 0x3A36C, symSize: 0x214 }
  - { offset: 0x494B7, size: 0x8, addend: 0x0, symName: __RNvMsS_NtCs1NyPVrLiP35_11crystal_toe2pyNtB5_7PyCosmo20___pymethod___new____, symObjAddr: 0x2FD50, symBinAddr: 0x3A580, symSize: 0x1A0 }
  - { offset: 0x495F3, size: 0x8, addend: 0x0, symName: __RNvMsS_NtCs1NyPVrLiP35_11crystal_toe2pyNtB5_7PyCosmo20___pymethod_omega_b__, symObjAddr: 0x2FEF0, symBinAddr: 0x3A720, symSize: 0x214 }
  - { offset: 0x496E3, size: 0x8, addend: 0x0, symName: __RNvMsS_NtCs1NyPVrLiP35_11crystal_toe2pyNtB5_7PyCosmo20___pymethod_omega_m__, symObjAddr: 0x30104, symBinAddr: 0x3A934, symSize: 0x214 }
  - { offset: 0x497D3, size: 0x8, addend: 0x0, symName: __RNvMsS_NtCs1NyPVrLiP35_11crystal_toe2pyNtB5_7PyCosmo21___pymethod_hubble_h__, symObjAddr: 0x30318, symBinAddr: 0x3AB48, symSize: 0x214 }
  - { offset: 0x498C3, size: 0x8, addend: 0x0, symName: __RNvMsS_NtCs1NyPVrLiP35_11crystal_toe2pyNtB5_7PyCosmo22___pymethod_omega_cdm__, symObjAddr: 0x3052C, symBinAddr: 0x3AD5C, symSize: 0x214 }
  - { offset: 0x499B3, size: 0x8, addend: 0x0, symName: __RNvMsS_NtCs1NyPVrLiP35_11crystal_toe2pyNtB5_7PyCosmo24___pymethod_n_neutrinos__, symObjAddr: 0x30740, symBinAddr: 0x3AF70, symSize: 0x214 }
  - { offset: 0x49AA3, size: 0x8, addend: 0x0, symName: __RNvMsS_NtCs1NyPVrLiP35_11crystal_toe2pyNtB5_7PyCosmo24___pymethod_omega_total__, symObjAddr: 0x30954, symBinAddr: 0x3B184, symSize: 0x214 }
  - { offset: 0x49B93, size: 0x8, addend: 0x0, symName: __RNvMsS_NtCs1NyPVrLiP35_11crystal_toe2pyNtB5_7PyCosmo25___pymethod_omega_lambda__, symObjAddr: 0x30B68, symBinAddr: 0x3B398, symSize: 0x214 }
  - { offset: 0x49C83, size: 0x8, addend: 0x0, symName: __RNvMsS_NtCs1NyPVrLiP35_11crystal_toe2pyNtB5_7PyCosmo26___pymethod_n_generations__, symObjAddr: 0x30D7C, symBinAddr: 0x3B5AC, symSize: 0x214 }
  - { offset: 0x49D73, size: 0x8, addend: 0x0, symName: __RNvMsS_NtCs1NyPVrLiP35_11crystal_toe2pyNtB5_7PyCosmo27___pymethod_spectral_index__, symObjAddr: 0x30F90, symBinAddr: 0x3B7C0, symSize: 0x214 }
  - { offset: 0x49E63, size: 0x8, addend: 0x0, symName: __RNvMsS_NtCs1NyPVrLiP35_11crystal_toe2pyNtB5_7PyCosmo30___pymethod_neutrino_mass_sum__, symObjAddr: 0x311A4, symBinAddr: 0x3B9D4, symSize: 0x3B0 }
  - { offset: 0x49FFE, size: 0x8, addend: 0x0, symName: __RNvMsS_NtCs1NyPVrLiP35_11crystal_toe2pyNtB5_7PyCosmo32___pymethod_neutrino_mass_scale__, symObjAddr: 0x31554, symBinAddr: 0x3BD84, symSize: 0x3B0 }
  - { offset: 0x4A199, size: 0x8, addend: 0x0, symName: __RNvMsS_NtCs1NyPVrLiP35_11crystal_toe2pyNtB5_7PyCosmo32___pymethod_tensor_scalar_ratio__, symObjAddr: 0x31904, symBinAddr: 0x3C134, symSize: 0x214 }
  - { offset: 0x4A289, size: 0x8, addend: 0x0, symName: __RNvMsa_NtCs1NyPVrLiP35_11crystal_toe2pyNtB5_5PyToe10higgs_mass, symObjAddr: 0x31B18, symBinAddr: 0x3C348, symSize: 0x24 }
  - { offset: 0x4A2AB, size: 0x8, addend: 0x0, symName: __RNvMsa_NtCs1NyPVrLiP35_11crystal_toe2pyNtB5_5PyToe10lambda_qcd, symObjAddr: 0x31B3C, symBinAddr: 0x3C36C, symSize: 0x24 }
  - { offset: 0x4A2CD, size: 0x8, addend: 0x0, symName: __RNvMsa_NtCs1NyPVrLiP35_11crystal_toe2pyNtB5_5PyToe11bohr_radius, symObjAddr: 0x31B60, symBinAddr: 0x3C390, symSize: 0x24 }
  - { offset: 0x4A2EF, size: 0x8, addend: 0x0, symName: __RNvMsa_NtCs1NyPVrLiP35_11crystal_toe2pyNtB5_5PyToe11mp_me_ratio, symObjAddr: 0x31B84, symBinAddr: 0x3C3B4, symSize: 0x24 }
  - { offset: 0x4A311, size: 0x8, addend: 0x0, symName: __RNvMsa_NtCs1NyPVrLiP35_11crystal_toe2pyNtB5_5PyToe11proton_mass, symObjAddr: 0x31BA8, symBinAddr: 0x3C3D8, symSize: 0x24 }
  - { offset: 0x4A333, size: 0x8, addend: 0x0, symName: __RNvMsa_NtCs1NyPVrLiP35_11crystal_toe2pyNtB5_5PyToe12sin2_theta_w, symObjAddr: 0x31BCC, symBinAddr: 0x3C3FC, symSize: 0x24 }
  - { offset: 0x4A355, size: 0x8, addend: 0x0, symName: __RNvMsa_NtCs1NyPVrLiP35_11crystal_toe2pyNtB5_5PyToe13electron_mass, symObjAddr: 0x31BF0, symBinAddr: 0x3C420, symSize: 0x24 }
  - { offset: 0x4A377, size: 0x8, addend: 0x0, symName: __RNvMsa_NtCs1NyPVrLiP35_11crystal_toe2pyNtB5_5PyToe14alpha_at_layer, symObjAddr: 0x31C14, symBinAddr: 0x3C444, symSize: 0x28 }
  - { offset: 0x4A3A7, size: 0x8, addend: 0x0, symName: __RNvMsa_NtCs1NyPVrLiP35_11crystal_toe2pyNtB5_5PyToe18is_crystal_default, symObjAddr: 0x31C3C, symBinAddr: 0x3C46C, symSize: 0x24 }
  - { offset: 0x4A3C9, size: 0x8, addend: 0x0, symName: __RNvMsa_NtCs1NyPVrLiP35_11crystal_toe2pyNtB5_5PyToe3c_f, symObjAddr: 0x31C60, symBinAddr: 0x3C490, symSize: 0x24 }
  - { offset: 0x4A3EB, size: 0x8, addend: 0x0, symName: __RNvMsa_NtCs1NyPVrLiP35_11crystal_toe2pyNtB5_5PyToe3new, symObjAddr: 0x31C84, symBinAddr: 0x3C4B4, symSize: 0x50 }
  - { offset: 0x4A42A, size: 0x8, addend: 0x0, symName: __RNvMsa_NtCs1NyPVrLiP35_11crystal_toe2pyNtB5_5PyToe3vev, symObjAddr: 0x31CD4, symBinAddr: 0x3C504, symSize: 0x24 }
  - { offset: 0x4A44C, size: 0x8, addend: 0x0, symName: __RNvMsa_NtCs1NyPVrLiP35_11crystal_toe2pyNtB5_5PyToe4f_pi, symObjAddr: 0x31CF8, symBinAddr: 0x3C528, symSize: 0x24 }
  - { offset: 0x4A46E, size: 0x8, addend: 0x0, symName: __RNvMsa_NtCs1NyPVrLiP35_11crystal_toe2pyNtB5_5PyToe5alpha, symObjAddr: 0x31D1C, symBinAddr: 0x3C54C, symSize: 0x24 }
  - { offset: 0x4A490, size: 0x8, addend: 0x0, symName: __RNvMsa_NtCs1NyPVrLiP35_11crystal_toe2pyNtB5_5PyToe5kappa, symObjAddr: 0x31D40, symBinAddr: 0x3C570, symSize: 0x24 }
  - { offset: 0x4A4B2, size: 0x8, addend: 0x0, symName: __RNvMsa_NtCs1NyPVrLiP35_11crystal_toe2pyNtB5_5PyToe6to_pdg, symObjAddr: 0x31D64, symBinAddr: 0x3C594, symSize: 0x24 }
  - { offset: 0x4A4D4, size: 0x8, addend: 0x0, symName: __RNvMsa_NtCs1NyPVrLiP35_11crystal_toe2pyNtB5_5PyToe6w_mass, symObjAddr: 0x31D88, symBinAddr: 0x3C5B8, symSize: 0x24 }
  - { offset: 0x4A4F6, size: 0x8, addend: 0x0, symName: __RNvMsa_NtCs1NyPVrLiP35_11crystal_toe2pyNtB5_5PyToe6z_mass, symObjAddr: 0x31DAC, symBinAddr: 0x3C5DC, symSize: 0x24 }
  - { offset: 0x4A518, size: 0x8, addend: 0x0, symName: __RNvMsa_NtCs1NyPVrLiP35_11crystal_toe2pyNtB5_5PyToe8___repr__, symObjAddr: 0x31DD0, symBinAddr: 0x3C600, symSize: 0xD0 }
  - { offset: 0x4A592, size: 0x8, addend: 0x0, symName: __RNvMsa_NtCs1NyPVrLiP35_11crystal_toe2pyNtB5_5PyToe8lambda_h, symObjAddr: 0x31EA0, symBinAddr: 0x3C6D0, symSize: 0x24 }
  - { offset: 0x4A5B4, size: 0x8, addend: 0x0, symName: __RNvMsa_NtCs1NyPVrLiP35_11crystal_toe2pyNtB5_5PyToe9alpha_inv, symObjAddr: 0x31EC4, symBinAddr: 0x3C6F4, symSize: 0x24 }
  - { offset: 0x4A5D6, size: 0x8, addend: 0x0, symName: __RNvMsa_NtCs1NyPVrLiP35_11crystal_toe2pyNtB5_5PyToe9muon_mass, symObjAddr: 0x31EE8, symBinAddr: 0x3C718, symSize: 0x24 }
  - { offset: 0x4A5F8, size: 0x8, addend: 0x0, symName: __RNvMsa_NtCs1NyPVrLiP35_11crystal_toe2pyNtB5_5PyToe9pion_mass, symObjAddr: 0x31F0C, symBinAddr: 0x3C73C, symSize: 0x24 }
  - { offset: 0x4A61A, size: 0x8, addend: 0x0, symName: __RNvMsc_NtCs1NyPVrLiP35_11crystal_toe2pyNtB5_5PyToe16___pymethod_c_f__, symObjAddr: 0x31F30, symBinAddr: 0x3C760, symSize: 0x214 }
  - { offset: 0x4A70A, size: 0x8, addend: 0x0, symName: __RNvMsc_NtCs1NyPVrLiP35_11crystal_toe2pyNtB5_5PyToe16___pymethod_vev__, symObjAddr: 0x32144, symBinAddr: 0x3C974, symSize: 0x214 }
  - { offset: 0x4A7FA, size: 0x8, addend: 0x0, symName: __RNvMsc_NtCs1NyPVrLiP35_11crystal_toe2pyNtB5_5PyToe17___pymethod_f_pi__, symObjAddr: 0x32358, symBinAddr: 0x3CB88, symSize: 0x214 }
  - { offset: 0x4A8EA, size: 0x8, addend: 0x0, symName: __RNvMsc_NtCs1NyPVrLiP35_11crystal_toe2pyNtB5_5PyToe18___pymethod_alpha__, symObjAddr: 0x3256C, symBinAddr: 0x3CD9C, symSize: 0x214 }
  - { offset: 0x4A9DA, size: 0x8, addend: 0x0, symName: __RNvMsc_NtCs1NyPVrLiP35_11crystal_toe2pyNtB5_5PyToe18___pymethod_kappa__, symObjAddr: 0x32780, symBinAddr: 0x3CFB0, symSize: 0x214 }
  - { offset: 0x4AACA, size: 0x8, addend: 0x0, symName: __RNvMsc_NtCs1NyPVrLiP35_11crystal_toe2pyNtB5_5PyToe19___pymethod_to_pdg__, symObjAddr: 0x32994, symBinAddr: 0x3D1C4, symSize: 0x214 }
  - { offset: 0x4ABBA, size: 0x8, addend: 0x0, symName: __RNvMsc_NtCs1NyPVrLiP35_11crystal_toe2pyNtB5_5PyToe19___pymethod_w_mass__, symObjAddr: 0x32BA8, symBinAddr: 0x3D3D8, symSize: 0x214 }
  - { offset: 0x4ACAA, size: 0x8, addend: 0x0, symName: __RNvMsc_NtCs1NyPVrLiP35_11crystal_toe2pyNtB5_5PyToe19___pymethod_z_mass__, symObjAddr: 0x32DBC, symBinAddr: 0x3D5EC, symSize: 0x214 }
  - { offset: 0x4AD9A, size: 0x8, addend: 0x0, symName: __RNvMsc_NtCs1NyPVrLiP35_11crystal_toe2pyNtB5_5PyToe20___pymethod___new____, symObjAddr: 0x32FD0, symBinAddr: 0x3D800, symSize: 0x260 }
  - { offset: 0x4AF0A, size: 0x8, addend: 0x0, symName: __RNvMsc_NtCs1NyPVrLiP35_11crystal_toe2pyNtB5_5PyToe21___pymethod___repr____, symObjAddr: 0x33230, symBinAddr: 0x3DA60, symSize: 0x178 }
  - { offset: 0x4AFC4, size: 0x8, addend: 0x0, symName: __RNvMsc_NtCs1NyPVrLiP35_11crystal_toe2pyNtB5_5PyToe21___pymethod_lambda_h__, symObjAddr: 0x333A8, symBinAddr: 0x3DBD8, symSize: 0x214 }
  - { offset: 0x4B0B4, size: 0x8, addend: 0x0, symName: __RNvMsc_NtCs1NyPVrLiP35_11crystal_toe2pyNtB5_5PyToe22___pymethod_alpha_inv__, symObjAddr: 0x335BC, symBinAddr: 0x3DDEC, symSize: 0x214 }
  - { offset: 0x4B1A4, size: 0x8, addend: 0x0, symName: __RNvMsc_NtCs1NyPVrLiP35_11crystal_toe2pyNtB5_5PyToe22___pymethod_muon_mass__, symObjAddr: 0x337D0, symBinAddr: 0x3E000, symSize: 0x214 }
  - { offset: 0x4B294, size: 0x8, addend: 0x0, symName: __RNvMsc_NtCs1NyPVrLiP35_11crystal_toe2pyNtB5_5PyToe22___pymethod_pion_mass__, symObjAddr: 0x339E4, symBinAddr: 0x3E214, symSize: 0x214 }
  - { offset: 0x4B384, size: 0x8, addend: 0x0, symName: __RNvMsc_NtCs1NyPVrLiP35_11crystal_toe2pyNtB5_5PyToe23___pymethod_higgs_mass__, symObjAddr: 0x33BF8, symBinAddr: 0x3E428, symSize: 0x214 }
  - { offset: 0x4B474, size: 0x8, addend: 0x0, symName: __RNvMsc_NtCs1NyPVrLiP35_11crystal_toe2pyNtB5_5PyToe23___pymethod_lambda_qcd__, symObjAddr: 0x33E0C, symBinAddr: 0x3E63C, symSize: 0x214 }
  - { offset: 0x4B564, size: 0x8, addend: 0x0, symName: __RNvMsc_NtCs1NyPVrLiP35_11crystal_toe2pyNtB5_5PyToe24___pymethod_bohr_radius__, symObjAddr: 0x34020, symBinAddr: 0x3E850, symSize: 0x214 }
  - { offset: 0x4B654, size: 0x8, addend: 0x0, symName: __RNvMsc_NtCs1NyPVrLiP35_11crystal_toe2pyNtB5_5PyToe24___pymethod_mp_me_ratio__, symObjAddr: 0x34234, symBinAddr: 0x3EA64, symSize: 0x214 }
  - { offset: 0x4B744, size: 0x8, addend: 0x0, symName: __RNvMsc_NtCs1NyPVrLiP35_11crystal_toe2pyNtB5_5PyToe24___pymethod_proton_mass__, symObjAddr: 0x34448, symBinAddr: 0x3EC78, symSize: 0x214 }
  - { offset: 0x4B834, size: 0x8, addend: 0x0, symName: __RNvMsc_NtCs1NyPVrLiP35_11crystal_toe2pyNtB5_5PyToe25___pymethod_sin2_theta_w__, symObjAddr: 0x3465C, symBinAddr: 0x3EE8C, symSize: 0x214 }
  - { offset: 0x4B924, size: 0x8, addend: 0x0, symName: __RNvMsc_NtCs1NyPVrLiP35_11crystal_toe2pyNtB5_5PyToe26___pymethod_electron_mass__, symObjAddr: 0x34870, symBinAddr: 0x3F0A0, symSize: 0x214 }
  - { offset: 0x4BA14, size: 0x8, addend: 0x0, symName: __RNvMsc_NtCs1NyPVrLiP35_11crystal_toe2pyNtB5_5PyToe27___pymethod_alpha_at_layer__, symObjAddr: 0x34A84, symBinAddr: 0x3F2B4, symSize: 0x378 }
  - { offset: 0x4BBAF, size: 0x8, addend: 0x0, symName: __RNvMsc_NtCs1NyPVrLiP35_11crystal_toe2pyNtB5_5PyToe31___pymethod_is_crystal_default__, symObjAddr: 0x34DFC, symBinAddr: 0x3F62C, symSize: 0x218 }
  - { offset: 0x4BCAC, size: 0x8, addend: 0x0, symName: __RNvMso_NtCs1NyPVrLiP35_11crystal_toe2pyNtB5_7PyGauge10alpha_s_mz, symObjAddr: 0x35014, symBinAddr: 0x3F844, symSize: 0x20 }
  - { offset: 0x4BCCE, size: 0x8, addend: 0x0, symName: __RNvMso_NtCs1NyPVrLiP35_11crystal_toe2pyNtB5_7PyGauge10g1_squared, symObjAddr: 0x35034, symBinAddr: 0x3F864, symSize: 0x20 }
  - { offset: 0x4BCF0, size: 0x8, addend: 0x0, symName: __RNvMso_NtCs1NyPVrLiP35_11crystal_toe2pyNtB5_7PyGauge10g2_squared, symObjAddr: 0x35054, symBinAddr: 0x3F884, symSize: 0x20 }
  - { offset: 0x4BD12, size: 0x8, addend: 0x0, symName: __RNvMso_NtCs1NyPVrLiP35_11crystal_toe2pyNtB5_7PyGauge10higgs_mass, symObjAddr: 0x35074, symBinAddr: 0x3F8A4, symSize: 0x30 }
  - { offset: 0x4BD42, size: 0x8, addend: 0x0, symName: __RNvMso_NtCs1NyPVrLiP35_11crystal_toe2pyNtB5_7PyGauge10mu_e_ratio, symObjAddr: 0x350A4, symBinAddr: 0x3F8D4, symSize: 0x20 }
  - { offset: 0x4BD64, size: 0x8, addend: 0x0, symName: __RNvMso_NtCs1NyPVrLiP35_11crystal_toe2pyNtB5_7PyGauge11sin_theta_w, symObjAddr: 0x350C4, symBinAddr: 0x3F8F4, symSize: 0x20 }
  - { offset: 0x4BD86, size: 0x8, addend: 0x0, symName: __RNvMso_NtCs1NyPVrLiP35_11crystal_toe2pyNtB5_7PyGauge12cos2_theta_w, symObjAddr: 0x350E4, symBinAddr: 0x3F914, symSize: 0x20 }
  - { offset: 0x4BDA8, size: 0x8, addend: 0x0, symName: __RNvMso_NtCs1NyPVrLiP35_11crystal_toe2pyNtB5_7PyGauge12sin2_theta_w, symObjAddr: 0x35104, symBinAddr: 0x3F934, symSize: 0x20 }
  - { offset: 0x4BDCA, size: 0x8, addend: 0x0, symName: __RNvMso_NtCs1NyPVrLiP35_11crystal_toe2pyNtB5_7PyGauge12tau_mu_ratio, symObjAddr: 0x35124, symBinAddr: 0x3F954, symSize: 0x20 }
  - { offset: 0x4BDEC, size: 0x8, addend: 0x0, symName: __RNvMso_NtCs1NyPVrLiP35_11crystal_toe2pyNtB5_7PyGauge13electron_mass, symObjAddr: 0x35144, symBinAddr: 0x3F974, symSize: 0x30 }
  - { offset: 0x4BE1C, size: 0x8, addend: 0x0, symName: __RNvMso_NtCs1NyPVrLiP35_11crystal_toe2pyNtB5_7PyGauge14fermi_constant, symObjAddr: 0x35174, symBinAddr: 0x3F9A4, symSize: 0x30 }
  - { offset: 0x4BE4C, size: 0x8, addend: 0x0, symName: __RNvMso_NtCs1NyPVrLiP35_11crystal_toe2pyNtB5_7PyGauge3new, symObjAddr: 0x351A4, symBinAddr: 0x3F9D4, symSize: 0x4 }
  - { offset: 0x4BE5F, size: 0x8, addend: 0x0, symName: __RNvMso_NtCs1NyPVrLiP35_11crystal_toe2pyNtB5_7PyGauge6w_mass, symObjAddr: 0x351A8, symBinAddr: 0x3F9D8, symSize: 0x30 }
  - { offset: 0x4BE8F, size: 0x8, addend: 0x0, symName: __RNvMso_NtCs1NyPVrLiP35_11crystal_toe2pyNtB5_7PyGauge6z_mass, symObjAddr: 0x351D8, symBinAddr: 0x3FA08, symSize: 0x30 }
  - { offset: 0x4BEBF, size: 0x8, addend: 0x0, symName: __RNvMso_NtCs1NyPVrLiP35_11crystal_toe2pyNtB5_7PyGauge8alpha_em, symObjAddr: 0x35208, symBinAddr: 0x3FA38, symSize: 0x20 }
  - { offset: 0x4BEE1, size: 0x8, addend: 0x0, symName: __RNvMso_NtCs1NyPVrLiP35_11crystal_toe2pyNtB5_7PyGauge8tau_mass, symObjAddr: 0x35228, symBinAddr: 0x3FA58, symSize: 0x30 }
  - { offset: 0x4BF11, size: 0x8, addend: 0x0, symName: __RNvMso_NtCs1NyPVrLiP35_11crystal_toe2pyNtB5_7PyGauge9alpha_inv, symObjAddr: 0x35258, symBinAddr: 0x3FA88, symSize: 0x20 }
  - { offset: 0x4BF33, size: 0x8, addend: 0x0, symName: __RNvMso_NtCs1NyPVrLiP35_11crystal_toe2pyNtB5_7PyGauge9muon_mass, symObjAddr: 0x35278, symBinAddr: 0x3FAA8, symSize: 0x30 }
  - { offset: 0x4BF63, size: 0x8, addend: 0x0, symName: __RNvMsq_NtCs1NyPVrLiP35_11crystal_toe2pyNtB5_7PyGauge19___pymethod_w_mass__, symObjAddr: 0x352A8, symBinAddr: 0x3FAD8, symSize: 0x3B0 }
  - { offset: 0x4C0FE, size: 0x8, addend: 0x0, symName: __RNvMsq_NtCs1NyPVrLiP35_11crystal_toe2pyNtB5_7PyGauge19___pymethod_z_mass__, symObjAddr: 0x35658, symBinAddr: 0x3FE88, symSize: 0x3B0 }
  - { offset: 0x4C299, size: 0x8, addend: 0x0, symName: __RNvMsq_NtCs1NyPVrLiP35_11crystal_toe2pyNtB5_7PyGauge20___pymethod___new____, symObjAddr: 0x35A08, symBinAddr: 0x40238, symSize: 0x1A0 }
  - { offset: 0x4C3D5, size: 0x8, addend: 0x0, symName: __RNvMsq_NtCs1NyPVrLiP35_11crystal_toe2pyNtB5_7PyGauge21___pymethod_alpha_em__, symObjAddr: 0x35BA8, symBinAddr: 0x403D8, symSize: 0x214 }
  - { offset: 0x4C4C5, size: 0x8, addend: 0x0, symName: __RNvMsq_NtCs1NyPVrLiP35_11crystal_toe2pyNtB5_7PyGauge21___pymethod_tau_mass__, symObjAddr: 0x35DBC, symBinAddr: 0x405EC, symSize: 0x3B0 }
  - { offset: 0x4C660, size: 0x8, addend: 0x0, symName: __RNvMsq_NtCs1NyPVrLiP35_11crystal_toe2pyNtB5_7PyGauge22___pymethod_alpha_inv__, symObjAddr: 0x3616C, symBinAddr: 0x4099C, symSize: 0x214 }
  - { offset: 0x4C750, size: 0x8, addend: 0x0, symName: __RNvMsq_NtCs1NyPVrLiP35_11crystal_toe2pyNtB5_7PyGauge22___pymethod_muon_mass__, symObjAddr: 0x36380, symBinAddr: 0x40BB0, symSize: 0x3B0 }
  - { offset: 0x4C8EB, size: 0x8, addend: 0x0, symName: __RNvMsq_NtCs1NyPVrLiP35_11crystal_toe2pyNtB5_7PyGauge23___pymethod_alpha_s_mz__, symObjAddr: 0x36730, symBinAddr: 0x40F60, symSize: 0x214 }
  - { offset: 0x4C9DB, size: 0x8, addend: 0x0, symName: __RNvMsq_NtCs1NyPVrLiP35_11crystal_toe2pyNtB5_7PyGauge23___pymethod_g1_squared__, symObjAddr: 0x36944, symBinAddr: 0x41174, symSize: 0x214 }
  - { offset: 0x4CACB, size: 0x8, addend: 0x0, symName: __RNvMsq_NtCs1NyPVrLiP35_11crystal_toe2pyNtB5_7PyGauge23___pymethod_g2_squared__, symObjAddr: 0x36B58, symBinAddr: 0x41388, symSize: 0x214 }
  - { offset: 0x4CBBB, size: 0x8, addend: 0x0, symName: __RNvMsq_NtCs1NyPVrLiP35_11crystal_toe2pyNtB5_7PyGauge23___pymethod_higgs_mass__, symObjAddr: 0x36D6C, symBinAddr: 0x4159C, symSize: 0x3B0 }
  - { offset: 0x4CD56, size: 0x8, addend: 0x0, symName: __RNvMsq_NtCs1NyPVrLiP35_11crystal_toe2pyNtB5_7PyGauge23___pymethod_mu_e_ratio__, symObjAddr: 0x3711C, symBinAddr: 0x4194C, symSize: 0x214 }
  - { offset: 0x4CE46, size: 0x8, addend: 0x0, symName: __RNvMsq_NtCs1NyPVrLiP35_11crystal_toe2pyNtB5_7PyGauge24___pymethod_sin_theta_w__, symObjAddr: 0x37330, symBinAddr: 0x41B60, symSize: 0x214 }
  - { offset: 0x4CF36, size: 0x8, addend: 0x0, symName: __RNvMsq_NtCs1NyPVrLiP35_11crystal_toe2pyNtB5_7PyGauge25___pymethod_cos2_theta_w__, symObjAddr: 0x37544, symBinAddr: 0x41D74, symSize: 0x214 }
  - { offset: 0x4D026, size: 0x8, addend: 0x0, symName: __RNvMsq_NtCs1NyPVrLiP35_11crystal_toe2pyNtB5_7PyGauge25___pymethod_sin2_theta_w__, symObjAddr: 0x37758, symBinAddr: 0x41F88, symSize: 0x214 }
  - { offset: 0x4D116, size: 0x8, addend: 0x0, symName: __RNvMsq_NtCs1NyPVrLiP35_11crystal_toe2pyNtB5_7PyGauge25___pymethod_tau_mu_ratio__, symObjAddr: 0x3796C, symBinAddr: 0x4219C, symSize: 0x214 }
  - { offset: 0x4D206, size: 0x8, addend: 0x0, symName: __RNvMsq_NtCs1NyPVrLiP35_11crystal_toe2pyNtB5_7PyGauge26___pymethod_electron_mass__, symObjAddr: 0x37B80, symBinAddr: 0x423B0, symSize: 0x3B0 }
  - { offset: 0x4D3A1, size: 0x8, addend: 0x0, symName: __RNvMsq_NtCs1NyPVrLiP35_11crystal_toe2pyNtB5_7PyGauge27___pymethod_fermi_constant__, symObjAddr: 0x37F30, symBinAddr: 0x42760, symSize: 0x3B0 }
  - { offset: 0x4E63F, size: 0x8, addend: 0x0, symName: __RNvMs0_NtCs1NyPVrLiP35_11crystal_toe9hierarchyNtB5_14CosmoPartition3new, symObjAddr: 0x0, symBinAddr: 0x4C4D4, symSize: 0xA4 }
  - { offset: 0x4E692, size: 0x8, addend: 0x0, symName: __RNvNtCs1NyPVrLiP35_11crystal_toe9hierarchy18implosion_channels, symObjAddr: 0xA4, symBinAddr: 0x4C578, symSize: 0x96C }
  - { offset: 0x4E718, size: 0x8, addend: 0x0, symName: __RNvMs0_NtCs1NyPVrLiP35_11crystal_toe9hierarchyNtB5_14CosmoPartition3new, symObjAddr: 0x0, symBinAddr: 0x4C4D4, symSize: 0xA4 }
  - { offset: 0x4E8F2, size: 0x8, addend: 0x0, symName: __RINvXs2J_NtNtCs7dfkhshTrE4_4core5slice4iterINtB7_4IterNtNtCs1NyPVrLiP35_11crystal_toe12cross_domain10CrossTraceENtNtNtNtBb_4iter6traits8iterator8Iterator4foldjNCINvNtNtB1S_8adapters3map8map_foldRBQ_jjNCNvBS_13n_cross_links0NCINvXsK_NtB1Q_5accumjNtB3I_3Sum3sumINtB2C_3MapBF_B3c_EE0E0EBU_, symObjAddr: 0x0, symBinAddr: 0x4CEE4, symSize: 0x1E0 }
  - { offset: 0x4F7C4, size: 0x8, addend: 0x0, symName: __RINvXs2J_NtNtCs7dfkhshTrE4_4core5slice4iterINtB7_4IterNtNtCs1NyPVrLiP35_11crystal_toe12cross_domain10CrossTraceENtNtNtNtBb_4iter6traits8iterator8Iterator4foldjNCINvNtNtB1S_8adapters3map8map_foldRBQ_jjNCNvBS_13n_cross_links0NCINvXsK_NtB1Q_5accumjNtB3I_3Sum3sumINtB2C_3MapBF_B3c_EE0E0EBU_, symObjAddr: 0x0, symBinAddr: 0x4CEE4, symSize: 0x1E0 }
  - { offset: 0x4F9CA, size: 0x8, addend: 0x0, symName: __RINvXs2J_NtNtCs7dfkhshTrE4_4core5slice4iterINtB7_4IterNtNtCs1NyPVrLiP35_11crystal_toe5atoms6SectorENtNtNtNtBb_4iter6traits8iterator8Iterator4folddNCINvNvXs_NtNtB1F_8adapters9enumerateINtB2u_9EnumeratepEB1z_4fold9enumerateRBQ_dNCINvNtB2w_3map8map_foldTjB3x_EddNCNvMNtBU_5monadNtB4e_12AlgebraState12total_weight0NCINvXs26_NtB1D_5accumdNtB58_3Sum3sumINtB3H_3MapIB2W_BF_EB49_EE0E0E0EBU_, symObjAddr: 0x1E0, symBinAddr: 0x4D0C4, symSize: 0x1C8 }
  - { offset: 0x4FBD0, size: 0x8, addend: 0x0, symName: __RINvXs2J_NtNtCs7dfkhshTrE4_4core5slice4iterINtB7_4IterNtNtCs1NyPVrLiP35_11crystal_toe5atoms6SectorENtNtNtNtBb_4iter6traits8iterator8Iterator4folddNCINvNvXs_NtNtB1F_8adapters9enumerateINtB2u_9EnumeratepEB1z_4fold9enumerateRBQ_dNCINvNtB2w_3map8map_foldTjB3x_EddNCNvMNtBU_5monadNtB4e_12AlgebraState7entropy0NCINvXs26_NtB1D_5accumdNtB52_3Sum3sumINtB3H_3MapIB2W_BF_EB49_EE0E0E0EBU_, symObjAddr: 0x3A8, symBinAddr: 0x4D28C, symSize: 0x1C4 }
  - { offset: 0x4FE26, size: 0x8, addend: 0x0, symName: __RINvXs2J_NtNtCs7dfkhshTrE4_4core5slice4iterINtB7_4IterNtNtNtCsinFlhxATJYn_4pyo35impl_16extract_argument31KeywordOnlyParameterDescriptionENtNtNtNtBb_4iter6traits8iterator8Iterator8positionNCNvMs3_BS_NtBS_19FunctionDescription38find_keyword_parameter_in_keyword_only0ECs1NyPVrLiP35_11crystal_toe, symObjAddr: 0x56C, symBinAddr: 0x4D450, symSize: 0x1B8 }
  - { offset: 0x50031, size: 0x8, addend: 0x0, symName: __RINvXs2J_NtNtCs7dfkhshTrE4_4core5slice4iterINtB7_4IterReENtNtNtNtBb_4iter6traits8iterator8Iterator4folduNCINvNtNtBZ_8adapters3map8map_foldRBQ_NtNtCs2iVXuAemrgm_5alloc6string6StringuNCNCNvMs1Y_NtCs1NyPVrLiP35_11crystal_toe2pyNtB34_13PyCrossDomain6traces00NCINvNvBT_8for_each4callB2g_NCINvMsj_NtB2k_3vecINtB4F_3VecB2g_E14extend_trustedINtB1J_3MapBF_B2T_EE0E0E0EB36_, symObjAddr: 0x724, symBinAddr: 0x4D608, symSize: 0x1C8 }
  - { offset: 0x50231, size: 0x8, addend: 0x0, symName: __RINvXs2J_NtNtCs7dfkhshTrE4_4core5slice4iterINtB7_4IterReENtNtNtNtBb_4iter6traits8iterator8Iterator4folduNCINvNtNtBZ_8adapters3map8map_foldRBQ_NtNtCs2iVXuAemrgm_5alloc6string6StringuNCNCNvMs2t_NtCs1NyPVrLiP35_11crystal_toe2pyNtB34_7PyTower10key_layerss_00NCINvNvBT_8for_each4callB2g_NCINvMsj_NtB2k_3vecINtB4F_3VecB2g_E14extend_trustedINtB1J_3MapBF_B2T_EE0E0E0EB36_, symObjAddr: 0x8EC, symBinAddr: 0x4D7D0, symSize: 0x1C8 }
  - { offset: 0x50431, size: 0x8, addend: 0x0, symName: __RINvXs2J_NtNtCs7dfkhshTrE4_4core5slice4iterINtB7_4IterReENtNtNtNtBb_4iter6traits8iterator8Iterator4folduNCINvNtNtBZ_8adapters3map8map_foldRBQ_NtNtCs2iVXuAemrgm_5alloc6string6StringuNCNCNvMs2t_NtCs1NyPVrLiP35_11crystal_toe2pyNtB34_7PyTower6layers00NCINvNvBT_8for_each4callB2g_NCINvMsj_NtB2k_3vecINtB4y_3VecB2g_E14extend_trustedINtB1J_3MapBF_B2T_EE0E0E0EB36_, symObjAddr: 0xAB4, symBinAddr: 0x4D998, symSize: 0x1C8 }
  - { offset: 0x50680, size: 0x8, addend: 0x0, symName: __RINvXs2J_NtNtCs7dfkhshTrE4_4core5slice4iterINtB7_4IterReENtNtNtNtBb_4iter6traits8iterator8Iterator8positionNCNvMs3_NtNtCsinFlhxATJYn_4pyo35impl_16extract_argumentNtB1P_19FunctionDescription36find_keyword_parameter_in_positional0ECs1NyPVrLiP35_11crystal_toe, symObjAddr: 0xC7C, symBinAddr: 0x4DB60, symSize: 0x1B8 }
  - { offset: 0x5088B, size: 0x8, addend: 0x0, symName: __RNvXs2J_NtNtCs7dfkhshTrE4_4core5slice4iterINtB6_4IterINtNtCsinFlhxATJYn_4pyo38instance8BorrowedNtNtNtBU_5types3any5PyAnyEENtNtNtNtBa_4iter6traits8iterator8Iterator4nextCs1NyPVrLiP35_11crystal_toe, symObjAddr: 0xFB8, symBinAddr: 0x4DE9C, symSize: 0x84 }
  - { offset: 0x50941, size: 0x8, addend: 0x0, symName: __RNvXs2J_NtNtCs7dfkhshTrE4_4core5slice4iterINtB6_4IterNtNtCs1NyPVrLiP35_11crystal_toe5atoms6SectorENtNtNtNtBa_4iter6traits8iterator8Iterator4nextBT_, symObjAddr: 0x103C, symBinAddr: 0x4DF20, symSize: 0x84 }
  - { offset: 0x509F7, size: 0x8, addend: 0x0, symName: __RNvXs2J_NtNtCs7dfkhshTrE4_4core5slice4iterINtB6_4IterNtNtCs1NyPVrLiP35_11crystal_toe7heyting5TruthENtNtNtNtBa_4iter6traits8iterator8Iterator4nextBT_, symObjAddr: 0x10C0, symBinAddr: 0x4DFA4, symSize: 0x84 }
  - { offset: 0x50FB1, size: 0x8, addend: 0x0, symName: __RINvYINtNtNtCs7dfkhshTrE4_4core5slice4iter4IterINtNtCsinFlhxATJYn_4pyo38instance8BorrowedNtNtNtBO_5types3any5PyAnyEENtNtNtNtBa_4iter6traits8iterator8Iterator6copiedBJ_ECs1NyPVrLiP35_11crystal_toe, symObjAddr: 0xE34, symBinAddr: 0x4DD18, symSize: 0x1C }
  - { offset: 0x50FF1, size: 0x8, addend: 0x0, symName: __RINvYINtNtNtCs7dfkhshTrE4_4core5slice4iter4IterNtNtCs1NyPVrLiP35_11crystal_toe12cross_domain10CrossTraceENtNtNtNtBa_4iter6traits8iterator8Iterator3mapjNCNvBL_13n_cross_links0EBN_, symObjAddr: 0xE50, symBinAddr: 0x4DD34, symSize: 0x1C }
  - { offset: 0x51049, size: 0x8, addend: 0x0, symName: __RINvYINtNtNtCs7dfkhshTrE4_4core5slice4iter4IterReENtNtNtNtBa_4iter6traits8iterator8Iterator3mapNtNtCs2iVXuAemrgm_5alloc6string6StringNCNCNvMs1Y_NtCs1NyPVrLiP35_11crystal_toe2pyNtB2i_13PyCrossDomain6traces00EB2k_, symObjAddr: 0xE6C, symBinAddr: 0x4DD50, symSize: 0x1C }
  - { offset: 0x510A1, size: 0x8, addend: 0x0, symName: __RINvYINtNtNtCs7dfkhshTrE4_4core5slice4iter4IterReENtNtNtNtBa_4iter6traits8iterator8Iterator3mapNtNtCs2iVXuAemrgm_5alloc6string6StringNCNCNvMs2t_NtCs1NyPVrLiP35_11crystal_toe2pyNtB2i_7PyTower10key_layerss_00EB2k_, symObjAddr: 0xE88, symBinAddr: 0x4DD6C, symSize: 0x1C }
  - { offset: 0x510F9, size: 0x8, addend: 0x0, symName: __RINvYINtNtNtCs7dfkhshTrE4_4core5slice4iter4IterReENtNtNtNtBa_4iter6traits8iterator8Iterator3mapNtNtCs2iVXuAemrgm_5alloc6string6StringNCNCNvMs2t_NtCs1NyPVrLiP35_11crystal_toe2pyNtB2i_7PyTower6layers00EB2k_, symObjAddr: 0xEA4, symBinAddr: 0x4DD88, symSize: 0x1C }
  - { offset: 0x51151, size: 0x8, addend: 0x0, symName: __RNvYINtNtNtCs7dfkhshTrE4_4core5slice4iter4IterNtNtCs1NyPVrLiP35_11crystal_toe5atoms6SectorENtNtNtNtB9_4iter6traits8iterator8Iterator9enumerateBM_, symObjAddr: 0x1144, symBinAddr: 0x4E028, symSize: 0x28 }
  - { offset: 0x51BEB, size: 0x8, addend: 0x0, symName: __RNvMs4_NtNtCs7dfkhshTrE4_4core5slice4iterINtB5_4IterINtNtCsinFlhxATJYn_4pyo38instance8BorrowedNtNtNtBT_5types3any5PyAnyEE3newCs1NyPVrLiP35_11crystal_toe, symObjAddr: 0xEC0, symBinAddr: 0x4DDA4, symSize: 0x50 }
  - { offset: 0x51D9B, size: 0x8, addend: 0x0, symName: __RNvMs4_NtNtCs7dfkhshTrE4_4core5slice4iterINtB5_4IterNtNtCs1NyPVrLiP35_11crystal_toe12cross_domain10CrossTraceE3newBS_, symObjAddr: 0xF10, symBinAddr: 0x4DDF4, symSize: 0x58 }
  - { offset: 0x51F4B, size: 0x8, addend: 0x0, symName: __RNvMs4_NtNtCs7dfkhshTrE4_4core5slice4iterINtB5_4IterNtNtCs1NyPVrLiP35_11crystal_toe5atoms6SectorE3newBS_, symObjAddr: 0xF68, symBinAddr: 0x4DE4C, symSize: 0x50 }
  - { offset: 0x522EF, size: 0x8, addend: 0x0, symName: __RNvNtCs1NyPVrLiP35_11crystal_toe3vev17conversion_factor, symObjAddr: 0x0, symBinAddr: 0x4E050, symSize: 0x88 }
  - { offset: 0x52306, size: 0x8, addend: 0x0, symName: __RNvNtCs1NyPVrLiP35_11crystal_toe3vev17conversion_factor, symObjAddr: 0x0, symBinAddr: 0x4E050, symSize: 0x88 }
  - { offset: 0x523DC, size: 0x8, addend: 0x0, symName: __RINvNvNtCskXqYSXpV4rx_3std9panicking12catch_unwind7do_callNCINvNtNtCsinFlhxATJYn_4pyo35impl_10trampoline10trampolineNCNvBZ_11module_init0ONtNtCsgKB9CBwAW8Q_8pyo3_ffi6object8PyObjectE0INtNtCs7dfkhshTrE4_4core6result6ResultB2b_NtNtB13_3err5PyErrEECs1NyPVrLiP35_11crystal_toe, symObjAddr: 0x0, symBinAddr: 0x4E0D8, symSize: 0x88 }
  - { offset: 0x53309, size: 0x8, addend: 0x0, symName: __RINvNvNtCskXqYSXpV4rx_3std9panicking12catch_unwind7do_callNCINvNtNtCsinFlhxATJYn_4pyo35impl_10trampoline10trampolineNCNvBZ_11module_init0ONtNtCsgKB9CBwAW8Q_8pyo3_ffi6object8PyObjectE0INtNtCs7dfkhshTrE4_4core6result6ResultB2b_NtNtB13_3err5PyErrEECs1NyPVrLiP35_11crystal_toe, symObjAddr: 0x0, symBinAddr: 0x4E0D8, symSize: 0x88 }
  - { offset: 0x53404, size: 0x8, addend: 0x0, symName: __RINvNvNtCskXqYSXpV4rx_3std9panicking12catch_unwind7do_callNCINvNtNtCsinFlhxATJYn_4pyo35impl_10trampoline10trampolineNCNvBZ_11richcmpfunc0ONtNtCsgKB9CBwAW8Q_8pyo3_ffi6object8PyObjectE0INtNtCs7dfkhshTrE4_4core6result6ResultB2b_NtNtB13_3err5PyErrEECs1NyPVrLiP35_11crystal_toe, symObjAddr: 0x88, symBinAddr: 0x4E160, symSize: 0x98 }
  - { offset: 0x534FF, size: 0x8, addend: 0x0, symName: __RINvNvNtCskXqYSXpV4rx_3std9panicking12catch_unwind7do_callNCINvNtNtCsinFlhxATJYn_4pyo35impl_10trampoline10trampolineNCNvBZ_22fastcall_with_keywords0ONtNtCsgKB9CBwAW8Q_8pyo3_ffi6object8PyObjectE0INtNtCs7dfkhshTrE4_4core6result6ResultB2m_NtNtB13_3err5PyErrEECs1NyPVrLiP35_11crystal_toe, symObjAddr: 0x120, symBinAddr: 0x4E1F8, symSize: 0x94 }
  - { offset: 0x535FA, size: 0x8, addend: 0x0, symName: __RINvNvNtCskXqYSXpV4rx_3std9panicking12catch_unwind7do_callNCINvNtNtCsinFlhxATJYn_4pyo35impl_10trampoline10trampolineNCNvBZ_6noargs0ONtNtCsgKB9CBwAW8Q_8pyo3_ffi6object8PyObjectE0INtNtCs7dfkhshTrE4_4core6result6ResultB25_NtNtB13_3err5PyErrEECs1NyPVrLiP35_11crystal_toe, symObjAddr: 0x1B4, symBinAddr: 0x4E28C, symSize: 0x94 }
  - { offset: 0x536F5, size: 0x8, addend: 0x0, symName: __RINvNvNtCskXqYSXpV4rx_3std9panicking12catch_unwind7do_callNCINvNtNtCsinFlhxATJYn_4pyo35impl_10trampoline10trampolineNCNvBZ_7newfunc0ONtNtCsgKB9CBwAW8Q_8pyo3_ffi6object8PyObjectE0INtNtCs7dfkhshTrE4_4core6result6ResultB26_NtNtB13_3err5PyErrEECs1NyPVrLiP35_11crystal_toe, symObjAddr: 0x248, symBinAddr: 0x4E320, symSize: 0x98 }
  - { offset: 0x537F0, size: 0x8, addend: 0x0, symName: __RINvNvNtCskXqYSXpV4rx_3std9panicking12catch_unwind7do_callNCINvNtNtCsinFlhxATJYn_4pyo35impl_10trampoline10trampolineNCNvBZ_8reprfunc0ONtNtCsgKB9CBwAW8Q_8pyo3_ffi6object8PyObjectE0INtNtCs7dfkhshTrE4_4core6result6ResultB27_NtNtB13_3err5PyErrEECs1NyPVrLiP35_11crystal_toe, symObjAddr: 0x2E0, symBinAddr: 0x4E3B8, symSize: 0x94 }
  - { offset: 0x538EB, size: 0x8, addend: 0x0, symName: __RINvNvNtCskXqYSXpV4rx_3std9panicking12catch_unwind7do_callNCINvNtNtCsinFlhxATJYn_4pyo35impl_10trampoline21trampoline_unraisableNCNvBZ_7dealloc0E0INtNtCs7dfkhshTrE4_4core6result6ResultuNtNtB13_3err5PyErrEECs1NyPVrLiP35_11crystal_toe, symObjAddr: 0x374, symBinAddr: 0x4E44C, symSize: 0x94 }
  - { offset: 0x539E6, size: 0x8, addend: 0x0, symName: __RINvNvNtCskXqYSXpV4rx_3std9panicking12catch_unwind8do_catchNCINvNtNtCsinFlhxATJYn_4pyo35impl_10trampoline10trampolineNCNvB10_11module_init0ONtNtCsgKB9CBwAW8Q_8pyo3_ffi6object8PyObjectE0INtNtCs7dfkhshTrE4_4core6result6ResultB2d_NtNtB14_3err5PyErrEECs1NyPVrLiP35_11crystal_toe, symObjAddr: 0x408, symBinAddr: 0x4E4E0, symSize: 0x70 }
  - { offset: 0x53A7B, size: 0x8, addend: 0x0, symName: __RINvNvNtCskXqYSXpV4rx_3std9panicking12catch_unwind8do_catchNCINvNtNtCsinFlhxATJYn_4pyo35impl_10trampoline10trampolineNCNvB10_11richcmpfunc0ONtNtCsgKB9CBwAW8Q_8pyo3_ffi6object8PyObjectE0INtNtCs7dfkhshTrE4_4core6result6ResultB2d_NtNtB14_3err5PyErrEECs1NyPVrLiP35_11crystal_toe, symObjAddr: 0x478, symBinAddr: 0x4E550, symSize: 0x70 }
  - { offset: 0x53B10, size: 0x8, addend: 0x0, symName: __RINvNvNtCskXqYSXpV4rx_3std9panicking12catch_unwind8do_catchNCINvNtNtCsinFlhxATJYn_4pyo35impl_10trampoline10trampolineNCNvB10_22fastcall_with_keywords0ONtNtCsgKB9CBwAW8Q_8pyo3_ffi6object8PyObjectE0INtNtCs7dfkhshTrE4_4core6result6ResultB2o_NtNtB14_3err5PyErrEECs1NyPVrLiP35_11crystal_toe, symObjAddr: 0x4E8, symBinAddr: 0x4E5C0, symSize: 0x70 }
  - { offset: 0x53BA5, size: 0x8, addend: 0x0, symName: __RINvNvNtCskXqYSXpV4rx_3std9panicking12catch_unwind8do_catchNCINvNtNtCsinFlhxATJYn_4pyo35impl_10trampoline10trampolineNCNvB10_6noargs0ONtNtCsgKB9CBwAW8Q_8pyo3_ffi6object8PyObjectE0INtNtCs7dfkhshTrE4_4core6result6ResultB27_NtNtB14_3err5PyErrEECs1NyPVrLiP35_11crystal_toe, symObjAddr: 0x558, symBinAddr: 0x4E630, symSize: 0x70 }
  - { offset: 0x53C3A, size: 0x8, addend: 0x0, symName: __RINvNvNtCskXqYSXpV4rx_3std9panicking12catch_unwind8do_catchNCINvNtNtCsinFlhxATJYn_4pyo35impl_10trampoline10trampolineNCNvB10_7newfunc0ONtNtCsgKB9CBwAW8Q_8pyo3_ffi6object8PyObjectE0INtNtCs7dfkhshTrE4_4core6result6ResultB28_NtNtB14_3err5PyErrEECs1NyPVrLiP35_11crystal_toe, symObjAddr: 0x5C8, symBinAddr: 0x4E6A0, symSize: 0x70 }
  - { offset: 0x53CCF, size: 0x8, addend: 0x0, symName: __RINvNvNtCskXqYSXpV4rx_3std9panicking12catch_unwind8do_catchNCINvNtNtCsinFlhxATJYn_4pyo35impl_10trampoline10trampolineNCNvB10_8reprfunc0ONtNtCsgKB9CBwAW8Q_8pyo3_ffi6object8PyObjectE0INtNtCs7dfkhshTrE4_4core6result6ResultB29_NtNtB14_3err5PyErrEECs1NyPVrLiP35_11crystal_toe, symObjAddr: 0x638, symBinAddr: 0x4E710, symSize: 0x70 }
  - { offset: 0x53D64, size: 0x8, addend: 0x0, symName: __RINvNvNtCskXqYSXpV4rx_3std9panicking12catch_unwind8do_catchNCINvNtNtCsinFlhxATJYn_4pyo35impl_10trampoline21trampoline_unraisableNCNvB10_7dealloc0E0INtNtCs7dfkhshTrE4_4core6result6ResultuNtNtB14_3err5PyErrEECs1NyPVrLiP35_11crystal_toe, symObjAddr: 0x6A8, symBinAddr: 0x4E780, symSize: 0x70 }
  - { offset: 0x544EC, size: 0x8, addend: 0x0, symName: __RNvNtCs2iVXuAemrgm_5alloc3fmt6formatCs1NyPVrLiP35_11crystal_toe, symObjAddr: 0x0, symBinAddr: 0x4E7F0, symSize: 0xD8 }
  - { offset: 0x54A04, size: 0x8, addend: 0x0, symName: __RNvNtCs2iVXuAemrgm_5alloc3fmt6formatCs1NyPVrLiP35_11crystal_toe, symObjAddr: 0x0, symBinAddr: 0x4E7F0, symSize: 0xD8 }
  - { offset: 0x54BB4, size: 0x8, addend: 0x0, symName: __RNvNtCs1NyPVrLiP35_11crystal_toe5tower14alpha_at_layer, symObjAddr: 0x0, symBinAddr: 0x4E8C8, symSize: 0x64 }
  - { offset: 0x54BCB, size: 0x8, addend: 0x0, symName: __RNvNtCs1NyPVrLiP35_11crystal_toe5tower14alpha_at_layer, symObjAddr: 0x0, symBinAddr: 0x4E8C8, symSize: 0x64 }
  - { offset: 0x54BF7, size: 0x8, addend: 0x0, symName: __RNvNtCs1NyPVrLiP35_11crystal_toe5tower14spectral_tower, symObjAddr: 0x64, symBinAddr: 0x4E92C, symSize: 0x180 }
  - { offset: 0x54C6C, size: 0x8, addend: 0x0, symName: __RNvNtCs1NyPVrLiP35_11crystal_toe5tower18alpha_inv_at_layer, symObjAddr: 0x1E4, symBinAddr: 0x4EAAC, symSize: 0x58 }
  - { offset: 0x54C98, size: 0x8, addend: 0x0, symName: __RNvNtCs1NyPVrLiP35_11crystal_toe5tower6births, symObjAddr: 0x23C, symBinAddr: 0x4EB04, symSize: 0x174 }
  - { offset: 0x54F7F, size: 0x8, addend: 0x0, symName: __RNvXsD_NtNtCs7dfkhshTrE4_4core4iter5rangeyNtB5_4Step17forward_uncheckedCs1NyPVrLiP35_11crystal_toe, symObjAddr: 0x0, symBinAddr: 0x4EC78, symSize: 0x54 }
  - { offset: 0x54FD6, size: 0x8, addend: 0x0, symName: __RNvXsD_NtNtCs7dfkhshTrE4_4core4iter5rangeyNtB5_4Step17forward_uncheckedCs1NyPVrLiP35_11crystal_toe, symObjAddr: 0x0, symBinAddr: 0x4EC78, symSize: 0x54 }
  - { offset: 0x55065, size: 0x8, addend: 0x0, symName: __RINvNtCskXqYSXpV4rx_3std5panic12catch_unwindNCINvNtNtCsinFlhxATJYn_4pyo35impl_10trampoline10trampolineNCNvBL_11module_init0ONtNtCsgKB9CBwAW8Q_8pyo3_ffi6object8PyObjectE0INtNtCs7dfkhshTrE4_4core6result6ResultB1X_NtNtBP_3err5PyErrEECs1NyPVrLiP35_11crystal_toe, symObjAddr: 0x0, symBinAddr: 0x4ECCC, symSize: 0xD4 }
  - { offset: 0x55604, size: 0x8, addend: 0x0, symName: __RINvNtCskXqYSXpV4rx_3std5panic12catch_unwindNCINvNtNtCsinFlhxATJYn_4pyo35impl_10trampoline10trampolineNCNvBL_11module_init0ONtNtCsgKB9CBwAW8Q_8pyo3_ffi6object8PyObjectE0INtNtCs7dfkhshTrE4_4core6result6ResultB1X_NtNtBP_3err5PyErrEECs1NyPVrLiP35_11crystal_toe, symObjAddr: 0x0, symBinAddr: 0x4ECCC, symSize: 0xD4 }
  - { offset: 0x55729, size: 0x8, addend: 0x0, symName: __RINvNtCskXqYSXpV4rx_3std5panic12catch_unwindNCINvNtNtCsinFlhxATJYn_4pyo35impl_10trampoline10trampolineNCNvBL_11richcmpfunc0ONtNtCsgKB9CBwAW8Q_8pyo3_ffi6object8PyObjectE0INtNtCs7dfkhshTrE4_4core6result6ResultB1X_NtNtBP_3err5PyErrEECs1NyPVrLiP35_11crystal_toe, symObjAddr: 0xD4, symBinAddr: 0x4EDA0, symSize: 0xF8 }
  - { offset: 0x55883, size: 0x8, addend: 0x0, symName: __RINvNtCskXqYSXpV4rx_3std5panic12catch_unwindNCINvNtNtCsinFlhxATJYn_4pyo35impl_10trampoline10trampolineNCNvBL_22fastcall_with_keywords0ONtNtCsgKB9CBwAW8Q_8pyo3_ffi6object8PyObjectE0INtNtCs7dfkhshTrE4_4core6result6ResultB28_NtNtBP_3err5PyErrEECs1NyPVrLiP35_11crystal_toe, symObjAddr: 0x1CC, symBinAddr: 0x4EE98, symSize: 0x10C }
  - { offset: 0x559DF, size: 0x8, addend: 0x0, symName: __RINvNtCskXqYSXpV4rx_3std5panic12catch_unwindNCINvNtNtCsinFlhxATJYn_4pyo35impl_10trampoline10trampolineNCNvBL_6noargs0ONtNtCsgKB9CBwAW8Q_8pyo3_ffi6object8PyObjectE0INtNtCs7dfkhshTrE4_4core6result6ResultB1R_NtNtBP_3err5PyErrEECs1NyPVrLiP35_11crystal_toe, symObjAddr: 0x2D8, symBinAddr: 0x4EFA4, symSize: 0xE4 }
  - { offset: 0x55B04, size: 0x8, addend: 0x0, symName: __RINvNtCskXqYSXpV4rx_3std5panic12catch_unwindNCINvNtNtCsinFlhxATJYn_4pyo35impl_10trampoline10trampolineNCNvBL_7newfunc0ONtNtCsgKB9CBwAW8Q_8pyo3_ffi6object8PyObjectE0INtNtCs7dfkhshTrE4_4core6result6ResultB1S_NtNtBP_3err5PyErrEECs1NyPVrLiP35_11crystal_toe, symObjAddr: 0x3BC, symBinAddr: 0x4F088, symSize: 0xF8 }
  - { offset: 0x55C5E, size: 0x8, addend: 0x0, symName: __RINvNtCskXqYSXpV4rx_3std5panic12catch_unwindNCINvNtNtCsinFlhxATJYn_4pyo35impl_10trampoline10trampolineNCNvBL_8reprfunc0ONtNtCsgKB9CBwAW8Q_8pyo3_ffi6object8PyObjectE0INtNtCs7dfkhshTrE4_4core6result6ResultB1T_NtNtBP_3err5PyErrEECs1NyPVrLiP35_11crystal_toe, symObjAddr: 0x4B4, symBinAddr: 0x4F180, symSize: 0xE4 }
  - { offset: 0x55D83, size: 0x8, addend: 0x0, symName: __RINvNtCskXqYSXpV4rx_3std5panic12catch_unwindNCINvNtNtCsinFlhxATJYn_4pyo35impl_10trampoline21trampoline_unraisableNCNvBL_7dealloc0E0INtNtCs7dfkhshTrE4_4core6result6ResultuNtNtBP_3err5PyErrEECs1NyPVrLiP35_11crystal_toe, symObjAddr: 0x598, symBinAddr: 0x4F264, symSize: 0xE4 }
  - { offset: 0x573B1, size: 0x8, addend: 0x0, symName: __RNvXs9_NtNtCsinFlhxATJYn_4pyo35types5tupleNtB5_21BorrowedTupleIteratorNtNtNtNtCs7dfkhshTrE4_4core4iter6traits8iterator8Iterator4nextCs1NyPVrLiP35_11crystal_toe, symObjAddr: 0x0, symBinAddr: 0x4F39C, symSize: 0x9C }
  - { offset: 0x57457, size: 0x8, addend: 0x0, symName: __RNvXs9_NtNtCsinFlhxATJYn_4pyo35types5tupleNtB5_21BorrowedTupleIteratorNtNtNtNtCs7dfkhshTrE4_4core4iter6traits8iterator8Iterator4nextCs1NyPVrLiP35_11crystal_toe, symObjAddr: 0x0, symBinAddr: 0x4F39C, symSize: 0x9C }
  - { offset: 0x57853, size: 0x8, addend: 0x0, symName: __RNvNvMs_NtCs2iVXuAemrgm_5alloc3vecINtB6_3VecppE13from_parts_in18precondition_checkCs1NyPVrLiP35_11crystal_toe, symObjAddr: 0x0, symBinAddr: 0x4F438, symSize: 0x60 }
  - { offset: 0x57874, size: 0x8, addend: 0x0, symName: __RNvNvMs_NtCs2iVXuAemrgm_5alloc3vecINtB6_3VecppE13from_parts_in18precondition_checkCs1NyPVrLiP35_11crystal_toe, symObjAddr: 0x0, symBinAddr: 0x4F438, symSize: 0x60 }
  - { offset: 0x578CD, size: 0x8, addend: 0x0, symName: __RNvNvMs_NtCs2iVXuAemrgm_5alloc3vecINtB6_3VecppE17from_raw_parts_in18precondition_checkCs1NyPVrLiP35_11crystal_toe, symObjAddr: 0x60, symBinAddr: 0x4F498, symSize: 0x60 }
  - { offset: 0x57926, size: 0x8, addend: 0x0, symName: __RNvNvMs_NtCs2iVXuAemrgm_5alloc3vecINtB6_3VecppE7set_len18precondition_checkCs1NyPVrLiP35_11crystal_toe, symObjAddr: 0xC0, symBinAddr: 0x4F4F8, symSize: 0x60 }
  - { offset: 0x579D0, size: 0x8, addend: 0x0, symName: __RINvNtCs7dfkhshTrE4_4core3ptr13drop_in_placeAINtNtCsinFlhxATJYn_4pyo38instance5BoundNtNtNtBM_5types3any5PyAnyEj4_ECs1NyPVrLiP35_11crystal_toe, symObjAddr: 0x0, symBinAddr: 0x4F558, symSize: 0xA4 }
  - { offset: 0x57DA9, size: 0x8, addend: 0x0, symName: __RINvNtCs7dfkhshTrE4_4core3ptr13drop_in_placeAINtNtCsinFlhxATJYn_4pyo38instance5BoundNtNtNtBM_5types3any5PyAnyEj4_ECs1NyPVrLiP35_11crystal_toe, symObjAddr: 0x0, symBinAddr: 0x4F558, symSize: 0xA4 }
  - { offset: 0x57DD8, size: 0x8, addend: 0x0, symName: __RINvNtCs7dfkhshTrE4_4core3ptr13drop_in_placeINtNtB4_6option6OptionINtNtB4_6result6ResultINtNtCsinFlhxATJYn_4pyo38instance5BoundNtNtNtB1t_5types3any5PyAnyENtNtB1t_3err5PyErrEEECs1NyPVrLiP35_11crystal_toe, symObjAddr: 0xC8, symBinAddr: 0x4F5FC, symSize: 0x44 }
  - { offset: 0x57E07, size: 0x8, addend: 0x0, symName: __RINvNtCs7dfkhshTrE4_4core3ptr13drop_in_placeINtNtB4_6option6OptionINtNtCs2iVXuAemrgm_5alloc6borrow3CowNtNtNtB4_3ffi5c_str4CStrEEECs1NyPVrLiP35_11crystal_toe, symObjAddr: 0x10C, symBinAddr: 0x4F640, symSize: 0x44 }
  - { offset: 0x57E36, size: 0x8, addend: 0x0, symName: __RINvNtCs7dfkhshTrE4_4core3ptr13drop_in_placeINtNtB4_6option6OptionINtNtCsinFlhxATJYn_4pyo36pycell5PyRefNtNtCs1NyPVrLiP35_11crystal_toe2py11PyClassicalEEEB1H_, symObjAddr: 0x150, symBinAddr: 0x4F684, symSize: 0x44 }
  - { offset: 0x57E65, size: 0x8, addend: 0x0, symName: __RINvNtCs7dfkhshTrE4_4core3ptr13drop_in_placeINtNtB4_6option6OptionINtNtCsinFlhxATJYn_4pyo36pycell5PyRefNtNtCs1NyPVrLiP35_11crystal_toe2py11PyCondensedEEEB1H_, symObjAddr: 0x194, symBinAddr: 0x4F6C8, symSize: 0x44 }
  - { offset: 0x57E94, size: 0x8, addend: 0x0, symName: __RINvNtCs7dfkhshTrE4_4core3ptr13drop_in_placeINtNtB4_6option6OptionINtNtCsinFlhxATJYn_4pyo36pycell5PyRefNtNtCs1NyPVrLiP35_11crystal_toe2py11PyFriedmannEEEB1H_, symObjAddr: 0x1D8, symBinAddr: 0x4F70C, symSize: 0x44 }
  - { offset: 0x57EC3, size: 0x8, addend: 0x0, symName: __RINvNtCs7dfkhshTrE4_4core3ptr13drop_in_placeINtNtB4_6option6OptionINtNtCsinFlhxATJYn_4pyo36pycell5PyRefNtNtCs1NyPVrLiP35_11crystal_toe2py11PyHierarchyEEEB1H_, symObjAddr: 0x21C, symBinAddr: 0x4F750, symSize: 0x44 }
  - { offset: 0x57EF2, size: 0x8, addend: 0x0, symName: __RINvNtCs7dfkhshTrE4_4core3ptr13drop_in_placeINtNtB4_6option6OptionINtNtCsinFlhxATJYn_4pyo36pycell5PyRefNtNtCs1NyPVrLiP35_11crystal_toe2py13PyAlphaProtonEEEB1H_, symObjAddr: 0x260, symBinAddr: 0x4F794, symSize: 0x44 }
  - { offset: 0x57F21, size: 0x8, addend: 0x0, symName: __RINvNtCs7dfkhshTrE4_4core3ptr13drop_in_placeINtNtB4_6option6OptionINtNtCsinFlhxATJYn_4pyo36pycell5PyRefNtNtCs1NyPVrLiP35_11crystal_toe2py13PyCrossDomainEEEB1H_, symObjAddr: 0x2A4, symBinAddr: 0x4F7D8, symSize: 0x44 }
  - { offset: 0x57F50, size: 0x8, addend: 0x0, symName: __RINvNtCs7dfkhshTrE4_4core3ptr13drop_in_placeINtNtB4_6option6OptionINtNtCsinFlhxATJYn_4pyo36pycell5PyRefNtNtCs1NyPVrLiP35_11crystal_toe2py14PyAlgebraStateEEEB1H_, symObjAddr: 0x2E8, symBinAddr: 0x4F81C, symSize: 0x44 }
  - { offset: 0x57F7F, size: 0x8, addend: 0x0, symName: __RINvNtCs7dfkhshTrE4_4core3ptr13drop_in_placeINtNtB4_6option6OptionINtNtCsinFlhxATJYn_4pyo36pycell5PyRefNtNtCs1NyPVrLiP35_11crystal_toe2py4PyEMEEEB1H_, symObjAddr: 0x32C, symBinAddr: 0x4F860, symSize: 0x44 }
  - { offset: 0x57FAE, size: 0x8, addend: 0x0, symName: __RINvNtCs7dfkhshTrE4_4core3ptr13drop_in_placeINtNtB4_6option6OptionINtNtCsinFlhxATJYn_4pyo36pycell5PyRefNtNtCs1NyPVrLiP35_11crystal_toe2py4PyGREEEB1H_, symObjAddr: 0x370, symBinAddr: 0x4F8A4, symSize: 0x44 }
  - { offset: 0x57FDD, size: 0x8, addend: 0x0, symName: __RINvNtCs7dfkhshTrE4_4core3ptr13drop_in_placeINtNtB4_6option6OptionINtNtCsinFlhxATJYn_4pyo36pycell5PyRefNtNtCs1NyPVrLiP35_11crystal_toe2py4PyGWEEEB1H_, symObjAddr: 0x3B4, symBinAddr: 0x4F8E8, symSize: 0x44 }
  - { offset: 0x5800C, size: 0x8, addend: 0x0, symName: __RINvNtCs7dfkhshTrE4_4core3ptr13drop_in_placeINtNtB4_6option6OptionINtNtCsinFlhxATJYn_4pyo36pycell5PyRefNtNtCs1NyPVrLiP35_11crystal_toe2py4PyMDEEEB1H_, symObjAddr: 0x3F8, symBinAddr: 0x4F92C, symSize: 0x44 }
  - { offset: 0x5803B, size: 0x8, addend: 0x0, symName: __RINvNtCs7dfkhshTrE4_4core3ptr13drop_in_placeINtNtB4_6option6OptionINtNtCsinFlhxATJYn_4pyo36pycell5PyRefNtNtCs1NyPVrLiP35_11crystal_toe2py5PyBioEEEB1H_, symObjAddr: 0x43C, symBinAddr: 0x4F970, symSize: 0x44 }
  - { offset: 0x5806A, size: 0x8, addend: 0x0, symName: __RINvNtCs7dfkhshTrE4_4core3ptr13drop_in_placeINtNtB4_6option6OptionINtNtCsinFlhxATJYn_4pyo36pycell5PyRefNtNtCs1NyPVrLiP35_11crystal_toe2py5PyCFDEEEB1H_, symObjAddr: 0x480, symBinAddr: 0x4F9B4, symSize: 0x44 }
  - { offset: 0x58099, size: 0x8, addend: 0x0, symName: __RINvNtCs7dfkhshTrE4_4core3ptr13drop_in_placeINtNtB4_6option6OptionINtNtCsinFlhxATJYn_4pyo36pycell5PyRefNtNtCs1NyPVrLiP35_11crystal_toe2py5PyQCDEEEB1H_, symObjAddr: 0x4C4, symBinAddr: 0x4F9F8, symSize: 0x44 }
  - { offset: 0x580C8, size: 0x8, addend: 0x0, symName: __RINvNtCs7dfkhshTrE4_4core3ptr13drop_in_placeINtNtB4_6option6OptionINtNtCsinFlhxATJYn_4pyo36pycell5PyRefNtNtCs1NyPVrLiP35_11crystal_toe2py5PyQFTEEEB1H_, symObjAddr: 0x508, symBinAddr: 0x4FA3C, symSize: 0x44 }
  - { offset: 0x580F7, size: 0x8, addend: 0x0, symName: __RINvNtCs7dfkhshTrE4_4core3ptr13drop_in_placeINtNtB4_6option6OptionINtNtCsinFlhxATJYn_4pyo36pycell5PyRefNtNtCs1NyPVrLiP35_11crystal_toe2py5PyToeEEEB1H_, symObjAddr: 0x54C, symBinAddr: 0x4FA80, symSize: 0x44 }
  - { offset: 0x58126, size: 0x8, addend: 0x0, symName: __RINvNtCs7dfkhshTrE4_4core3ptr13drop_in_placeINtNtB4_6option6OptionINtNtCsinFlhxATJYn_4pyo36pycell5PyRefNtNtCs1NyPVrLiP35_11crystal_toe2py6PyChemEEEB1H_, symObjAddr: 0x590, symBinAddr: 0x4FAC4, symSize: 0x44 }
  - { offset: 0x58155, size: 0x8, addend: 0x0, symName: __RINvNtCs7dfkhshTrE4_4core3ptr13drop_in_placeINtNtB4_6option6OptionINtNtCsinFlhxATJYn_4pyo36pycell5PyRefNtNtCs1NyPVrLiP35_11crystal_toe2py7PyAstroEEEB1H_, symObjAddr: 0x5D4, symBinAddr: 0x4FB08, symSize: 0x44 }
  - { offset: 0x58184, size: 0x8, addend: 0x0, symName: __RINvNtCs7dfkhshTrE4_4core3ptr13drop_in_placeINtNtB4_6option6OptionINtNtCsinFlhxATJYn_4pyo36pycell5PyRefNtNtCs1NyPVrLiP35_11crystal_toe2py7PyCosmoEEEB1H_, symObjAddr: 0x618, symBinAddr: 0x4FB4C, symSize: 0x44 }
  - { offset: 0x581B3, size: 0x8, addend: 0x0, symName: __RINvNtCs7dfkhshTrE4_4core3ptr13drop_in_placeINtNtB4_6option6OptionINtNtCsinFlhxATJYn_4pyo36pycell5PyRefNtNtCs1NyPVrLiP35_11crystal_toe2py7PyDecayEEEB1H_, symObjAddr: 0x65C, symBinAddr: 0x4FB90, symSize: 0x44 }
  - { offset: 0x581E2, size: 0x8, addend: 0x0, symName: __RINvNtCs7dfkhshTrE4_4core3ptr13drop_in_placeINtNtB4_6option6OptionINtNtCsinFlhxATJYn_4pyo36pycell5PyRefNtNtCs1NyPVrLiP35_11crystal_toe2py7PyGaugeEEEB1H_, symObjAddr: 0x6A0, symBinAddr: 0x4FBD4, symSize: 0x44 }
  - { offset: 0x58211, size: 0x8, addend: 0x0, symName: __RINvNtCs7dfkhshTrE4_4core3ptr13drop_in_placeINtNtB4_6option6OptionINtNtCsinFlhxATJYn_4pyo36pycell5PyRefNtNtCs1NyPVrLiP35_11crystal_toe2py7PyNBodyEEEB1H_, symObjAddr: 0x6E4, symBinAddr: 0x4FC18, symSize: 0x44 }
  - { offset: 0x58240, size: 0x8, addend: 0x0, symName: __RINvNtCs7dfkhshTrE4_4core3ptr13drop_in_placeINtNtB4_6option6OptionINtNtCsinFlhxATJYn_4pyo36pycell5PyRefNtNtCs1NyPVrLiP35_11crystal_toe2py7PyQInfoEEEB1H_, symObjAddr: 0x728, symBinAddr: 0x4FC5C, symSize: 0x44 }
  - { offset: 0x5826F, size: 0x8, addend: 0x0, symName: __RINvNtCs7dfkhshTrE4_4core3ptr13drop_in_placeINtNtB4_6option6OptionINtNtCsinFlhxATJYn_4pyo36pycell5PyRefNtNtCs1NyPVrLiP35_11crystal_toe2py7PyRigidEEEB1H_, symObjAddr: 0x76C, symBinAddr: 0x4FCA0, symSize: 0x44 }
  - { offset: 0x5829E, size: 0x8, addend: 0x0, symName: __RINvNtCs7dfkhshTrE4_4core3ptr13drop_in_placeINtNtB4_6option6OptionINtNtCsinFlhxATJYn_4pyo36pycell5PyRefNtNtCs1NyPVrLiP35_11crystal_toe2py7PyTowerEEEB1H_, symObjAddr: 0x7B0, symBinAddr: 0x4FCE4, symSize: 0x44 }
  - { offset: 0x582CD, size: 0x8, addend: 0x0, symName: __RINvNtCs7dfkhshTrE4_4core3ptr13drop_in_placeINtNtB4_6option6OptionINtNtCsinFlhxATJYn_4pyo36pycell5PyRefNtNtCs1NyPVrLiP35_11crystal_toe2py7PyTruthEEEB1H_, symObjAddr: 0x7F4, symBinAddr: 0x4FD28, symSize: 0x44 }
  - { offset: 0x582FC, size: 0x8, addend: 0x0, symName: __RINvNtCs7dfkhshTrE4_4core3ptr13drop_in_placeINtNtB4_6option6OptionINtNtCsinFlhxATJYn_4pyo36pycell5PyRefNtNtCs1NyPVrLiP35_11crystal_toe2py8PyArcadeEEEB1H_, symObjAddr: 0x838, symBinAddr: 0x4FD6C, symSize: 0x44 }
  - { offset: 0x5832B, size: 0x8, addend: 0x0, symName: __RINvNtCs7dfkhshTrE4_4core3ptr13drop_in_placeINtNtB4_6option6OptionINtNtCsinFlhxATJYn_4pyo36pycell5PyRefNtNtCs1NyPVrLiP35_11crystal_toe2py8PyMixingEEEB1H_, symObjAddr: 0x87C, symBinAddr: 0x4FDB0, symSize: 0x44 }
  - { offset: 0x5835A, size: 0x8, addend: 0x0, symName: __RINvNtCs7dfkhshTrE4_4core3ptr13drop_in_placeINtNtB4_6option6OptionINtNtCsinFlhxATJYn_4pyo36pycell5PyRefNtNtCs1NyPVrLiP35_11crystal_toe2py8PyOpticsEEEB1H_, symObjAddr: 0x8C0, symBinAddr: 0x4FDF4, symSize: 0x44 }
  - { offset: 0x58389, size: 0x8, addend: 0x0, symName: __RINvNtCs7dfkhshTrE4_4core3ptr13drop_in_placeINtNtB4_6option6OptionINtNtCsinFlhxATJYn_4pyo36pycell5PyRefNtNtCs1NyPVrLiP35_11crystal_toe2py8PyPlasmaEEEB1H_, symObjAddr: 0x904, symBinAddr: 0x4FE38, symSize: 0x44 }
  - { offset: 0x583B8, size: 0x8, addend: 0x0, symName: __RINvNtCs7dfkhshTrE4_4core3ptr13drop_in_placeINtNtB4_6option6OptionINtNtCsinFlhxATJYn_4pyo36pycell5PyRefNtNtCs1NyPVrLiP35_11crystal_toe2py8PyThermoEEEB1H_, symObjAddr: 0x948, symBinAddr: 0x4FE7C, symSize: 0x44 }
  - { offset: 0x583E7, size: 0x8, addend: 0x0, symName: __RINvNtCs7dfkhshTrE4_4core3ptr13drop_in_placeINtNtB4_6option6OptionINtNtCsinFlhxATJYn_4pyo36pycell5PyRefNtNtCs1NyPVrLiP35_11crystal_toe2py9PyGravityEEEB1H_, symObjAddr: 0x98C, symBinAddr: 0x4FEC0, symSize: 0x44 }
  - { offset: 0x58416, size: 0x8, addend: 0x0, symName: __RINvNtCs7dfkhshTrE4_4core3ptr13drop_in_placeINtNtB4_6option6OptionINtNtCsinFlhxATJYn_4pyo36pycell5PyRefNtNtCs1NyPVrLiP35_11crystal_toe2py9PyNuclearEEEB1H_, symObjAddr: 0x9D0, symBinAddr: 0x4FF04, symSize: 0x44 }
  - { offset: 0x58445, size: 0x8, addend: 0x0, symName: __RINvNtCs7dfkhshTrE4_4core3ptr13drop_in_placeINtNtB4_6option6OptionINtNtCsinFlhxATJYn_4pyo36pycell5PyRefNtNtCs1NyPVrLiP35_11crystal_toe2py9PyProteinEEEB1H_, symObjAddr: 0xA14, symBinAddr: 0x4FF48, symSize: 0x44 }
  - { offset: 0x58474, size: 0x8, addend: 0x0, symName: __RINvNtCs7dfkhshTrE4_4core3ptr13drop_in_placeINtNtB4_6option6OptionINtNtCsinFlhxATJYn_4pyo36pycell8PyRefMutNtNtCs1NyPVrLiP35_11crystal_toe2py14PyAlgebraStateEEEB1K_, symObjAddr: 0xA58, symBinAddr: 0x4FF8C, symSize: 0x44 }
  - { offset: 0x584A3, size: 0x8, addend: 0x0, symName: __RINvNtCs7dfkhshTrE4_4core3ptr13drop_in_placeINtNtB4_6result6ResultINtNtCs2iVXuAemrgm_5alloc3vec3VecTNtNtB17_6string6StringdB1A_IB13_B1A_EEENtNtCsinFlhxATJYn_4pyo33err5PyErrEECs1NyPVrLiP35_11crystal_toe, symObjAddr: 0xA9C, symBinAddr: 0x4FFD0, symSize: 0x50 }
  - { offset: 0x584D2, size: 0x8, addend: 0x0, symName: __RINvNtCs7dfkhshTrE4_4core3ptr13drop_in_placeINtNtB4_6result6ResultINtNtCs2iVXuAemrgm_5alloc3vec3VecTNtNtB17_6string6StringddB1A_EENtNtCsinFlhxATJYn_4pyo33err5PyErrEECs1NyPVrLiP35_11crystal_toe, symObjAddr: 0xAEC, symBinAddr: 0x50020, symSize: 0x50 }
  - { offset: 0x58501, size: 0x8, addend: 0x0, symName: __RINvNtCs7dfkhshTrE4_4core3ptr13drop_in_placeINtNtB4_6result6ResultINtNtCs2iVXuAemrgm_5alloc3vec3VecTydIB13_NtNtB17_6string6StringEEENtNtCsinFlhxATJYn_4pyo33err5PyErrEECs1NyPVrLiP35_11crystal_toe, symObjAddr: 0xB3C, symBinAddr: 0x50070, symSize: 0x50 }
  - { offset: 0x58530, size: 0x8, addend: 0x0, symName: __RINvNtCs7dfkhshTrE4_4core3ptr13drop_in_placeINtNtB4_6result6ResultINtNtCs2iVXuAemrgm_5alloc3vec3VecyENtNtCsinFlhxATJYn_4pyo33err5PyErrEECs1NyPVrLiP35_11crystal_toe, symObjAddr: 0xB8C, symBinAddr: 0x500C0, symSize: 0x50 }
  - { offset: 0x5855F, size: 0x8, addend: 0x0, symName: __RINvNtCs7dfkhshTrE4_4core3ptr13drop_in_placeINtNtB4_6result6ResultNtNtCs1NyPVrLiP35_11crystal_toe2py14PyAlgebraStateNtNtCsinFlhxATJYn_4pyo33err5PyErrEEB16_, symObjAddr: 0xBDC, symBinAddr: 0x50110, symSize: 0x40 }
  - { offset: 0x5858E, size: 0x8, addend: 0x0, symName: __RINvNtCs7dfkhshTrE4_4core3ptr13drop_in_placeINtNtB4_6result6ResultNtNtCs1NyPVrLiP35_11crystal_toe2py5PyToeNtNtCsinFlhxATJYn_4pyo33err5PyErrEEB16_, symObjAddr: 0xC1C, symBinAddr: 0x50150, symSize: 0x40 }
  - { offset: 0x585BD, size: 0x8, addend: 0x0, symName: __RINvNtCs7dfkhshTrE4_4core3ptr13drop_in_placeINtNtB4_6result6ResultNtNtCs1NyPVrLiP35_11crystal_toe2py7PyTruthNtNtCsinFlhxATJYn_4pyo33err5PyErrEEB16_, symObjAddr: 0xC5C, symBinAddr: 0x50190, symSize: 0x40 }
  - { offset: 0x585EC, size: 0x8, addend: 0x0, symName: __RINvNtCs7dfkhshTrE4_4core3ptr13drop_in_placeINtNtB4_6result6ResultRNtNtCs1NyPVrLiP35_11crystal_toe2py7PyTruthNtNtCsinFlhxATJYn_4pyo33err5PyErrEEB17_, symObjAddr: 0xC9C, symBinAddr: 0x501D0, symSize: 0x40 }
  - { offset: 0x5861B, size: 0x8, addend: 0x0, symName: __RINvNtCs7dfkhshTrE4_4core3ptr13drop_in_placeINtNtB4_6result6ResultTddENtNtCsinFlhxATJYn_4pyo33err5PyErrEECs1NyPVrLiP35_11crystal_toe, symObjAddr: 0xCDC, symBinAddr: 0x50210, symSize: 0x40 }
  - { offset: 0x5864A, size: 0x8, addend: 0x0, symName: __RINvNtCs7dfkhshTrE4_4core3ptr13drop_in_placeINtNtB4_6result6ResultTyyyENtNtCsinFlhxATJYn_4pyo33err5PyErrEECs1NyPVrLiP35_11crystal_toe, symObjAddr: 0xD1C, symBinAddr: 0x50250, symSize: 0x40 }
  - { offset: 0x58679, size: 0x8, addend: 0x0, symName: __RINvNtCs7dfkhshTrE4_4core3ptr13drop_in_placeINtNtB4_6result6ResultbNtNtCsinFlhxATJYn_4pyo33err5PyErrEECs1NyPVrLiP35_11crystal_toe, symObjAddr: 0xD5C, symBinAddr: 0x50290, symSize: 0x40 }
  - { offset: 0x586A8, size: 0x8, addend: 0x0, symName: __RINvNtCs7dfkhshTrE4_4core3ptr13drop_in_placeINtNtB4_6result6ResultdNtNtCsinFlhxATJYn_4pyo33err5PyErrEECs1NyPVrLiP35_11crystal_toe, symObjAddr: 0xD9C, symBinAddr: 0x502D0, symSize: 0x40 }
  - { offset: 0x586D7, size: 0x8, addend: 0x0, symName: __RINvNtCs7dfkhshTrE4_4core3ptr13drop_in_placeINtNtB4_6result6ResultjNtNtCsinFlhxATJYn_4pyo33err5PyErrEECs1NyPVrLiP35_11crystal_toe, symObjAddr: 0xDDC, symBinAddr: 0x50310, symSize: 0x40 }
  - { offset: 0x58706, size: 0x8, addend: 0x0, symName: __RINvNtCs7dfkhshTrE4_4core3ptr13drop_in_placeINtNtB4_6result6ResultuINtNtCs2iVXuAemrgm_5alloc6borrow3CowNtNtNtB4_3ffi5c_str4CStrEEECs1NyPVrLiP35_11crystal_toe, symObjAddr: 0xE1C, symBinAddr: 0x50350, symSize: 0x44 }
  - { offset: 0x58735, size: 0x8, addend: 0x0, symName: __RINvNtCs7dfkhshTrE4_4core3ptr13drop_in_placeINtNtB4_6result6ResultyNtNtCsinFlhxATJYn_4pyo33err5PyErrEECs1NyPVrLiP35_11crystal_toe, symObjAddr: 0xE60, symBinAddr: 0x50394, symSize: 0x40 }
  - { offset: 0x58764, size: 0x8, addend: 0x0, symName: __RINvNtCs7dfkhshTrE4_4core3ptr13drop_in_placeINtNtCs2iVXuAemrgm_5alloc3vec3VecNtNtBL_6string6StringEECs1NyPVrLiP35_11crystal_toe, symObjAddr: 0xEA0, symBinAddr: 0x503D4, symSize: 0x5C }
  - { offset: 0x58793, size: 0x8, addend: 0x0, symName: __RINvNtCs7dfkhshTrE4_4core3ptr13drop_in_placeINtNtCs2iVXuAemrgm_5alloc3vec3VecNtNtCs1NyPVrLiP35_11crystal_toe12cross_domain10CrossTraceEEB1h_, symObjAddr: 0xEFC, symBinAddr: 0x50430, symSize: 0x5C }
  - { offset: 0x587C2, size: 0x8, addend: 0x0, symName: __RINvNtCs7dfkhshTrE4_4core3ptr13drop_in_placeINtNtCs2iVXuAemrgm_5alloc3vec3VecNtNtCs1NyPVrLiP35_11crystal_toe5tower10TowerLayerEEB1h_, symObjAddr: 0xF58, symBinAddr: 0x5048C, symSize: 0x5C }
  - { offset: 0x587F1, size: 0x8, addend: 0x0, symName: __RINvNtCs7dfkhshTrE4_4core3ptr13drop_in_placeINtNtCs2iVXuAemrgm_5alloc3vec3VecTNtNtBL_6string6StringdB1e_IBH_B1e_EEEECs1NyPVrLiP35_11crystal_toe, symObjAddr: 0x1010, symBinAddr: 0x504E8, symSize: 0x5C }
  - { offset: 0x58820, size: 0x8, addend: 0x0, symName: __RINvNtCs7dfkhshTrE4_4core3ptr13drop_in_placeINtNtCs2iVXuAemrgm_5alloc3vec3VecTNtNtBL_6string6StringddB1e_EEECs1NyPVrLiP35_11crystal_toe, symObjAddr: 0x106C, symBinAddr: 0x50544, symSize: 0x5C }
  - { offset: 0x5884F, size: 0x8, addend: 0x0, symName: __RINvNtCs7dfkhshTrE4_4core3ptr13drop_in_placeINtNtCs2iVXuAemrgm_5alloc3vec3VecTydIBH_NtNtBL_6string6StringEEEECs1NyPVrLiP35_11crystal_toe, symObjAddr: 0x10C8, symBinAddr: 0x505A0, symSize: 0x5C }
  - { offset: 0x5887E, size: 0x8, addend: 0x0, symName: __RINvNtCs7dfkhshTrE4_4core3ptr13drop_in_placeINtNtCs2iVXuAemrgm_5alloc3vec3VecyEECs1NyPVrLiP35_11crystal_toe, symObjAddr: 0x1124, symBinAddr: 0x505FC, symSize: 0x5C }
  - { offset: 0x588AD, size: 0x8, addend: 0x0, symName: __RINvNtCs7dfkhshTrE4_4core3ptr13drop_in_placeINtNtCs2iVXuAemrgm_5alloc5boxed3BoxANtNtCs1NyPVrLiP35_11crystal_toe12cross_domain10CrossTraceje_EEB1k_, symObjAddr: 0x1180, symBinAddr: 0x50658, symSize: 0x2C }
  - { offset: 0x588DC, size: 0x8, addend: 0x0, symName: __RINvNtCs7dfkhshTrE4_4core3ptr13drop_in_placeINtNtCs2iVXuAemrgm_5alloc5boxed3BoxANtNtCs1NyPVrLiP35_11crystal_toe9hierarchy9Implosionj6_EEB1k_, symObjAddr: 0x11AC, symBinAddr: 0x50684, symSize: 0x2C }
  - { offset: 0x5890B, size: 0x8, addend: 0x0, symName: __RINvNtCs7dfkhshTrE4_4core3ptr13drop_in_placeINtNtCs2iVXuAemrgm_5alloc6borrow3CowNtNtNtB4_3ffi5c_str4CStrEECs1NyPVrLiP35_11crystal_toe, symObjAddr: 0x11D8, symBinAddr: 0x506B0, symSize: 0x40 }
  - { offset: 0x5893A, size: 0x8, addend: 0x0, symName: __RINvNtCs7dfkhshTrE4_4core3ptr13drop_in_placeINtNtCs2iVXuAemrgm_5alloc7raw_vec6RawVecNtNtBL_6string6StringEECs1NyPVrLiP35_11crystal_toe, symObjAddr: 0x1218, symBinAddr: 0x506F0, symSize: 0x24 }
  - { offset: 0x58969, size: 0x8, addend: 0x0, symName: __RINvNtCs7dfkhshTrE4_4core3ptr13drop_in_placeINtNtCs2iVXuAemrgm_5alloc7raw_vec6RawVecNtNtCs1NyPVrLiP35_11crystal_toe12cross_domain10CrossTraceEEB1o_, symObjAddr: 0x123C, symBinAddr: 0x50714, symSize: 0x24 }
  - { offset: 0x58998, size: 0x8, addend: 0x0, symName: __RINvNtCs7dfkhshTrE4_4core3ptr13drop_in_placeINtNtCs2iVXuAemrgm_5alloc7raw_vec6RawVecNtNtCs1NyPVrLiP35_11crystal_toe5tower10TowerLayerEEB1o_, symObjAddr: 0x1260, symBinAddr: 0x50738, symSize: 0x24 }
  - { offset: 0x589C7, size: 0x8, addend: 0x0, symName: __RINvNtCs7dfkhshTrE4_4core3ptr13drop_in_placeINtNtCs2iVXuAemrgm_5alloc7raw_vec6RawVecNtNtCs1NyPVrLiP35_11crystal_toe9hierarchy9ImplosionEEB1o_, symObjAddr: 0x1284, symBinAddr: 0x5075C, symSize: 0x24 }
  - { offset: 0x589F6, size: 0x8, addend: 0x0, symName: __RINvNtCs7dfkhshTrE4_4core3ptr13drop_in_placeINtNtCs2iVXuAemrgm_5alloc7raw_vec6RawVecTNtNtBL_6string6StringdB1l_INtNtBL_3vec3VecB1l_EEEECs1NyPVrLiP35_11crystal_toe, symObjAddr: 0x12CC, symBinAddr: 0x50780, symSize: 0x24 }
  - { offset: 0x58A25, size: 0x8, addend: 0x0, symName: __RINvNtCs7dfkhshTrE4_4core3ptr13drop_in_placeINtNtCs2iVXuAemrgm_5alloc7raw_vec6RawVecTNtNtBL_6string6StringddB1l_EEECs1NyPVrLiP35_11crystal_toe, symObjAddr: 0x12F0, symBinAddr: 0x507A4, symSize: 0x24 }
  - { offset: 0x58A54, size: 0x8, addend: 0x0, symName: __RINvNtCs7dfkhshTrE4_4core3ptr13drop_in_placeINtNtCs2iVXuAemrgm_5alloc7raw_vec6RawVecTydINtNtBL_3vec3VecNtNtBL_6string6StringEEEECs1NyPVrLiP35_11crystal_toe, symObjAddr: 0x1314, symBinAddr: 0x507C8, symSize: 0x24 }
  - { offset: 0x58A83, size: 0x8, addend: 0x0, symName: __RINvNtCs7dfkhshTrE4_4core3ptr13drop_in_placeINtNtCs2iVXuAemrgm_5alloc7raw_vec6RawVecdEECs1NyPVrLiP35_11crystal_toe, symObjAddr: 0x1338, symBinAddr: 0x507EC, symSize: 0x24 }
  - { offset: 0x58AB2, size: 0x8, addend: 0x0, symName: __RINvNtCs7dfkhshTrE4_4core3ptr13drop_in_placeINtNtCs2iVXuAemrgm_5alloc7raw_vec6RawVecyEECs1NyPVrLiP35_11crystal_toe, symObjAddr: 0x135C, symBinAddr: 0x50810, symSize: 0x24 }
  - { offset: 0x58AE1, size: 0x8, addend: 0x0, symName: __RINvNtCs7dfkhshTrE4_4core3ptr13drop_in_placeINtNtCsinFlhxATJYn_4pyo312pyclass_init18PyClassInitializerNtNtCs1NyPVrLiP35_11crystal_toe2py11PyClassicalEEB1G_, symObjAddr: 0x1380, symBinAddr: 0x50834, symSize: 0x24 }
  - { offset: 0x58B10, size: 0x8, addend: 0x0, symName: __RINvNtCs7dfkhshTrE4_4core3ptr13drop_in_placeINtNtCsinFlhxATJYn_4pyo312pyclass_init18PyClassInitializerNtNtCs1NyPVrLiP35_11crystal_toe2py11PyCondensedEEB1G_, symObjAddr: 0x13A4, symBinAddr: 0x50858, symSize: 0x24 }
  - { offset: 0x58B3F, size: 0x8, addend: 0x0, symName: __RINvNtCs7dfkhshTrE4_4core3ptr13drop_in_placeINtNtCsinFlhxATJYn_4pyo312pyclass_init18PyClassInitializerNtNtCs1NyPVrLiP35_11crystal_toe2py11PyFriedmannEEB1G_, symObjAddr: 0x13C8, symBinAddr: 0x5087C, symSize: 0x24 }
  - { offset: 0x58B6E, size: 0x8, addend: 0x0, symName: __RINvNtCs7dfkhshTrE4_4core3ptr13drop_in_placeINtNtCsinFlhxATJYn_4pyo312pyclass_init18PyClassInitializerNtNtCs1NyPVrLiP35_11crystal_toe2py11PyHierarchyEEB1G_, symObjAddr: 0x13EC, symBinAddr: 0x508A0, symSize: 0x24 }
  - { offset: 0x58B9D, size: 0x8, addend: 0x0, symName: __RINvNtCs7dfkhshTrE4_4core3ptr13drop_in_placeINtNtCsinFlhxATJYn_4pyo312pyclass_init18PyClassInitializerNtNtCs1NyPVrLiP35_11crystal_toe2py13PyAlphaProtonEEB1G_, symObjAddr: 0x1410, symBinAddr: 0x508C4, symSize: 0x24 }
  - { offset: 0x58BCC, size: 0x8, addend: 0x0, symName: __RINvNtCs7dfkhshTrE4_4core3ptr13drop_in_placeINtNtCsinFlhxATJYn_4pyo312pyclass_init18PyClassInitializerNtNtCs1NyPVrLiP35_11crystal_toe2py13PyCrossDomainEEB1G_, symObjAddr: 0x1434, symBinAddr: 0x508E8, symSize: 0x24 }
  - { offset: 0x58BFB, size: 0x8, addend: 0x0, symName: __RINvNtCs7dfkhshTrE4_4core3ptr13drop_in_placeINtNtCsinFlhxATJYn_4pyo312pyclass_init18PyClassInitializerNtNtCs1NyPVrLiP35_11crystal_toe2py14PyAlgebraStateEEB1G_, symObjAddr: 0x1458, symBinAddr: 0x5090C, symSize: 0x24 }
  - { offset: 0x58C2A, size: 0x8, addend: 0x0, symName: __RINvNtCs7dfkhshTrE4_4core3ptr13drop_in_placeINtNtCsinFlhxATJYn_4pyo312pyclass_init18PyClassInitializerNtNtCs1NyPVrLiP35_11crystal_toe2py4PyEMEEB1G_, symObjAddr: 0x147C, symBinAddr: 0x50930, symSize: 0x24 }
  - { offset: 0x58C59, size: 0x8, addend: 0x0, symName: __RINvNtCs7dfkhshTrE4_4core3ptr13drop_in_placeINtNtCsinFlhxATJYn_4pyo312pyclass_init18PyClassInitializerNtNtCs1NyPVrLiP35_11crystal_toe2py4PyGREEB1G_, symObjAddr: 0x14A0, symBinAddr: 0x50954, symSize: 0x24 }
  - { offset: 0x58C88, size: 0x8, addend: 0x0, symName: __RINvNtCs7dfkhshTrE4_4core3ptr13drop_in_placeINtNtCsinFlhxATJYn_4pyo312pyclass_init18PyClassInitializerNtNtCs1NyPVrLiP35_11crystal_toe2py4PyGWEEB1G_, symObjAddr: 0x14C4, symBinAddr: 0x50978, symSize: 0x24 }
  - { offset: 0x58CB7, size: 0x8, addend: 0x0, symName: __RINvNtCs7dfkhshTrE4_4core3ptr13drop_in_placeINtNtCsinFlhxATJYn_4pyo312pyclass_init18PyClassInitializerNtNtCs1NyPVrLiP35_11crystal_toe2py4PyMDEEB1G_, symObjAddr: 0x14E8, symBinAddr: 0x5099C, symSize: 0x24 }
  - { offset: 0x58CE6, size: 0x8, addend: 0x0, symName: __RINvNtCs7dfkhshTrE4_4core3ptr13drop_in_placeINtNtCsinFlhxATJYn_4pyo312pyclass_init18PyClassInitializerNtNtCs1NyPVrLiP35_11crystal_toe2py5PyBioEEB1G_, symObjAddr: 0x150C, symBinAddr: 0x509C0, symSize: 0x24 }
  - { offset: 0x58D15, size: 0x8, addend: 0x0, symName: __RINvNtCs7dfkhshTrE4_4core3ptr13drop_in_placeINtNtCsinFlhxATJYn_4pyo312pyclass_init18PyClassInitializerNtNtCs1NyPVrLiP35_11crystal_toe2py5PyCFDEEB1G_, symObjAddr: 0x1530, symBinAddr: 0x509E4, symSize: 0x24 }
  - { offset: 0x58D44, size: 0x8, addend: 0x0, symName: __RINvNtCs7dfkhshTrE4_4core3ptr13drop_in_placeINtNtCsinFlhxATJYn_4pyo312pyclass_init18PyClassInitializerNtNtCs1NyPVrLiP35_11crystal_toe2py5PyQCDEEB1G_, symObjAddr: 0x1554, symBinAddr: 0x50A08, symSize: 0x24 }
  - { offset: 0x58D73, size: 0x8, addend: 0x0, symName: __RINvNtCs7dfkhshTrE4_4core3ptr13drop_in_placeINtNtCsinFlhxATJYn_4pyo312pyclass_init18PyClassInitializerNtNtCs1NyPVrLiP35_11crystal_toe2py5PyQFTEEB1G_, symObjAddr: 0x1578, symBinAddr: 0x50A2C, symSize: 0x24 }
  - { offset: 0x58DA2, size: 0x8, addend: 0x0, symName: __RINvNtCs7dfkhshTrE4_4core3ptr13drop_in_placeINtNtCsinFlhxATJYn_4pyo312pyclass_init18PyClassInitializerNtNtCs1NyPVrLiP35_11crystal_toe2py5PyToeEEB1G_, symObjAddr: 0x159C, symBinAddr: 0x50A50, symSize: 0x24 }
  - { offset: 0x58DD1, size: 0x8, addend: 0x0, symName: __RINvNtCs7dfkhshTrE4_4core3ptr13drop_in_placeINtNtCsinFlhxATJYn_4pyo312pyclass_init18PyClassInitializerNtNtCs1NyPVrLiP35_11crystal_toe2py6PyChemEEB1G_, symObjAddr: 0x15C0, symBinAddr: 0x50A74, symSize: 0x24 }
  - { offset: 0x58E00, size: 0x8, addend: 0x0, symName: __RINvNtCs7dfkhshTrE4_4core3ptr13drop_in_placeINtNtCsinFlhxATJYn_4pyo312pyclass_init18PyClassInitializerNtNtCs1NyPVrLiP35_11crystal_toe2py7PyAstroEEB1G_, symObjAddr: 0x15E4, symBinAddr: 0x50A98, symSize: 0x24 }
  - { offset: 0x58E2F, size: 0x8, addend: 0x0, symName: __RINvNtCs7dfkhshTrE4_4core3ptr13drop_in_placeINtNtCsinFlhxATJYn_4pyo312pyclass_init18PyClassInitializerNtNtCs1NyPVrLiP35_11crystal_toe2py7PyCosmoEEB1G_, symObjAddr: 0x1608, symBinAddr: 0x50ABC, symSize: 0x24 }
  - { offset: 0x58E5E, size: 0x8, addend: 0x0, symName: __RINvNtCs7dfkhshTrE4_4core3ptr13drop_in_placeINtNtCsinFlhxATJYn_4pyo312pyclass_init18PyClassInitializerNtNtCs1NyPVrLiP35_11crystal_toe2py7PyDecayEEB1G_, symObjAddr: 0x162C, symBinAddr: 0x50AE0, symSize: 0x24 }
  - { offset: 0x58E8D, size: 0x8, addend: 0x0, symName: __RINvNtCs7dfkhshTrE4_4core3ptr13drop_in_placeINtNtCsinFlhxATJYn_4pyo312pyclass_init18PyClassInitializerNtNtCs1NyPVrLiP35_11crystal_toe2py7PyGaugeEEB1G_, symObjAddr: 0x1650, symBinAddr: 0x50B04, symSize: 0x24 }
  - { offset: 0x58EBC, size: 0x8, addend: 0x0, symName: __RINvNtCs7dfkhshTrE4_4core3ptr13drop_in_placeINtNtCsinFlhxATJYn_4pyo312pyclass_init18PyClassInitializerNtNtCs1NyPVrLiP35_11crystal_toe2py7PyNBodyEEB1G_, symObjAddr: 0x1674, symBinAddr: 0x50B28, symSize: 0x24 }
  - { offset: 0x58EEB, size: 0x8, addend: 0x0, symName: __RINvNtCs7dfkhshTrE4_4core3ptr13drop_in_placeINtNtCsinFlhxATJYn_4pyo312pyclass_init18PyClassInitializerNtNtCs1NyPVrLiP35_11crystal_toe2py7PyQInfoEEB1G_, symObjAddr: 0x1698, symBinAddr: 0x50B4C, symSize: 0x24 }
  - { offset: 0x58F1A, size: 0x8, addend: 0x0, symName: __RINvNtCs7dfkhshTrE4_4core3ptr13drop_in_placeINtNtCsinFlhxATJYn_4pyo312pyclass_init18PyClassInitializerNtNtCs1NyPVrLiP35_11crystal_toe2py7PyRigidEEB1G_, symObjAddr: 0x16BC, symBinAddr: 0x50B70, symSize: 0x24 }
  - { offset: 0x58F49, size: 0x8, addend: 0x0, symName: __RINvNtCs7dfkhshTrE4_4core3ptr13drop_in_placeINtNtCsinFlhxATJYn_4pyo312pyclass_init18PyClassInitializerNtNtCs1NyPVrLiP35_11crystal_toe2py7PyTowerEEB1G_, symObjAddr: 0x16E0, symBinAddr: 0x50B94, symSize: 0x24 }
  - { offset: 0x58F78, size: 0x8, addend: 0x0, symName: __RINvNtCs7dfkhshTrE4_4core3ptr13drop_in_placeINtNtCsinFlhxATJYn_4pyo312pyclass_init18PyClassInitializerNtNtCs1NyPVrLiP35_11crystal_toe2py7PyTruthEEB1G_, symObjAddr: 0x1704, symBinAddr: 0x50BB8, symSize: 0x24 }
  - { offset: 0x58FA7, size: 0x8, addend: 0x0, symName: __RINvNtCs7dfkhshTrE4_4core3ptr13drop_in_placeINtNtCsinFlhxATJYn_4pyo312pyclass_init18PyClassInitializerNtNtCs1NyPVrLiP35_11crystal_toe2py8PyArcadeEEB1G_, symObjAddr: 0x1728, symBinAddr: 0x50BDC, symSize: 0x24 }
  - { offset: 0x58FD6, size: 0x8, addend: 0x0, symName: __RINvNtCs7dfkhshTrE4_4core3ptr13drop_in_placeINtNtCsinFlhxATJYn_4pyo312pyclass_init18PyClassInitializerNtNtCs1NyPVrLiP35_11crystal_toe2py8PyMixingEEB1G_, symObjAddr: 0x174C, symBinAddr: 0x50C00, symSize: 0x24 }
  - { offset: 0x59005, size: 0x8, addend: 0x0, symName: __RINvNtCs7dfkhshTrE4_4core3ptr13drop_in_placeINtNtCsinFlhxATJYn_4pyo312pyclass_init18PyClassInitializerNtNtCs1NyPVrLiP35_11crystal_toe2py8PyOpticsEEB1G_, symObjAddr: 0x1770, symBinAddr: 0x50C24, symSize: 0x24 }
  - { offset: 0x59034, size: 0x8, addend: 0x0, symName: __RINvNtCs7dfkhshTrE4_4core3ptr13drop_in_placeINtNtCsinFlhxATJYn_4pyo312pyclass_init18PyClassInitializerNtNtCs1NyPVrLiP35_11crystal_toe2py8PyPlasmaEEB1G_, symObjAddr: 0x1794, symBinAddr: 0x50C48, symSize: 0x24 }
  - { offset: 0x59063, size: 0x8, addend: 0x0, symName: __RINvNtCs7dfkhshTrE4_4core3ptr13drop_in_placeINtNtCsinFlhxATJYn_4pyo312pyclass_init18PyClassInitializerNtNtCs1NyPVrLiP35_11crystal_toe2py8PyThermoEEB1G_, symObjAddr: 0x17B8, symBinAddr: 0x50C6C, symSize: 0x24 }
  - { offset: 0x59092, size: 0x8, addend: 0x0, symName: __RINvNtCs7dfkhshTrE4_4core3ptr13drop_in_placeINtNtCsinFlhxATJYn_4pyo312pyclass_init18PyClassInitializerNtNtCs1NyPVrLiP35_11crystal_toe2py9PyGravityEEB1G_, symObjAddr: 0x17DC, symBinAddr: 0x50C90, symSize: 0x24 }
  - { offset: 0x590C1, size: 0x8, addend: 0x0, symName: __RINvNtCs7dfkhshTrE4_4core3ptr13drop_in_placeINtNtCsinFlhxATJYn_4pyo312pyclass_init18PyClassInitializerNtNtCs1NyPVrLiP35_11crystal_toe2py9PyNuclearEEB1G_, symObjAddr: 0x1800, symBinAddr: 0x50CB4, symSize: 0x24 }
  - { offset: 0x590F0, size: 0x8, addend: 0x0, symName: __RINvNtCs7dfkhshTrE4_4core3ptr13drop_in_placeINtNtCsinFlhxATJYn_4pyo312pyclass_init18PyClassInitializerNtNtCs1NyPVrLiP35_11crystal_toe2py9PyProteinEEB1G_, symObjAddr: 0x1824, symBinAddr: 0x50CD8, symSize: 0x24 }
  - { offset: 0x5911F, size: 0x8, addend: 0x0, symName: __RINvNtCs7dfkhshTrE4_4core3ptr13drop_in_placeINtNtCsinFlhxATJYn_4pyo312pyclass_init22PyClassInitializerImplNtNtCs1NyPVrLiP35_11crystal_toe2py11PyClassicalEEB1K_, symObjAddr: 0x1848, symBinAddr: 0x50CFC, symSize: 0x48 }
  - { offset: 0x5914E, size: 0x8, addend: 0x0, symName: __RINvNtCs7dfkhshTrE4_4core3ptr13drop_in_placeINtNtCsinFlhxATJYn_4pyo312pyclass_init22PyClassInitializerImplNtNtCs1NyPVrLiP35_11crystal_toe2py11PyCondensedEEB1K_, symObjAddr: 0x1890, symBinAddr: 0x50D44, symSize: 0x48 }
  - { offset: 0x5917D, size: 0x8, addend: 0x0, symName: __RINvNtCs7dfkhshTrE4_4core3ptr13drop_in_placeINtNtCsinFlhxATJYn_4pyo312pyclass_init22PyClassInitializerImplNtNtCs1NyPVrLiP35_11crystal_toe2py11PyFriedmannEEB1K_, symObjAddr: 0x18D8, symBinAddr: 0x50D8C, symSize: 0x48 }
  - { offset: 0x591AC, size: 0x8, addend: 0x0, symName: __RINvNtCs7dfkhshTrE4_4core3ptr13drop_in_placeINtNtCsinFlhxATJYn_4pyo312pyclass_init22PyClassInitializerImplNtNtCs1NyPVrLiP35_11crystal_toe2py11PyHierarchyEEB1K_, symObjAddr: 0x1920, symBinAddr: 0x50DD4, symSize: 0x48 }
  - { offset: 0x591DB, size: 0x8, addend: 0x0, symName: __RINvNtCs7dfkhshTrE4_4core3ptr13drop_in_placeINtNtCsinFlhxATJYn_4pyo312pyclass_init22PyClassInitializerImplNtNtCs1NyPVrLiP35_11crystal_toe2py13PyAlphaProtonEEB1K_, symObjAddr: 0x1968, symBinAddr: 0x50E1C, symSize: 0x48 }
  - { offset: 0x5920A, size: 0x8, addend: 0x0, symName: __RINvNtCs7dfkhshTrE4_4core3ptr13drop_in_placeINtNtCsinFlhxATJYn_4pyo312pyclass_init22PyClassInitializerImplNtNtCs1NyPVrLiP35_11crystal_toe2py13PyCrossDomainEEB1K_, symObjAddr: 0x19B0, symBinAddr: 0x50E64, symSize: 0x48 }
  - { offset: 0x59239, size: 0x8, addend: 0x0, symName: __RINvNtCs7dfkhshTrE4_4core3ptr13drop_in_placeINtNtCsinFlhxATJYn_4pyo312pyclass_init22PyClassInitializerImplNtNtCs1NyPVrLiP35_11crystal_toe2py14PyAlgebraStateEEB1K_, symObjAddr: 0x19F8, symBinAddr: 0x50EAC, symSize: 0x40 }
  - { offset: 0x59268, size: 0x8, addend: 0x0, symName: __RINvNtCs7dfkhshTrE4_4core3ptr13drop_in_placeINtNtCsinFlhxATJYn_4pyo312pyclass_init22PyClassInitializerImplNtNtCs1NyPVrLiP35_11crystal_toe2py4PyEMEEB1K_, symObjAddr: 0x1A38, symBinAddr: 0x50EEC, symSize: 0x48 }
  - { offset: 0x59297, size: 0x8, addend: 0x0, symName: __RINvNtCs7dfkhshTrE4_4core3ptr13drop_in_placeINtNtCsinFlhxATJYn_4pyo312pyclass_init22PyClassInitializerImplNtNtCs1NyPVrLiP35_11crystal_toe2py4PyGREEB1K_, symObjAddr: 0x1A80, symBinAddr: 0x50F34, symSize: 0x48 }
  - { offset: 0x592C6, size: 0x8, addend: 0x0, symName: __RINvNtCs7dfkhshTrE4_4core3ptr13drop_in_placeINtNtCsinFlhxATJYn_4pyo312pyclass_init22PyClassInitializerImplNtNtCs1NyPVrLiP35_11crystal_toe2py4PyGWEEB1K_, symObjAddr: 0x1AC8, symBinAddr: 0x50F7C, symSize: 0x48 }
  - { offset: 0x592F5, size: 0x8, addend: 0x0, symName: __RINvNtCs7dfkhshTrE4_4core3ptr13drop_in_placeINtNtCsinFlhxATJYn_4pyo312pyclass_init22PyClassInitializerImplNtNtCs1NyPVrLiP35_11crystal_toe2py4PyMDEEB1K_, symObjAddr: 0x1B10, symBinAddr: 0x50FC4, symSize: 0x48 }
  - { offset: 0x59324, size: 0x8, addend: 0x0, symName: __RINvNtCs7dfkhshTrE4_4core3ptr13drop_in_placeINtNtCsinFlhxATJYn_4pyo312pyclass_init22PyClassInitializerImplNtNtCs1NyPVrLiP35_11crystal_toe2py5PyBioEEB1K_, symObjAddr: 0x1B58, symBinAddr: 0x5100C, symSize: 0x48 }
  - { offset: 0x59353, size: 0x8, addend: 0x0, symName: __RINvNtCs7dfkhshTrE4_4core3ptr13drop_in_placeINtNtCsinFlhxATJYn_4pyo312pyclass_init22PyClassInitializerImplNtNtCs1NyPVrLiP35_11crystal_toe2py5PyCFDEEB1K_, symObjAddr: 0x1BA0, symBinAddr: 0x51054, symSize: 0x48 }
  - { offset: 0x59382, size: 0x8, addend: 0x0, symName: __RINvNtCs7dfkhshTrE4_4core3ptr13drop_in_placeINtNtCsinFlhxATJYn_4pyo312pyclass_init22PyClassInitializerImplNtNtCs1NyPVrLiP35_11crystal_toe2py5PyQCDEEB1K_, symObjAddr: 0x1BE8, symBinAddr: 0x5109C, symSize: 0x48 }
  - { offset: 0x593B1, size: 0x8, addend: 0x0, symName: __RINvNtCs7dfkhshTrE4_4core3ptr13drop_in_placeINtNtCsinFlhxATJYn_4pyo312pyclass_init22PyClassInitializerImplNtNtCs1NyPVrLiP35_11crystal_toe2py5PyQFTEEB1K_, symObjAddr: 0x1C30, symBinAddr: 0x510E4, symSize: 0x48 }
  - { offset: 0x593E0, size: 0x8, addend: 0x0, symName: __RINvNtCs7dfkhshTrE4_4core3ptr13drop_in_placeINtNtCsinFlhxATJYn_4pyo312pyclass_init22PyClassInitializerImplNtNtCs1NyPVrLiP35_11crystal_toe2py5PyToeEEB1K_, symObjAddr: 0x1C78, symBinAddr: 0x5112C, symSize: 0x40 }
  - { offset: 0x5940F, size: 0x8, addend: 0x0, symName: __RINvNtCs7dfkhshTrE4_4core3ptr13drop_in_placeINtNtCsinFlhxATJYn_4pyo312pyclass_init22PyClassInitializerImplNtNtCs1NyPVrLiP35_11crystal_toe2py6PyChemEEB1K_, symObjAddr: 0x1CB8, symBinAddr: 0x5116C, symSize: 0x48 }
  - { offset: 0x5943E, size: 0x8, addend: 0x0, symName: __RINvNtCs7dfkhshTrE4_4core3ptr13drop_in_placeINtNtCsinFlhxATJYn_4pyo312pyclass_init22PyClassInitializerImplNtNtCs1NyPVrLiP35_11crystal_toe2py7PyAstroEEB1K_, symObjAddr: 0x1D00, symBinAddr: 0x511B4, symSize: 0x48 }
  - { offset: 0x5946D, size: 0x8, addend: 0x0, symName: __RINvNtCs7dfkhshTrE4_4core3ptr13drop_in_placeINtNtCsinFlhxATJYn_4pyo312pyclass_init22PyClassInitializerImplNtNtCs1NyPVrLiP35_11crystal_toe2py7PyCosmoEEB1K_, symObjAddr: 0x1D48, symBinAddr: 0x511FC, symSize: 0x48 }
  - { offset: 0x5949C, size: 0x8, addend: 0x0, symName: __RINvNtCs7dfkhshTrE4_4core3ptr13drop_in_placeINtNtCsinFlhxATJYn_4pyo312pyclass_init22PyClassInitializerImplNtNtCs1NyPVrLiP35_11crystal_toe2py7PyDecayEEB1K_, symObjAddr: 0x1D90, symBinAddr: 0x51244, symSize: 0x48 }
  - { offset: 0x594CB, size: 0x8, addend: 0x0, symName: __RINvNtCs7dfkhshTrE4_4core3ptr13drop_in_placeINtNtCsinFlhxATJYn_4pyo312pyclass_init22PyClassInitializerImplNtNtCs1NyPVrLiP35_11crystal_toe2py7PyGaugeEEB1K_, symObjAddr: 0x1DD8, symBinAddr: 0x5128C, symSize: 0x48 }
  - { offset: 0x594FA, size: 0x8, addend: 0x0, symName: __RINvNtCs7dfkhshTrE4_4core3ptr13drop_in_placeINtNtCsinFlhxATJYn_4pyo312pyclass_init22PyClassInitializerImplNtNtCs1NyPVrLiP35_11crystal_toe2py7PyNBodyEEB1K_, symObjAddr: 0x1E20, symBinAddr: 0x512D4, symSize: 0x48 }
  - { offset: 0x59529, size: 0x8, addend: 0x0, symName: __RINvNtCs7dfkhshTrE4_4core3ptr13drop_in_placeINtNtCsinFlhxATJYn_4pyo312pyclass_init22PyClassInitializerImplNtNtCs1NyPVrLiP35_11crystal_toe2py7PyQInfoEEB1K_, symObjAddr: 0x1E68, symBinAddr: 0x5131C, symSize: 0x48 }
  - { offset: 0x59558, size: 0x8, addend: 0x0, symName: __RINvNtCs7dfkhshTrE4_4core3ptr13drop_in_placeINtNtCsinFlhxATJYn_4pyo312pyclass_init22PyClassInitializerImplNtNtCs1NyPVrLiP35_11crystal_toe2py7PyRigidEEB1K_, symObjAddr: 0x1EB0, symBinAddr: 0x51364, symSize: 0x48 }
  - { offset: 0x59587, size: 0x8, addend: 0x0, symName: __RINvNtCs7dfkhshTrE4_4core3ptr13drop_in_placeINtNtCsinFlhxATJYn_4pyo312pyclass_init22PyClassInitializerImplNtNtCs1NyPVrLiP35_11crystal_toe2py7PyTowerEEB1K_, symObjAddr: 0x1EF8, symBinAddr: 0x513AC, symSize: 0x48 }
  - { offset: 0x595B6, size: 0x8, addend: 0x0, symName: __RINvNtCs7dfkhshTrE4_4core3ptr13drop_in_placeINtNtCsinFlhxATJYn_4pyo312pyclass_init22PyClassInitializerImplNtNtCs1NyPVrLiP35_11crystal_toe2py7PyTruthEEB1K_, symObjAddr: 0x1F40, symBinAddr: 0x513F4, symSize: 0x40 }
  - { offset: 0x595E5, size: 0x8, addend: 0x0, symName: __RINvNtCs7dfkhshTrE4_4core3ptr13drop_in_placeINtNtCsinFlhxATJYn_4pyo312pyclass_init22PyClassInitializerImplNtNtCs1NyPVrLiP35_11crystal_toe2py8PyArcadeEEB1K_, symObjAddr: 0x1F80, symBinAddr: 0x51434, symSize: 0x48 }
  - { offset: 0x59614, size: 0x8, addend: 0x0, symName: __RINvNtCs7dfkhshTrE4_4core3ptr13drop_in_placeINtNtCsinFlhxATJYn_4pyo312pyclass_init22PyClassInitializerImplNtNtCs1NyPVrLiP35_11crystal_toe2py8PyMixingEEB1K_, symObjAddr: 0x1FC8, symBinAddr: 0x5147C, symSize: 0x48 }
  - { offset: 0x59643, size: 0x8, addend: 0x0, symName: __RINvNtCs7dfkhshTrE4_4core3ptr13drop_in_placeINtNtCsinFlhxATJYn_4pyo312pyclass_init22PyClassInitializerImplNtNtCs1NyPVrLiP35_11crystal_toe2py8PyOpticsEEB1K_, symObjAddr: 0x2010, symBinAddr: 0x514C4, symSize: 0x48 }
  - { offset: 0x59672, size: 0x8, addend: 0x0, symName: __RINvNtCs7dfkhshTrE4_4core3ptr13drop_in_placeINtNtCsinFlhxATJYn_4pyo312pyclass_init22PyClassInitializerImplNtNtCs1NyPVrLiP35_11crystal_toe2py8PyPlasmaEEB1K_, symObjAddr: 0x2058, symBinAddr: 0x5150C, symSize: 0x48 }
  - { offset: 0x596A1, size: 0x8, addend: 0x0, symName: __RINvNtCs7dfkhshTrE4_4core3ptr13drop_in_placeINtNtCsinFlhxATJYn_4pyo312pyclass_init22PyClassInitializerImplNtNtCs1NyPVrLiP35_11crystal_toe2py8PyThermoEEB1K_, symObjAddr: 0x20A0, symBinAddr: 0x51554, symSize: 0x48 }
  - { offset: 0x596D0, size: 0x8, addend: 0x0, symName: __RINvNtCs7dfkhshTrE4_4core3ptr13drop_in_placeINtNtCsinFlhxATJYn_4pyo312pyclass_init22PyClassInitializerImplNtNtCs1NyPVrLiP35_11crystal_toe2py9PyGravityEEB1K_, symObjAddr: 0x20E8, symBinAddr: 0x5159C, symSize: 0x48 }
  - { offset: 0x596FF, size: 0x8, addend: 0x0, symName: __RINvNtCs7dfkhshTrE4_4core3ptr13drop_in_placeINtNtCsinFlhxATJYn_4pyo312pyclass_init22PyClassInitializerImplNtNtCs1NyPVrLiP35_11crystal_toe2py9PyNuclearEEB1K_, symObjAddr: 0x2130, symBinAddr: 0x515E4, symSize: 0x48 }
  - { offset: 0x5972E, size: 0x8, addend: 0x0, symName: __RINvNtCs7dfkhshTrE4_4core3ptr13drop_in_placeINtNtCsinFlhxATJYn_4pyo312pyclass_init22PyClassInitializerImplNtNtCs1NyPVrLiP35_11crystal_toe2py9PyProteinEEB1K_, symObjAddr: 0x2178, symBinAddr: 0x5162C, symSize: 0x48 }
  - { offset: 0x5975D, size: 0x8, addend: 0x0, symName: __RINvNtCs7dfkhshTrE4_4core3ptr13drop_in_placeINtNtCsinFlhxATJYn_4pyo36pycell5PyRefNtNtCs1NyPVrLiP35_11crystal_toe2py11PyClassicalEEB1l_, symObjAddr: 0x222C, symBinAddr: 0x51674, symSize: 0x5C }
  - { offset: 0x5978C, size: 0x8, addend: 0x0, symName: __RINvNtCs7dfkhshTrE4_4core3ptr13drop_in_placeINtNtCsinFlhxATJYn_4pyo36pycell5PyRefNtNtCs1NyPVrLiP35_11crystal_toe2py11PyCondensedEEB1l_, symObjAddr: 0x2288, symBinAddr: 0x516D0, symSize: 0x5C }
  - { offset: 0x597BB, size: 0x8, addend: 0x0, symName: __RINvNtCs7dfkhshTrE4_4core3ptr13drop_in_placeINtNtCsinFlhxATJYn_4pyo36pycell5PyRefNtNtCs1NyPVrLiP35_11crystal_toe2py11PyFriedmannEEB1l_, symObjAddr: 0x22E4, symBinAddr: 0x5172C, symSize: 0x5C }
  - { offset: 0x597EA, size: 0x8, addend: 0x0, symName: __RINvNtCs7dfkhshTrE4_4core3ptr13drop_in_placeINtNtCsinFlhxATJYn_4pyo36pycell5PyRefNtNtCs1NyPVrLiP35_11crystal_toe2py11PyHierarchyEEB1l_, symObjAddr: 0x2340, symBinAddr: 0x51788, symSize: 0x5C }
  - { offset: 0x59819, size: 0x8, addend: 0x0, symName: __RINvNtCs7dfkhshTrE4_4core3ptr13drop_in_placeINtNtCsinFlhxATJYn_4pyo36pycell5PyRefNtNtCs1NyPVrLiP35_11crystal_toe2py13PyAlphaProtonEEB1l_, symObjAddr: 0x239C, symBinAddr: 0x517E4, symSize: 0x5C }
  - { offset: 0x59848, size: 0x8, addend: 0x0, symName: __RINvNtCs7dfkhshTrE4_4core3ptr13drop_in_placeINtNtCsinFlhxATJYn_4pyo36pycell5PyRefNtNtCs1NyPVrLiP35_11crystal_toe2py13PyCrossDomainEEB1l_, symObjAddr: 0x23F8, symBinAddr: 0x51840, symSize: 0x5C }
  - { offset: 0x59877, size: 0x8, addend: 0x0, symName: __RINvNtCs7dfkhshTrE4_4core3ptr13drop_in_placeINtNtCsinFlhxATJYn_4pyo36pycell5PyRefNtNtCs1NyPVrLiP35_11crystal_toe2py14PyAlgebraStateEEB1l_, symObjAddr: 0x2454, symBinAddr: 0x5189C, symSize: 0x5C }
  - { offset: 0x598A6, size: 0x8, addend: 0x0, symName: __RINvNtCs7dfkhshTrE4_4core3ptr13drop_in_placeINtNtCsinFlhxATJYn_4pyo36pycell5PyRefNtNtCs1NyPVrLiP35_11crystal_toe2py4PyEMEEB1l_, symObjAddr: 0x24B0, symBinAddr: 0x518F8, symSize: 0x5C }
  - { offset: 0x598D5, size: 0x8, addend: 0x0, symName: __RINvNtCs7dfkhshTrE4_4core3ptr13drop_in_placeINtNtCsinFlhxATJYn_4pyo36pycell5PyRefNtNtCs1NyPVrLiP35_11crystal_toe2py4PyGREEB1l_, symObjAddr: 0x250C, symBinAddr: 0x51954, symSize: 0x5C }
  - { offset: 0x59904, size: 0x8, addend: 0x0, symName: __RINvNtCs7dfkhshTrE4_4core3ptr13drop_in_placeINtNtCsinFlhxATJYn_4pyo36pycell5PyRefNtNtCs1NyPVrLiP35_11crystal_toe2py4PyGWEEB1l_, symObjAddr: 0x2568, symBinAddr: 0x519B0, symSize: 0x5C }
  - { offset: 0x59933, size: 0x8, addend: 0x0, symName: __RINvNtCs7dfkhshTrE4_4core3ptr13drop_in_placeINtNtCsinFlhxATJYn_4pyo36pycell5PyRefNtNtCs1NyPVrLiP35_11crystal_toe2py4PyMDEEB1l_, symObjAddr: 0x25C4, symBinAddr: 0x51A0C, symSize: 0x5C }
  - { offset: 0x59962, size: 0x8, addend: 0x0, symName: __RINvNtCs7dfkhshTrE4_4core3ptr13drop_in_placeINtNtCsinFlhxATJYn_4pyo36pycell5PyRefNtNtCs1NyPVrLiP35_11crystal_toe2py5PyBioEEB1l_, symObjAddr: 0x2620, symBinAddr: 0x51A68, symSize: 0x5C }
  - { offset: 0x59991, size: 0x8, addend: 0x0, symName: __RINvNtCs7dfkhshTrE4_4core3ptr13drop_in_placeINtNtCsinFlhxATJYn_4pyo36pycell5PyRefNtNtCs1NyPVrLiP35_11crystal_toe2py5PyCFDEEB1l_, symObjAddr: 0x267C, symBinAddr: 0x51AC4, symSize: 0x5C }
  - { offset: 0x599C0, size: 0x8, addend: 0x0, symName: __RINvNtCs7dfkhshTrE4_4core3ptr13drop_in_placeINtNtCsinFlhxATJYn_4pyo36pycell5PyRefNtNtCs1NyPVrLiP35_11crystal_toe2py5PyQCDEEB1l_, symObjAddr: 0x26D8, symBinAddr: 0x51B20, symSize: 0x5C }
  - { offset: 0x599EF, size: 0x8, addend: 0x0, symName: __RINvNtCs7dfkhshTrE4_4core3ptr13drop_in_placeINtNtCsinFlhxATJYn_4pyo36pycell5PyRefNtNtCs1NyPVrLiP35_11crystal_toe2py5PyQFTEEB1l_, symObjAddr: 0x2734, symBinAddr: 0x51B7C, symSize: 0x5C }
  - { offset: 0x59A1E, size: 0x8, addend: 0x0, symName: __RINvNtCs7dfkhshTrE4_4core3ptr13drop_in_placeINtNtCsinFlhxATJYn_4pyo36pycell5PyRefNtNtCs1NyPVrLiP35_11crystal_toe2py5PyToeEEB1l_, symObjAddr: 0x2790, symBinAddr: 0x51BD8, symSize: 0x5C }
  - { offset: 0x59A4D, size: 0x8, addend: 0x0, symName: __RINvNtCs7dfkhshTrE4_4core3ptr13drop_in_placeINtNtCsinFlhxATJYn_4pyo36pycell5PyRefNtNtCs1NyPVrLiP35_11crystal_toe2py6PyChemEEB1l_, symObjAddr: 0x27EC, symBinAddr: 0x51C34, symSize: 0x5C }
  - { offset: 0x59A7C, size: 0x8, addend: 0x0, symName: __RINvNtCs7dfkhshTrE4_4core3ptr13drop_in_placeINtNtCsinFlhxATJYn_4pyo36pycell5PyRefNtNtCs1NyPVrLiP35_11crystal_toe2py7PyAstroEEB1l_, symObjAddr: 0x2848, symBinAddr: 0x51C90, symSize: 0x5C }
  - { offset: 0x59AAB, size: 0x8, addend: 0x0, symName: __RINvNtCs7dfkhshTrE4_4core3ptr13drop_in_placeINtNtCsinFlhxATJYn_4pyo36pycell5PyRefNtNtCs1NyPVrLiP35_11crystal_toe2py7PyCosmoEEB1l_, symObjAddr: 0x28A4, symBinAddr: 0x51CEC, symSize: 0x5C }
  - { offset: 0x59ADA, size: 0x8, addend: 0x0, symName: __RINvNtCs7dfkhshTrE4_4core3ptr13drop_in_placeINtNtCsinFlhxATJYn_4pyo36pycell5PyRefNtNtCs1NyPVrLiP35_11crystal_toe2py7PyDecayEEB1l_, symObjAddr: 0x2900, symBinAddr: 0x51D48, symSize: 0x5C }
  - { offset: 0x59B09, size: 0x8, addend: 0x0, symName: __RINvNtCs7dfkhshTrE4_4core3ptr13drop_in_placeINtNtCsinFlhxATJYn_4pyo36pycell5PyRefNtNtCs1NyPVrLiP35_11crystal_toe2py7PyGaugeEEB1l_, symObjAddr: 0x295C, symBinAddr: 0x51DA4, symSize: 0x5C }
  - { offset: 0x59B38, size: 0x8, addend: 0x0, symName: __RINvNtCs7dfkhshTrE4_4core3ptr13drop_in_placeINtNtCsinFlhxATJYn_4pyo36pycell5PyRefNtNtCs1NyPVrLiP35_11crystal_toe2py7PyNBodyEEB1l_, symObjAddr: 0x29B8, symBinAddr: 0x51E00, symSize: 0x5C }
  - { offset: 0x59B67, size: 0x8, addend: 0x0, symName: __RINvNtCs7dfkhshTrE4_4core3ptr13drop_in_placeINtNtCsinFlhxATJYn_4pyo36pycell5PyRefNtNtCs1NyPVrLiP35_11crystal_toe2py7PyQInfoEEB1l_, symObjAddr: 0x2A14, symBinAddr: 0x51E5C, symSize: 0x5C }
  - { offset: 0x59B96, size: 0x8, addend: 0x0, symName: __RINvNtCs7dfkhshTrE4_4core3ptr13drop_in_placeINtNtCsinFlhxATJYn_4pyo36pycell5PyRefNtNtCs1NyPVrLiP35_11crystal_toe2py7PyRigidEEB1l_, symObjAddr: 0x2A70, symBinAddr: 0x51EB8, symSize: 0x5C }
  - { offset: 0x59BC5, size: 0x8, addend: 0x0, symName: __RINvNtCs7dfkhshTrE4_4core3ptr13drop_in_placeINtNtCsinFlhxATJYn_4pyo36pycell5PyRefNtNtCs1NyPVrLiP35_11crystal_toe2py7PyTowerEEB1l_, symObjAddr: 0x2ACC, symBinAddr: 0x51F14, symSize: 0x5C }
  - { offset: 0x59BF4, size: 0x8, addend: 0x0, symName: __RINvNtCs7dfkhshTrE4_4core3ptr13drop_in_placeINtNtCsinFlhxATJYn_4pyo36pycell5PyRefNtNtCs1NyPVrLiP35_11crystal_toe2py7PyTruthEEB1l_, symObjAddr: 0x2B28, symBinAddr: 0x51F70, symSize: 0x5C }
  - { offset: 0x59C23, size: 0x8, addend: 0x0, symName: __RINvNtCs7dfkhshTrE4_4core3ptr13drop_in_placeINtNtCsinFlhxATJYn_4pyo36pycell5PyRefNtNtCs1NyPVrLiP35_11crystal_toe2py8PyArcadeEEB1l_, symObjAddr: 0x2B84, symBinAddr: 0x51FCC, symSize: 0x5C }
  - { offset: 0x59C52, size: 0x8, addend: 0x0, symName: __RINvNtCs7dfkhshTrE4_4core3ptr13drop_in_placeINtNtCsinFlhxATJYn_4pyo36pycell5PyRefNtNtCs1NyPVrLiP35_11crystal_toe2py8PyMixingEEB1l_, symObjAddr: 0x2BE0, symBinAddr: 0x52028, symSize: 0x5C }
  - { offset: 0x59C81, size: 0x8, addend: 0x0, symName: __RINvNtCs7dfkhshTrE4_4core3ptr13drop_in_placeINtNtCsinFlhxATJYn_4pyo36pycell5PyRefNtNtCs1NyPVrLiP35_11crystal_toe2py8PyOpticsEEB1l_, symObjAddr: 0x2C3C, symBinAddr: 0x52084, symSize: 0x5C }
  - { offset: 0x59CB0, size: 0x8, addend: 0x0, symName: __RINvNtCs7dfkhshTrE4_4core3ptr13drop_in_placeINtNtCsinFlhxATJYn_4pyo36pycell5PyRefNtNtCs1NyPVrLiP35_11crystal_toe2py8PyPlasmaEEB1l_, symObjAddr: 0x2C98, symBinAddr: 0x520E0, symSize: 0x5C }
  - { offset: 0x59CDF, size: 0x8, addend: 0x0, symName: __RINvNtCs7dfkhshTrE4_4core3ptr13drop_in_placeINtNtCsinFlhxATJYn_4pyo36pycell5PyRefNtNtCs1NyPVrLiP35_11crystal_toe2py8PyThermoEEB1l_, symObjAddr: 0x2CF4, symBinAddr: 0x5213C, symSize: 0x5C }
  - { offset: 0x59D0E, size: 0x8, addend: 0x0, symName: __RINvNtCs7dfkhshTrE4_4core3ptr13drop_in_placeINtNtCsinFlhxATJYn_4pyo36pycell5PyRefNtNtCs1NyPVrLiP35_11crystal_toe2py9PyGravityEEB1l_, symObjAddr: 0x2D50, symBinAddr: 0x52198, symSize: 0x5C }
  - { offset: 0x59D3D, size: 0x8, addend: 0x0, symName: __RINvNtCs7dfkhshTrE4_4core3ptr13drop_in_placeINtNtCsinFlhxATJYn_4pyo36pycell5PyRefNtNtCs1NyPVrLiP35_11crystal_toe2py9PyNuclearEEB1l_, symObjAddr: 0x2DAC, symBinAddr: 0x521F4, symSize: 0x5C }
  - { offset: 0x59D6C, size: 0x8, addend: 0x0, symName: __RINvNtCs7dfkhshTrE4_4core3ptr13drop_in_placeINtNtCsinFlhxATJYn_4pyo36pycell5PyRefNtNtCs1NyPVrLiP35_11crystal_toe2py9PyProteinEEB1l_, symObjAddr: 0x2E08, symBinAddr: 0x52250, symSize: 0x5C }
  - { offset: 0x59D9B, size: 0x8, addend: 0x0, symName: __RINvNtCs7dfkhshTrE4_4core3ptr13drop_in_placeINtNtCsinFlhxATJYn_4pyo36pycell8PyRefMutNtNtCs1NyPVrLiP35_11crystal_toe2py14PyAlgebraStateEEB1o_, symObjAddr: 0x2E64, symBinAddr: 0x522AC, symSize: 0x5C }
  - { offset: 0x59DCA, size: 0x8, addend: 0x0, symName: __RINvNtCs7dfkhshTrE4_4core3ptr13drop_in_placeINtNtCsinFlhxATJYn_4pyo38instance2PyNtNtCs1NyPVrLiP35_11crystal_toe2py11PyClassicalEEB1k_, symObjAddr: 0x2EC0, symBinAddr: 0x52308, symSize: 0x2C }
  - { offset: 0x59DF9, size: 0x8, addend: 0x0, symName: __RINvNtCs7dfkhshTrE4_4core3ptr13drop_in_placeINtNtCsinFlhxATJYn_4pyo38instance2PyNtNtCs1NyPVrLiP35_11crystal_toe2py11PyCondensedEEB1k_, symObjAddr: 0x2EEC, symBinAddr: 0x52334, symSize: 0x2C }
  - { offset: 0x59E28, size: 0x8, addend: 0x0, symName: __RINvNtCs7dfkhshTrE4_4core3ptr13drop_in_placeINtNtCsinFlhxATJYn_4pyo38instance2PyNtNtCs1NyPVrLiP35_11crystal_toe2py11PyFriedmannEEB1k_, symObjAddr: 0x2F18, symBinAddr: 0x52360, symSize: 0x2C }
  - { offset: 0x59E57, size: 0x8, addend: 0x0, symName: __RINvNtCs7dfkhshTrE4_4core3ptr13drop_in_placeINtNtCsinFlhxATJYn_4pyo38instance2PyNtNtCs1NyPVrLiP35_11crystal_toe2py11PyHierarchyEEB1k_, symObjAddr: 0x2F44, symBinAddr: 0x5238C, symSize: 0x2C }
  - { offset: 0x59E86, size: 0x8, addend: 0x0, symName: __RINvNtCs7dfkhshTrE4_4core3ptr13drop_in_placeINtNtCsinFlhxATJYn_4pyo38instance2PyNtNtCs1NyPVrLiP35_11crystal_toe2py13PyAlphaProtonEEB1k_, symObjAddr: 0x2F70, symBinAddr: 0x523B8, symSize: 0x2C }
  - { offset: 0x59EB5, size: 0x8, addend: 0x0, symName: __RINvNtCs7dfkhshTrE4_4core3ptr13drop_in_placeINtNtCsinFlhxATJYn_4pyo38instance2PyNtNtCs1NyPVrLiP35_11crystal_toe2py13PyCrossDomainEEB1k_, symObjAddr: 0x2F9C, symBinAddr: 0x523E4, symSize: 0x2C }
  - { offset: 0x59EE4, size: 0x8, addend: 0x0, symName: __RINvNtCs7dfkhshTrE4_4core3ptr13drop_in_placeINtNtCsinFlhxATJYn_4pyo38instance2PyNtNtCs1NyPVrLiP35_11crystal_toe2py14PyAlgebraStateEEB1k_, symObjAddr: 0x2FC8, symBinAddr: 0x52410, symSize: 0x2C }
  - { offset: 0x59F13, size: 0x8, addend: 0x0, symName: __RINvNtCs7dfkhshTrE4_4core3ptr13drop_in_placeINtNtCsinFlhxATJYn_4pyo38instance2PyNtNtCs1NyPVrLiP35_11crystal_toe2py4PyEMEEB1k_, symObjAddr: 0x2FF4, symBinAddr: 0x5243C, symSize: 0x2C }
  - { offset: 0x59F42, size: 0x8, addend: 0x0, symName: __RINvNtCs7dfkhshTrE4_4core3ptr13drop_in_placeINtNtCsinFlhxATJYn_4pyo38instance2PyNtNtCs1NyPVrLiP35_11crystal_toe2py4PyGREEB1k_, symObjAddr: 0x3020, symBinAddr: 0x52468, symSize: 0x2C }
  - { offset: 0x59F71, size: 0x8, addend: 0x0, symName: __RINvNtCs7dfkhshTrE4_4core3ptr13drop_in_placeINtNtCsinFlhxATJYn_4pyo38instance2PyNtNtCs1NyPVrLiP35_11crystal_toe2py4PyGWEEB1k_, symObjAddr: 0x304C, symBinAddr: 0x52494, symSize: 0x2C }
  - { offset: 0x59FA0, size: 0x8, addend: 0x0, symName: __RINvNtCs7dfkhshTrE4_4core3ptr13drop_in_placeINtNtCsinFlhxATJYn_4pyo38instance2PyNtNtCs1NyPVrLiP35_11crystal_toe2py4PyMDEEB1k_, symObjAddr: 0x3078, symBinAddr: 0x524C0, symSize: 0x2C }
  - { offset: 0x59FCF, size: 0x8, addend: 0x0, symName: __RINvNtCs7dfkhshTrE4_4core3ptr13drop_in_placeINtNtCsinFlhxATJYn_4pyo38instance2PyNtNtCs1NyPVrLiP35_11crystal_toe2py5PyBioEEB1k_, symObjAddr: 0x30A4, symBinAddr: 0x524EC, symSize: 0x2C }
  - { offset: 0x59FFE, size: 0x8, addend: 0x0, symName: __RINvNtCs7dfkhshTrE4_4core3ptr13drop_in_placeINtNtCsinFlhxATJYn_4pyo38instance2PyNtNtCs1NyPVrLiP35_11crystal_toe2py5PyCFDEEB1k_, symObjAddr: 0x30D0, symBinAddr: 0x52518, symSize: 0x2C }
  - { offset: 0x5A02D, size: 0x8, addend: 0x0, symName: __RINvNtCs7dfkhshTrE4_4core3ptr13drop_in_placeINtNtCsinFlhxATJYn_4pyo38instance2PyNtNtCs1NyPVrLiP35_11crystal_toe2py5PyQCDEEB1k_, symObjAddr: 0x30FC, symBinAddr: 0x52544, symSize: 0x2C }
  - { offset: 0x5A05C, size: 0x8, addend: 0x0, symName: __RINvNtCs7dfkhshTrE4_4core3ptr13drop_in_placeINtNtCsinFlhxATJYn_4pyo38instance2PyNtNtCs1NyPVrLiP35_11crystal_toe2py5PyQFTEEB1k_, symObjAddr: 0x3128, symBinAddr: 0x52570, symSize: 0x2C }
  - { offset: 0x5A08B, size: 0x8, addend: 0x0, symName: __RINvNtCs7dfkhshTrE4_4core3ptr13drop_in_placeINtNtCsinFlhxATJYn_4pyo38instance2PyNtNtCs1NyPVrLiP35_11crystal_toe2py5PyToeEEB1k_, symObjAddr: 0x3154, symBinAddr: 0x5259C, symSize: 0x2C }
  - { offset: 0x5A0BA, size: 0x8, addend: 0x0, symName: __RINvNtCs7dfkhshTrE4_4core3ptr13drop_in_placeINtNtCsinFlhxATJYn_4pyo38instance2PyNtNtCs1NyPVrLiP35_11crystal_toe2py6PyChemEEB1k_, symObjAddr: 0x3180, symBinAddr: 0x525C8, symSize: 0x2C }
  - { offset: 0x5A0E9, size: 0x8, addend: 0x0, symName: __RINvNtCs7dfkhshTrE4_4core3ptr13drop_in_placeINtNtCsinFlhxATJYn_4pyo38instance2PyNtNtCs1NyPVrLiP35_11crystal_toe2py7PyAstroEEB1k_, symObjAddr: 0x31AC, symBinAddr: 0x525F4, symSize: 0x2C }
  - { offset: 0x5A118, size: 0x8, addend: 0x0, symName: __RINvNtCs7dfkhshTrE4_4core3ptr13drop_in_placeINtNtCsinFlhxATJYn_4pyo38instance2PyNtNtCs1NyPVrLiP35_11crystal_toe2py7PyCosmoEEB1k_, symObjAddr: 0x31D8, symBinAddr: 0x52620, symSize: 0x2C }
  - { offset: 0x5A147, size: 0x8, addend: 0x0, symName: __RINvNtCs7dfkhshTrE4_4core3ptr13drop_in_placeINtNtCsinFlhxATJYn_4pyo38instance2PyNtNtCs1NyPVrLiP35_11crystal_toe2py7PyDecayEEB1k_, symObjAddr: 0x3204, symBinAddr: 0x5264C, symSize: 0x2C }
  - { offset: 0x5A176, size: 0x8, addend: 0x0, symName: __RINvNtCs7dfkhshTrE4_4core3ptr13drop_in_placeINtNtCsinFlhxATJYn_4pyo38instance2PyNtNtCs1NyPVrLiP35_11crystal_toe2py7PyGaugeEEB1k_, symObjAddr: 0x3230, symBinAddr: 0x52678, symSize: 0x2C }
  - { offset: 0x5A1A5, size: 0x8, addend: 0x0, symName: __RINvNtCs7dfkhshTrE4_4core3ptr13drop_in_placeINtNtCsinFlhxATJYn_4pyo38instance2PyNtNtCs1NyPVrLiP35_11crystal_toe2py7PyNBodyEEB1k_, symObjAddr: 0x325C, symBinAddr: 0x526A4, symSize: 0x2C }
  - { offset: 0x5A1D4, size: 0x8, addend: 0x0, symName: __RINvNtCs7dfkhshTrE4_4core3ptr13drop_in_placeINtNtCsinFlhxATJYn_4pyo38instance2PyNtNtCs1NyPVrLiP35_11crystal_toe2py7PyQInfoEEB1k_, symObjAddr: 0x3288, symBinAddr: 0x526D0, symSize: 0x2C }
  - { offset: 0x5A203, size: 0x8, addend: 0x0, symName: __RINvNtCs7dfkhshTrE4_4core3ptr13drop_in_placeINtNtCsinFlhxATJYn_4pyo38instance2PyNtNtCs1NyPVrLiP35_11crystal_toe2py7PyRigidEEB1k_, symObjAddr: 0x32B4, symBinAddr: 0x526FC, symSize: 0x2C }
  - { offset: 0x5A232, size: 0x8, addend: 0x0, symName: __RINvNtCs7dfkhshTrE4_4core3ptr13drop_in_placeINtNtCsinFlhxATJYn_4pyo38instance2PyNtNtCs1NyPVrLiP35_11crystal_toe2py7PyTowerEEB1k_, symObjAddr: 0x32E0, symBinAddr: 0x52728, symSize: 0x2C }
  - { offset: 0x5A261, size: 0x8, addend: 0x0, symName: __RINvNtCs7dfkhshTrE4_4core3ptr13drop_in_placeINtNtCsinFlhxATJYn_4pyo38instance2PyNtNtCs1NyPVrLiP35_11crystal_toe2py7PyTruthEEB1k_, symObjAddr: 0x330C, symBinAddr: 0x52754, symSize: 0x2C }
  - { offset: 0x5A290, size: 0x8, addend: 0x0, symName: __RINvNtCs7dfkhshTrE4_4core3ptr13drop_in_placeINtNtCsinFlhxATJYn_4pyo38instance2PyNtNtCs1NyPVrLiP35_11crystal_toe2py8PyArcadeEEB1k_, symObjAddr: 0x3338, symBinAddr: 0x52780, symSize: 0x2C }
  - { offset: 0x5A2BF, size: 0x8, addend: 0x0, symName: __RINvNtCs7dfkhshTrE4_4core3ptr13drop_in_placeINtNtCsinFlhxATJYn_4pyo38instance2PyNtNtCs1NyPVrLiP35_11crystal_toe2py8PyMixingEEB1k_, symObjAddr: 0x3364, symBinAddr: 0x527AC, symSize: 0x2C }
  - { offset: 0x5A2EE, size: 0x8, addend: 0x0, symName: __RINvNtCs7dfkhshTrE4_4core3ptr13drop_in_placeINtNtCsinFlhxATJYn_4pyo38instance2PyNtNtCs1NyPVrLiP35_11crystal_toe2py8PyOpticsEEB1k_, symObjAddr: 0x3390, symBinAddr: 0x527D8, symSize: 0x2C }
  - { offset: 0x5A31D, size: 0x8, addend: 0x0, symName: __RINvNtCs7dfkhshTrE4_4core3ptr13drop_in_placeINtNtCsinFlhxATJYn_4pyo38instance2PyNtNtCs1NyPVrLiP35_11crystal_toe2py8PyPlasmaEEB1k_, symObjAddr: 0x33BC, symBinAddr: 0x52804, symSize: 0x2C }
  - { offset: 0x5A34C, size: 0x8, addend: 0x0, symName: __RINvNtCs7dfkhshTrE4_4core3ptr13drop_in_placeINtNtCsinFlhxATJYn_4pyo38instance2PyNtNtCs1NyPVrLiP35_11crystal_toe2py8PyThermoEEB1k_, symObjAddr: 0x33E8, symBinAddr: 0x52830, symSize: 0x2C }
  - { offset: 0x5A37B, size: 0x8, addend: 0x0, symName: __RINvNtCs7dfkhshTrE4_4core3ptr13drop_in_placeINtNtCsinFlhxATJYn_4pyo38instance2PyNtNtCs1NyPVrLiP35_11crystal_toe2py9PyGravityEEB1k_, symObjAddr: 0x3414, symBinAddr: 0x5285C, symSize: 0x2C }
  - { offset: 0x5A3AA, size: 0x8, addend: 0x0, symName: __RINvNtCs7dfkhshTrE4_4core3ptr13drop_in_placeINtNtCsinFlhxATJYn_4pyo38instance2PyNtNtCs1NyPVrLiP35_11crystal_toe2py9PyNuclearEEB1k_, symObjAddr: 0x3440, symBinAddr: 0x52888, symSize: 0x2C }
  - { offset: 0x5A3D9, size: 0x8, addend: 0x0, symName: __RINvNtCs7dfkhshTrE4_4core3ptr13drop_in_placeINtNtCsinFlhxATJYn_4pyo38instance2PyNtNtCs1NyPVrLiP35_11crystal_toe2py9PyProteinEEB1k_, symObjAddr: 0x346C, symBinAddr: 0x528B4, symSize: 0x2C }
  - { offset: 0x5A408, size: 0x8, addend: 0x0, symName: __RINvNtCs7dfkhshTrE4_4core3ptr13drop_in_placeINtNtCsinFlhxATJYn_4pyo38instance5BoundNtNtCs1NyPVrLiP35_11crystal_toe2py11PyClassicalEEB1n_, symObjAddr: 0x3498, symBinAddr: 0x528E0, symSize: 0x24 }
  - { offset: 0x5A437, size: 0x8, addend: 0x0, symName: __RINvNtCs7dfkhshTrE4_4core3ptr13drop_in_placeINtNtCsinFlhxATJYn_4pyo38instance5BoundNtNtCs1NyPVrLiP35_11crystal_toe2py11PyCondensedEEB1n_, symObjAddr: 0x34BC, symBinAddr: 0x52904, symSize: 0x24 }
  - { offset: 0x5A466, size: 0x8, addend: 0x0, symName: __RINvNtCs7dfkhshTrE4_4core3ptr13drop_in_placeINtNtCsinFlhxATJYn_4pyo38instance5BoundNtNtCs1NyPVrLiP35_11crystal_toe2py11PyFriedmannEEB1n_, symObjAddr: 0x34E0, symBinAddr: 0x52928, symSize: 0x24 }
  - { offset: 0x5A495, size: 0x8, addend: 0x0, symName: __RINvNtCs7dfkhshTrE4_4core3ptr13drop_in_placeINtNtCsinFlhxATJYn_4pyo38instance5BoundNtNtCs1NyPVrLiP35_11crystal_toe2py11PyHierarchyEEB1n_, symObjAddr: 0x3504, symBinAddr: 0x5294C, symSize: 0x24 }
  - { offset: 0x5A4C4, size: 0x8, addend: 0x0, symName: __RINvNtCs7dfkhshTrE4_4core3ptr13drop_in_placeINtNtCsinFlhxATJYn_4pyo38instance5BoundNtNtCs1NyPVrLiP35_11crystal_toe2py13PyAlphaProtonEEB1n_, symObjAddr: 0x3528, symBinAddr: 0x52970, symSize: 0x24 }
  - { offset: 0x5A4F3, size: 0x8, addend: 0x0, symName: __RINvNtCs7dfkhshTrE4_4core3ptr13drop_in_placeINtNtCsinFlhxATJYn_4pyo38instance5BoundNtNtCs1NyPVrLiP35_11crystal_toe2py13PyCrossDomainEEB1n_, symObjAddr: 0x354C, symBinAddr: 0x52994, symSize: 0x24 }
  - { offset: 0x5A522, size: 0x8, addend: 0x0, symName: __RINvNtCs7dfkhshTrE4_4core3ptr13drop_in_placeINtNtCsinFlhxATJYn_4pyo38instance5BoundNtNtCs1NyPVrLiP35_11crystal_toe2py14PyAlgebraStateEEB1n_, symObjAddr: 0x3570, symBinAddr: 0x529B8, symSize: 0x24 }
  - { offset: 0x5A551, size: 0x8, addend: 0x0, symName: __RINvNtCs7dfkhshTrE4_4core3ptr13drop_in_placeINtNtCsinFlhxATJYn_4pyo38instance5BoundNtNtCs1NyPVrLiP35_11crystal_toe2py4PyEMEEB1n_, symObjAddr: 0x3594, symBinAddr: 0x529DC, symSize: 0x24 }
  - { offset: 0x5A580, size: 0x8, addend: 0x0, symName: __RINvNtCs7dfkhshTrE4_4core3ptr13drop_in_placeINtNtCsinFlhxATJYn_4pyo38instance5BoundNtNtCs1NyPVrLiP35_11crystal_toe2py4PyGREEB1n_, symObjAddr: 0x35B8, symBinAddr: 0x52A00, symSize: 0x24 }
  - { offset: 0x5A5AF, size: 0x8, addend: 0x0, symName: __RINvNtCs7dfkhshTrE4_4core3ptr13drop_in_placeINtNtCsinFlhxATJYn_4pyo38instance5BoundNtNtCs1NyPVrLiP35_11crystal_toe2py4PyGWEEB1n_, symObjAddr: 0x35DC, symBinAddr: 0x52A24, symSize: 0x24 }
  - { offset: 0x5A5DE, size: 0x8, addend: 0x0, symName: __RINvNtCs7dfkhshTrE4_4core3ptr13drop_in_placeINtNtCsinFlhxATJYn_4pyo38instance5BoundNtNtCs1NyPVrLiP35_11crystal_toe2py4PyMDEEB1n_, symObjAddr: 0x3600, symBinAddr: 0x52A48, symSize: 0x24 }
  - { offset: 0x5A60D, size: 0x8, addend: 0x0, symName: __RINvNtCs7dfkhshTrE4_4core3ptr13drop_in_placeINtNtCsinFlhxATJYn_4pyo38instance5BoundNtNtCs1NyPVrLiP35_11crystal_toe2py5PyBioEEB1n_, symObjAddr: 0x3624, symBinAddr: 0x52A6C, symSize: 0x24 }
  - { offset: 0x5A63C, size: 0x8, addend: 0x0, symName: __RINvNtCs7dfkhshTrE4_4core3ptr13drop_in_placeINtNtCsinFlhxATJYn_4pyo38instance5BoundNtNtCs1NyPVrLiP35_11crystal_toe2py5PyCFDEEB1n_, symObjAddr: 0x3648, symBinAddr: 0x52A90, symSize: 0x24 }
  - { offset: 0x5A66B, size: 0x8, addend: 0x0, symName: __RINvNtCs7dfkhshTrE4_4core3ptr13drop_in_placeINtNtCsinFlhxATJYn_4pyo38instance5BoundNtNtCs1NyPVrLiP35_11crystal_toe2py5PyQCDEEB1n_, symObjAddr: 0x366C, symBinAddr: 0x52AB4, symSize: 0x24 }
  - { offset: 0x5A69A, size: 0x8, addend: 0x0, symName: __RINvNtCs7dfkhshTrE4_4core3ptr13drop_in_placeINtNtCsinFlhxATJYn_4pyo38instance5BoundNtNtCs1NyPVrLiP35_11crystal_toe2py5PyQFTEEB1n_, symObjAddr: 0x3690, symBinAddr: 0x52AD8, symSize: 0x24 }
  - { offset: 0x5A6C9, size: 0x8, addend: 0x0, symName: __RINvNtCs7dfkhshTrE4_4core3ptr13drop_in_placeINtNtCsinFlhxATJYn_4pyo38instance5BoundNtNtCs1NyPVrLiP35_11crystal_toe2py5PyToeEEB1n_, symObjAddr: 0x36B4, symBinAddr: 0x52AFC, symSize: 0x24 }
  - { offset: 0x5A6F8, size: 0x8, addend: 0x0, symName: __RINvNtCs7dfkhshTrE4_4core3ptr13drop_in_placeINtNtCsinFlhxATJYn_4pyo38instance5BoundNtNtCs1NyPVrLiP35_11crystal_toe2py6PyChemEEB1n_, symObjAddr: 0x36D8, symBinAddr: 0x52B20, symSize: 0x24 }
  - { offset: 0x5A727, size: 0x8, addend: 0x0, symName: __RINvNtCs7dfkhshTrE4_4core3ptr13drop_in_placeINtNtCsinFlhxATJYn_4pyo38instance5BoundNtNtCs1NyPVrLiP35_11crystal_toe2py7PyAstroEEB1n_, symObjAddr: 0x36FC, symBinAddr: 0x52B44, symSize: 0x24 }
  - { offset: 0x5A756, size: 0x8, addend: 0x0, symName: __RINvNtCs7dfkhshTrE4_4core3ptr13drop_in_placeINtNtCsinFlhxATJYn_4pyo38instance5BoundNtNtCs1NyPVrLiP35_11crystal_toe2py7PyCosmoEEB1n_, symObjAddr: 0x3720, symBinAddr: 0x52B68, symSize: 0x24 }
  - { offset: 0x5A785, size: 0x8, addend: 0x0, symName: __RINvNtCs7dfkhshTrE4_4core3ptr13drop_in_placeINtNtCsinFlhxATJYn_4pyo38instance5BoundNtNtCs1NyPVrLiP35_11crystal_toe2py7PyDecayEEB1n_, symObjAddr: 0x3744, symBinAddr: 0x52B8C, symSize: 0x24 }
  - { offset: 0x5A7B4, size: 0x8, addend: 0x0, symName: __RINvNtCs7dfkhshTrE4_4core3ptr13drop_in_placeINtNtCsinFlhxATJYn_4pyo38instance5BoundNtNtCs1NyPVrLiP35_11crystal_toe2py7PyGaugeEEB1n_, symObjAddr: 0x3768, symBinAddr: 0x52BB0, symSize: 0x24 }
  - { offset: 0x5A7E3, size: 0x8, addend: 0x0, symName: __RINvNtCs7dfkhshTrE4_4core3ptr13drop_in_placeINtNtCsinFlhxATJYn_4pyo38instance5BoundNtNtCs1NyPVrLiP35_11crystal_toe2py7PyNBodyEEB1n_, symObjAddr: 0x378C, symBinAddr: 0x52BD4, symSize: 0x24 }
  - { offset: 0x5A812, size: 0x8, addend: 0x0, symName: __RINvNtCs7dfkhshTrE4_4core3ptr13drop_in_placeINtNtCsinFlhxATJYn_4pyo38instance5BoundNtNtCs1NyPVrLiP35_11crystal_toe2py7PyQInfoEEB1n_, symObjAddr: 0x37B0, symBinAddr: 0x52BF8, symSize: 0x24 }
  - { offset: 0x5A841, size: 0x8, addend: 0x0, symName: __RINvNtCs7dfkhshTrE4_4core3ptr13drop_in_placeINtNtCsinFlhxATJYn_4pyo38instance5BoundNtNtCs1NyPVrLiP35_11crystal_toe2py7PyRigidEEB1n_, symObjAddr: 0x37D4, symBinAddr: 0x52C1C, symSize: 0x24 }
  - { offset: 0x5A870, size: 0x8, addend: 0x0, symName: __RINvNtCs7dfkhshTrE4_4core3ptr13drop_in_placeINtNtCsinFlhxATJYn_4pyo38instance5BoundNtNtCs1NyPVrLiP35_11crystal_toe2py7PyTowerEEB1n_, symObjAddr: 0x37F8, symBinAddr: 0x52C40, symSize: 0x24 }
  - { offset: 0x5A89F, size: 0x8, addend: 0x0, symName: __RINvNtCs7dfkhshTrE4_4core3ptr13drop_in_placeINtNtCsinFlhxATJYn_4pyo38instance5BoundNtNtCs1NyPVrLiP35_11crystal_toe2py7PyTruthEEB1n_, symObjAddr: 0x381C, symBinAddr: 0x52C64, symSize: 0x24 }
  - { offset: 0x5A8CE, size: 0x8, addend: 0x0, symName: __RINvNtCs7dfkhshTrE4_4core3ptr13drop_in_placeINtNtCsinFlhxATJYn_4pyo38instance5BoundNtNtCs1NyPVrLiP35_11crystal_toe2py8PyArcadeEEB1n_, symObjAddr: 0x3840, symBinAddr: 0x52C88, symSize: 0x24 }
  - { offset: 0x5A8FD, size: 0x8, addend: 0x0, symName: __RINvNtCs7dfkhshTrE4_4core3ptr13drop_in_placeINtNtCsinFlhxATJYn_4pyo38instance5BoundNtNtCs1NyPVrLiP35_11crystal_toe2py8PyMixingEEB1n_, symObjAddr: 0x3864, symBinAddr: 0x52CAC, symSize: 0x24 }
  - { offset: 0x5A92C, size: 0x8, addend: 0x0, symName: __RINvNtCs7dfkhshTrE4_4core3ptr13drop_in_placeINtNtCsinFlhxATJYn_4pyo38instance5BoundNtNtCs1NyPVrLiP35_11crystal_toe2py8PyOpticsEEB1n_, symObjAddr: 0x3888, symBinAddr: 0x52CD0, symSize: 0x24 }
  - { offset: 0x5A95B, size: 0x8, addend: 0x0, symName: __RINvNtCs7dfkhshTrE4_4core3ptr13drop_in_placeINtNtCsinFlhxATJYn_4pyo38instance5BoundNtNtCs1NyPVrLiP35_11crystal_toe2py8PyPlasmaEEB1n_, symObjAddr: 0x38AC, symBinAddr: 0x52CF4, symSize: 0x24 }
  - { offset: 0x5A98A, size: 0x8, addend: 0x0, symName: __RINvNtCs7dfkhshTrE4_4core3ptr13drop_in_placeINtNtCsinFlhxATJYn_4pyo38instance5BoundNtNtCs1NyPVrLiP35_11crystal_toe2py8PyThermoEEB1n_, symObjAddr: 0x38D0, symBinAddr: 0x52D18, symSize: 0x24 }
  - { offset: 0x5A9B9, size: 0x8, addend: 0x0, symName: __RINvNtCs7dfkhshTrE4_4core3ptr13drop_in_placeINtNtCsinFlhxATJYn_4pyo38instance5BoundNtNtCs1NyPVrLiP35_11crystal_toe2py9PyGravityEEB1n_, symObjAddr: 0x38F4, symBinAddr: 0x52D3C, symSize: 0x24 }
  - { offset: 0x5A9E8, size: 0x8, addend: 0x0, symName: __RINvNtCs7dfkhshTrE4_4core3ptr13drop_in_placeINtNtCsinFlhxATJYn_4pyo38instance5BoundNtNtCs1NyPVrLiP35_11crystal_toe2py9PyNuclearEEB1n_, symObjAddr: 0x3918, symBinAddr: 0x52D60, symSize: 0x24 }
  - { offset: 0x5AA17, size: 0x8, addend: 0x0, symName: __RINvNtCs7dfkhshTrE4_4core3ptr13drop_in_placeINtNtCsinFlhxATJYn_4pyo38instance5BoundNtNtCs1NyPVrLiP35_11crystal_toe2py9PyProteinEEB1n_, symObjAddr: 0x393C, symBinAddr: 0x52D84, symSize: 0x24 }
  - { offset: 0x5AA46, size: 0x8, addend: 0x0, symName: __RINvNtCs7dfkhshTrE4_4core3ptr13drop_in_placeINtNtNtB4_5array4iter8IntoIterINtNtCsinFlhxATJYn_4pyo38instance5BoundNtNtNtB1f_5types3any5PyAnyEKj4_EECs1NyPVrLiP35_11crystal_toe, symObjAddr: 0x3960, symBinAddr: 0x52DA8, symSize: 0x24 }
  - { offset: 0x5AA75, size: 0x8, addend: 0x0, symName: __RINvNtCs7dfkhshTrE4_4core3ptr13drop_in_placeINtNtNtCs2iVXuAemrgm_5alloc3vec13in_place_drop11InPlaceDropTNtNtBN_6string6StringddB1E_EEECs1NyPVrLiP35_11crystal_toe, symObjAddr: 0x3984, symBinAddr: 0x52DCC, symSize: 0x24 }
  - { offset: 0x5AAA4, size: 0x8, addend: 0x0, symName: __RINvNtCs7dfkhshTrE4_4core3ptr13drop_in_placeINtNtNtCs2iVXuAemrgm_5alloc3vec13in_place_drop11InPlaceDropTydINtBL_3VecNtNtBN_6string6StringEEEECs1NyPVrLiP35_11crystal_toe, symObjAddr: 0x39A8, symBinAddr: 0x52DF0, symSize: 0x24 }
  - { offset: 0x5AAD3, size: 0x8, addend: 0x0, symName: __RINvNtCs7dfkhshTrE4_4core3ptr13drop_in_placeINtNtNtCs2iVXuAemrgm_5alloc3vec13in_place_drop24InPlaceDstDataSrcBufDropNtNtCs1NyPVrLiP35_11crystal_toe5tower10TowerLayerTydINtBL_3VecNtNtBN_6string6StringEEEEB1U_, symObjAddr: 0x39CC, symBinAddr: 0x52E14, symSize: 0x24 }
  - { offset: 0x5AB02, size: 0x8, addend: 0x0, symName: __RINvNtCs7dfkhshTrE4_4core3ptr13drop_in_placeINtNtNtCs2iVXuAemrgm_5alloc3vec13in_place_drop24InPlaceDstDataSrcBufDropNtNtCs1NyPVrLiP35_11crystal_toe9hierarchy9ImplosionTNtNtBN_6string6StringddB2G_EEEB1U_, symObjAddr: 0x39F0, symBinAddr: 0x52E38, symSize: 0x24 }
  - { offset: 0x5AB31, size: 0x8, addend: 0x0, symName: __RINvNtCs7dfkhshTrE4_4core3ptr13drop_in_placeINtNtNtCs2iVXuAemrgm_5alloc3vec9into_iter8IntoIterNtNtBN_6string6StringEECs1NyPVrLiP35_11crystal_toe, symObjAddr: 0x3A14, symBinAddr: 0x52E5C, symSize: 0x24 }
  - { offset: 0x5AB60, size: 0x8, addend: 0x0, symName: __RINvNtCs7dfkhshTrE4_4core3ptr13drop_in_placeINtNtNtCs2iVXuAemrgm_5alloc3vec9into_iter8IntoIterNtNtCs1NyPVrLiP35_11crystal_toe12cross_domain10CrossTraceEEB1y_, symObjAddr: 0x3A38, symBinAddr: 0x52E80, symSize: 0x24 }
  - { offset: 0x5AB8F, size: 0x8, addend: 0x0, symName: __RINvNtCs7dfkhshTrE4_4core3ptr13drop_in_placeINtNtNtCs2iVXuAemrgm_5alloc3vec9into_iter8IntoIterNtNtCs1NyPVrLiP35_11crystal_toe5tower10TowerLayerEEB1y_, symObjAddr: 0x3A5C, symBinAddr: 0x52EA4, symSize: 0x24 }
  - { offset: 0x5ABBE, size: 0x8, addend: 0x0, symName: __RINvNtCs7dfkhshTrE4_4core3ptr13drop_in_placeINtNtNtCs2iVXuAemrgm_5alloc3vec9into_iter8IntoIterNtNtCs1NyPVrLiP35_11crystal_toe9hierarchy9ImplosionEEB1y_, symObjAddr: 0x3A80, symBinAddr: 0x52EC8, symSize: 0x24 }
  - { offset: 0x5ABED, size: 0x8, addend: 0x0, symName: __RINvNtCs7dfkhshTrE4_4core3ptr13drop_in_placeINtNtNtCs2iVXuAemrgm_5alloc3vec9into_iter8IntoIterTNtNtBN_6string6StringdB1v_INtBL_3VecB1v_EEEECs1NyPVrLiP35_11crystal_toe, symObjAddr: 0x3AA4, symBinAddr: 0x52EEC, symSize: 0x24 }
  - { offset: 0x5AC1C, size: 0x8, addend: 0x0, symName: __RINvNtCs7dfkhshTrE4_4core3ptr13drop_in_placeINtNtNtCs2iVXuAemrgm_5alloc3vec9into_iter8IntoIterTNtNtBN_6string6StringddB1v_EEECs1NyPVrLiP35_11crystal_toe, symObjAddr: 0x3AC8, symBinAddr: 0x52F10, symSize: 0x24 }
  - { offset: 0x5AC4B, size: 0x8, addend: 0x0, symName: __RINvNtCs7dfkhshTrE4_4core3ptr13drop_in_placeINtNtNtCs2iVXuAemrgm_5alloc3vec9into_iter8IntoIterTydINtBL_3VecNtNtBN_6string6StringEEEECs1NyPVrLiP35_11crystal_toe, symObjAddr: 0x3AEC, symBinAddr: 0x52F34, symSize: 0x24 }
  - { offset: 0x5AC7A, size: 0x8, addend: 0x0, symName: __RINvNtCs7dfkhshTrE4_4core3ptr13drop_in_placeINtNtNtCs2iVXuAemrgm_5alloc3vec9into_iter8IntoIterdEECs1NyPVrLiP35_11crystal_toe, symObjAddr: 0x3B10, symBinAddr: 0x52F58, symSize: 0x24 }
  - { offset: 0x5ACA9, size: 0x8, addend: 0x0, symName: __RINvNtCs7dfkhshTrE4_4core3ptr13drop_in_placeINtNtNtCs2iVXuAemrgm_5alloc3vec9into_iter8IntoIteryEECs1NyPVrLiP35_11crystal_toe, symObjAddr: 0x3B34, symBinAddr: 0x52F7C, symSize: 0x24 }
  - { offset: 0x5ACD8, size: 0x8, addend: 0x0, symName: __RINvNtCs7dfkhshTrE4_4core3ptr13drop_in_placeINtNtNtNtB4_4iter8adapters3map3MapINtNtBL_6filter6FilterINtNtNtCs2iVXuAemrgm_5alloc3vec9into_iter8IntoIterNtNtCs1NyPVrLiP35_11crystal_toe5tower10TowerLayerENCNvMs2t_NtB2s_2pyNtB3l_7PyTower10key_layers0ENCB3e_s_0EEB2s_, symObjAddr: 0x3B58, symBinAddr: 0x52FA0, symSize: 0x24 }
  - { offset: 0x5AD07, size: 0x8, addend: 0x0, symName: __RINvNtCs7dfkhshTrE4_4core3ptr13drop_in_placeINtNtNtNtB4_4iter8adapters3map3MapINtNtNtCs2iVXuAemrgm_5alloc3vec9into_iter8IntoIterNtNtB1l_6string6StringENCINvYB22_NtNtCsinFlhxATJYn_4pyo310conversion12IntoPyObject28owned_sequence_into_pyobjectINtB1j_3VecB22_EE0EECs1NyPVrLiP35_11crystal_toe, symObjAddr: 0x3B7C, symBinAddr: 0x52FC4, symSize: 0x24 }
  - { offset: 0x5AD36, size: 0x8, addend: 0x0, symName: __RINvNtCs7dfkhshTrE4_4core3ptr13drop_in_placeINtNtNtNtB4_4iter8adapters3map3MapINtNtNtCs2iVXuAemrgm_5alloc3vec9into_iter8IntoIterNtNtCs1NyPVrLiP35_11crystal_toe12cross_domain10CrossTraceENCNvMs1Y_NtB26_2pyNtB37_13PyCrossDomain6traces0EEB26_, symObjAddr: 0x3BA0, symBinAddr: 0x52FE8, symSize: 0x24 }
  - { offset: 0x5AD65, size: 0x8, addend: 0x0, symName: __RINvNtCs7dfkhshTrE4_4core3ptr13drop_in_placeINtNtNtNtB4_4iter8adapters3map3MapINtNtNtCs2iVXuAemrgm_5alloc3vec9into_iter8IntoIterNtNtCs1NyPVrLiP35_11crystal_toe5tower10TowerLayerENCNvMs2t_NtB26_2pyNtB2Z_7PyTower6layers0EEB26_, symObjAddr: 0x3BC4, symBinAddr: 0x5300C, symSize: 0x24 }
  - { offset: 0x5AD94, size: 0x8, addend: 0x0, symName: __RINvNtCs7dfkhshTrE4_4core3ptr13drop_in_placeINtNtNtNtB4_4iter8adapters3map3MapINtNtNtCs2iVXuAemrgm_5alloc3vec9into_iter8IntoIterNtNtCs1NyPVrLiP35_11crystal_toe9hierarchy9ImplosionENCNvMs2H_NtB26_2pyNtB31_11PyHierarchy18implosion_channels0EEB26_, symObjAddr: 0x3BE8, symBinAddr: 0x53030, symSize: 0x24 }
  - { offset: 0x5ADC3, size: 0x8, addend: 0x0, symName: __RINvNtCs7dfkhshTrE4_4core3ptr13drop_in_placeINtNtNtNtB4_4iter8adapters3map3MapINtNtNtCs2iVXuAemrgm_5alloc3vec9into_iter8IntoIterTNtNtB1l_6string6StringdB23_INtB1j_3VecB23_EEENCINvYB22_NtNtCsinFlhxATJYn_4pyo310conversion12IntoPyObject28owned_sequence_into_pyobjectIB2v_B22_EE0EECs1NyPVrLiP35_11crystal_toe, symObjAddr: 0x3C0C, symBinAddr: 0x53054, symSize: 0x24 }
  - { offset: 0x5ADF2, size: 0x8, addend: 0x0, symName: __RINvNtCs7dfkhshTrE4_4core3ptr13drop_in_placeINtNtNtNtB4_4iter8adapters3map3MapINtNtNtCs2iVXuAemrgm_5alloc3vec9into_iter8IntoIterTNtNtB1l_6string6StringddB23_EENCINvYB22_NtNtCsinFlhxATJYn_4pyo310conversion12IntoPyObject28owned_sequence_into_pyobjectINtB1j_3VecB22_EE0EECs1NyPVrLiP35_11crystal_toe, symObjAddr: 0x3C30, symBinAddr: 0x53078, symSize: 0x24 }
  - { offset: 0x5AE21, size: 0x8, addend: 0x0, symName: __RINvNtCs7dfkhshTrE4_4core3ptr13drop_in_placeINtNtNtNtB4_4iter8adapters3map3MapINtNtNtCs2iVXuAemrgm_5alloc3vec9into_iter8IntoIterTydINtB1j_3VecNtNtB1l_6string6StringEEENCINvYB22_NtNtCsinFlhxATJYn_4pyo310conversion12IntoPyObject28owned_sequence_into_pyobjectIB26_B22_EE0EECs1NyPVrLiP35_11crystal_toe, symObjAddr: 0x3C54, symBinAddr: 0x5309C, symSize: 0x24 }
  - { offset: 0x5AE50, size: 0x8, addend: 0x0, symName: __RINvNtCs7dfkhshTrE4_4core3ptr13drop_in_placeINtNtNtNtB4_4iter8adapters3map3MapINtNtNtCs2iVXuAemrgm_5alloc3vec9into_iter8IntoIterdENCINvYdNtNtCsinFlhxATJYn_4pyo310conversion12IntoPyObject28owned_sequence_into_pyobjectINtB1j_3VecdEE0EECs1NyPVrLiP35_11crystal_toe, symObjAddr: 0x3C78, symBinAddr: 0x530C0, symSize: 0x24 }
  - { offset: 0x5AE7F, size: 0x8, addend: 0x0, symName: __RINvNtCs7dfkhshTrE4_4core3ptr13drop_in_placeINtNtNtNtB4_4iter8adapters3map3MapINtNtNtCs2iVXuAemrgm_5alloc3vec9into_iter8IntoIteryENCINvYyNtNtCsinFlhxATJYn_4pyo310conversion12IntoPyObject28owned_sequence_into_pyobjectINtB1j_3VecyEE0EECs1NyPVrLiP35_11crystal_toe, symObjAddr: 0x3C9C, symBinAddr: 0x530E4, symSize: 0x24 }
  - { offset: 0x5AEAE, size: 0x8, addend: 0x0, symName: __RINvNtCs7dfkhshTrE4_4core3ptr13drop_in_placeINtNtNtNtB4_4iter8adapters6filter6FilterINtNtNtCs2iVXuAemrgm_5alloc3vec9into_iter8IntoIterNtNtCs1NyPVrLiP35_11crystal_toe5tower10TowerLayerENCNvMs2t_NtB2c_2pyNtB35_7PyTower10key_layers0EEB2c_, symObjAddr: 0x3CC0, symBinAddr: 0x53108, symSize: 0x24 }
  - { offset: 0x5AEDD, size: 0x8, addend: 0x0, symName: __RINvNtCs7dfkhshTrE4_4core3ptr13drop_in_placeINtNtNtNtB4_4iter8adapters9enumerate9EnumerateINtNtNtB4_5array4iter8IntoIterINtNtCsinFlhxATJYn_4pyo38instance5BoundNtNtNtB1Z_5types3any5PyAnyEKj4_EEECs1NyPVrLiP35_11crystal_toe, symObjAddr: 0x3CE4, symBinAddr: 0x5312C, symSize: 0x24 }
  - { offset: 0x5AF0C, size: 0x8, addend: 0x0, symName: __RINvNtCs7dfkhshTrE4_4core3ptr13drop_in_placeINtNtNtNtB4_5array4iter10iter_inner15PolymorphicIterAINtNtNtB4_3mem12maybe_uninit11MaybeUninitINtNtCsinFlhxATJYn_4pyo38instance5BoundNtNtNtB2h_5types3any5PyAnyEEj4_EECs1NyPVrLiP35_11crystal_toe, symObjAddr: 0x3D08, symBinAddr: 0x53150, symSize: 0x24 }
  - { offset: 0x5AF3B, size: 0x8, addend: 0x0, symName: __RINvNtCs7dfkhshTrE4_4core3ptr13drop_in_placeINtNvXse_NtNtCs2iVXuAemrgm_5alloc3vec9into_iterINtBP_8IntoIterppENtNtNtB4_3ops4drop4Drop4drop9DropGuardNtNtBT_6string6StringNtNtBT_5alloc6GlobalEECs1NyPVrLiP35_11crystal_toe, symObjAddr: 0x4254, symBinAddr: 0x53174, symSize: 0x24 }
  - { offset: 0x5AF6A, size: 0x8, addend: 0x0, symName: __RINvNtCs7dfkhshTrE4_4core3ptr13drop_in_placeINtNvXse_NtNtCs2iVXuAemrgm_5alloc3vec9into_iterINtBP_8IntoIterppENtNtNtB4_3ops4drop4Drop4drop9DropGuardNtNtCs1NyPVrLiP35_11crystal_toe12cross_domain10CrossTraceNtNtBT_5alloc6GlobalEEB2p_, symObjAddr: 0x4278, symBinAddr: 0x53198, symSize: 0x24 }
  - { offset: 0x5AF99, size: 0x8, addend: 0x0, symName: __RINvNtCs7dfkhshTrE4_4core3ptr13drop_in_placeINtNvXse_NtNtCs2iVXuAemrgm_5alloc3vec9into_iterINtBP_8IntoIterppENtNtNtB4_3ops4drop4Drop4drop9DropGuardNtNtCs1NyPVrLiP35_11crystal_toe5tower10TowerLayerNtNtBT_5alloc6GlobalEEB2p_, symObjAddr: 0x429C, symBinAddr: 0x531BC, symSize: 0x24 }
  - { offset: 0x5AFC8, size: 0x8, addend: 0x0, symName: __RINvNtCs7dfkhshTrE4_4core3ptr13drop_in_placeINtNvXse_NtNtCs2iVXuAemrgm_5alloc3vec9into_iterINtBP_8IntoIterppENtNtNtB4_3ops4drop4Drop4drop9DropGuardNtNtCs1NyPVrLiP35_11crystal_toe9hierarchy9ImplosionNtNtBT_5alloc6GlobalEEB2p_, symObjAddr: 0x42C0, symBinAddr: 0x531E0, symSize: 0x24 }
  - { offset: 0x5AFF7, size: 0x8, addend: 0x0, symName: __RINvNtCs7dfkhshTrE4_4core3ptr13drop_in_placeINtNvXse_NtNtCs2iVXuAemrgm_5alloc3vec9into_iterINtBP_8IntoIterppENtNtNtB4_3ops4drop4Drop4drop9DropGuardTNtNtBT_6string6StringdB2m_INtBR_3VecB2m_EENtNtBT_5alloc6GlobalEECs1NyPVrLiP35_11crystal_toe, symObjAddr: 0x42E4, symBinAddr: 0x53204, symSize: 0x24 }
  - { offset: 0x5B026, size: 0x8, addend: 0x0, symName: __RINvNtCs7dfkhshTrE4_4core3ptr13drop_in_placeINtNvXse_NtNtCs2iVXuAemrgm_5alloc3vec9into_iterINtBP_8IntoIterppENtNtNtB4_3ops4drop4Drop4drop9DropGuardTNtNtBT_6string6StringddB2m_ENtNtBT_5alloc6GlobalEECs1NyPVrLiP35_11crystal_toe, symObjAddr: 0x4308, symBinAddr: 0x53228, symSize: 0x24 }
  - { offset: 0x5B055, size: 0x8, addend: 0x0, symName: __RINvNtCs7dfkhshTrE4_4core3ptr13drop_in_placeINtNvXse_NtNtCs2iVXuAemrgm_5alloc3vec9into_iterINtBP_8IntoIterppENtNtNtB4_3ops4drop4Drop4drop9DropGuardTydINtBR_3VecNtNtBT_6string6StringEENtNtBT_5alloc6GlobalEECs1NyPVrLiP35_11crystal_toe, symObjAddr: 0x432C, symBinAddr: 0x5324C, symSize: 0x24 }
  - { offset: 0x5B084, size: 0x8, addend: 0x0, symName: __RINvNtCs7dfkhshTrE4_4core3ptr13drop_in_placeINtNvXse_NtNtCs2iVXuAemrgm_5alloc3vec9into_iterINtBP_8IntoIterppENtNtNtB4_3ops4drop4Drop4drop9DropGuarddNtNtBT_5alloc6GlobalEECs1NyPVrLiP35_11crystal_toe, symObjAddr: 0x4350, symBinAddr: 0x53270, symSize: 0x24 }
  - { offset: 0x5B0B3, size: 0x8, addend: 0x0, symName: __RINvNtCs7dfkhshTrE4_4core3ptr13drop_in_placeINtNvXse_NtNtCs2iVXuAemrgm_5alloc3vec9into_iterINtBP_8IntoIterppENtNtNtB4_3ops4drop4Drop4drop9DropGuardyNtNtBT_5alloc6GlobalEECs1NyPVrLiP35_11crystal_toe, symObjAddr: 0x4374, symBinAddr: 0x53294, symSize: 0x24 }
  - { offset: 0x5B0E2, size: 0x8, addend: 0x0, symName: __RINvNtCs7dfkhshTrE4_4core3ptr13drop_in_placeNCINvMsj_NtCs2iVXuAemrgm_5alloc3vecINtBP_3VecNtNtBR_6string6StringE14extend_trustedINtNtNtNtB4_4iter8adapters3map3MapINtNtNtB4_5slice4iter4IterReENCNCNvMs1Y_NtCs1NyPVrLiP35_11crystal_toe2pyNtB3d_13PyCrossDomain6traces00EE0EB3f_, symObjAddr: 0x4398, symBinAddr: 0x532B8, symSize: 0x24 }
  - { offset: 0x5B111, size: 0x8, addend: 0x0, symName: __RINvNtCs7dfkhshTrE4_4core3ptr13drop_in_placeNCINvMsj_NtCs2iVXuAemrgm_5alloc3vecINtBP_3VecNtNtBR_6string6StringE14extend_trustedINtNtNtNtB4_4iter8adapters3map3MapINtNtNtB4_5slice4iter4IterReENCNCNvMs2t_NtCs1NyPVrLiP35_11crystal_toe2pyNtB3d_7PyTower10key_layerss_00EE0EB3f_, symObjAddr: 0x43BC, symBinAddr: 0x532DC, symSize: 0x24 }
  - { offset: 0x5B140, size: 0x8, addend: 0x0, symName: __RINvNtCs7dfkhshTrE4_4core3ptr13drop_in_placeNCINvMsj_NtCs2iVXuAemrgm_5alloc3vecINtBP_3VecNtNtBR_6string6StringE14extend_trustedINtNtNtNtB4_4iter8adapters3map3MapINtNtNtB4_5slice4iter4IterReENCNCNvMs2t_NtCs1NyPVrLiP35_11crystal_toe2pyNtB3d_7PyTower6layers00EE0EB3f_, symObjAddr: 0x43E0, symBinAddr: 0x53300, symSize: 0x24 }
  - { offset: 0x5B16F, size: 0x8, addend: 0x0, symName: __RINvNtCs7dfkhshTrE4_4core3ptr13drop_in_placeNCINvMsj_NtCs2iVXuAemrgm_5alloc3vecINtBP_3VecTNtNtBR_6string6StringdB1q_IB1g_B1q_EEE14extend_trustedINtNtNtNtB4_4iter8adapters3map3MapINtNtBP_9into_iter8IntoIterNtNtCs1NyPVrLiP35_11crystal_toe12cross_domain10CrossTraceENCNvMs1Y_NtB3l_2pyNtB4m_13PyCrossDomain6traces0EE0EB3l_, symObjAddr: 0x4404, symBinAddr: 0x53324, symSize: 0x24 }
  - { offset: 0x5B19E, size: 0x8, addend: 0x0, symName: __RINvNtCs7dfkhshTrE4_4core3ptr13drop_in_placeNCINvNtNtNtB4_4iter8adapters3map8map_foldNtNtCs1NyPVrLiP35_11crystal_toe12cross_domain10CrossTraceTNtNtCs2iVXuAemrgm_5alloc6string6StringdB2h_INtNtB2l_3vec3VecB2h_EEuNCNvMs1Y_NtB1p_2pyNtB3v_13PyCrossDomain6traces0NCINvNvNtNtNtBP_6traits8iterator8Iterator8for_each4callB2g_NCINvMsj_B31_IB2Z_B2g_E14extend_trustedINtBL_3MapINtNtB31_9into_iter8IntoIterB1l_EB3m_EE0E0E0EB1p_, symObjAddr: 0x4428, symBinAddr: 0x53348, symSize: 0x24 }
  - { offset: 0x5B1CD, size: 0x8, addend: 0x0, symName: __RINvNtCs7dfkhshTrE4_4core3ptr13drop_in_placeNCINvNtNtNtB4_4iter8adapters3map8map_foldRReNtNtCs2iVXuAemrgm_5alloc6string6StringuNCNCNvMs1Y_NtCs1NyPVrLiP35_11crystal_toe2pyNtB2c_13PyCrossDomain6traces00NCINvNvNtNtNtBP_6traits8iterator8Iterator8for_each4callB1o_NCINvMsj_NtB1s_3vecINtB4i_3VecB1o_E14extend_trustedINtBL_3MapINtNtNtB4_5slice4iter4IterB1m_EB21_EE0E0E0EB2e_, symObjAddr: 0x444C, symBinAddr: 0x5336C, symSize: 0x24 }
  - { offset: 0x5B1FC, size: 0x8, addend: 0x0, symName: __RINvNtCs7dfkhshTrE4_4core3ptr13drop_in_placeNCINvNtNtNtB4_4iter8adapters3map8map_foldRReNtNtCs2iVXuAemrgm_5alloc6string6StringuNCNCNvMs2t_NtCs1NyPVrLiP35_11crystal_toe2pyNtB2c_7PyTower10key_layerss_00NCINvNvNtNtNtBP_6traits8iterator8Iterator8for_each4callB1o_NCINvMsj_NtB1s_3vecINtB4i_3VecB1o_E14extend_trustedINtBL_3MapINtNtNtB4_5slice4iter4IterB1m_EB21_EE0E0E0EB2e_, symObjAddr: 0x4470, symBinAddr: 0x53390, symSize: 0x24 }
  - { offset: 0x5B22B, size: 0x8, addend: 0x0, symName: __RINvNtCs7dfkhshTrE4_4core3ptr13drop_in_placeNCINvNtNtNtB4_4iter8adapters3map8map_foldRReNtNtCs2iVXuAemrgm_5alloc6string6StringuNCNCNvMs2t_NtCs1NyPVrLiP35_11crystal_toe2pyNtB2c_7PyTower6layers00NCINvNvNtNtNtBP_6traits8iterator8Iterator8for_each4callB1o_NCINvMsj_NtB1s_3vecINtB4b_3VecB1o_E14extend_trustedINtBL_3MapINtNtNtB4_5slice4iter4IterB1m_EB21_EE0E0E0EB2e_, symObjAddr: 0x4494, symBinAddr: 0x533B4, symSize: 0x24 }
  - { offset: 0x5B25A, size: 0x8, addend: 0x0, symName: __RINvNtCs7dfkhshTrE4_4core3ptr13drop_in_placeNCINvNvNtNtNtNtB4_4iter6traits8iterator8Iterator8for_each4callNtNtCs2iVXuAemrgm_5alloc6string6StringNCINvMsj_NtB1K_3vecINtB2r_3VecB1G_E14extend_trustedINtNtNtBT_8adapters3map3MapINtNtNtB4_5slice4iter4IterReENCNCNvMs1Y_NtCs1NyPVrLiP35_11crystal_toe2pyNtB4c_13PyCrossDomain6traces00EE0E0EB4e_, symObjAddr: 0x44B8, symBinAddr: 0x533D8, symSize: 0x24 }
  - { offset: 0x5B289, size: 0x8, addend: 0x0, symName: __RINvNtCs7dfkhshTrE4_4core3ptr13drop_in_placeNCINvNvNtNtNtNtB4_4iter6traits8iterator8Iterator8for_each4callNtNtCs2iVXuAemrgm_5alloc6string6StringNCINvMsj_NtB1K_3vecINtB2r_3VecB1G_E14extend_trustedINtNtNtBT_8adapters3map3MapINtNtNtB4_5slice4iter4IterReENCNCNvMs2t_NtCs1NyPVrLiP35_11crystal_toe2pyNtB4c_7PyTower10key_layerss_00EE0E0EB4e_, symObjAddr: 0x44DC, symBinAddr: 0x533FC, symSize: 0x24 }
