---
triple:          'arm64-apple-darwin'
binary-path:     '/Users/davidmontgomery/coding/entity-project/CrystalAgent/crystal-topos/target/debug/deps/libcrystal_topos.dylib'
relocations:
  - { offset: 0x1E, size: 0x8, addend: 0x0, symName: __RINvNtCs7Qj1RmEtpUo_4pyo38callback7convertNtNtCs2iVXuAemrgm_5alloc6string6StringONtNtCsgh2hkQkDkI2_8pyo3_ffi6object8PyObjectECsgvCG6cIdDjn_13crystal_topos, symObjAddr: 0x0, symBinAddr: 0x888, symSize: 0x34 }
  - { offset: 0xBA, size: 0x8, addend: 0x0, symName: __RINvNtCs7Qj1RmEtpUo_4pyo38callback7convertNtNtCs2iVXuAemrgm_5alloc6string6StringONtNtCsgh2hkQkDkI2_8pyo3_ffi6object8PyObjectECsgvCG6cIdDjn_13crystal_topos, symObjAddr: 0x0, symBinAddr: 0x888, symSize: 0x34 }
  - { offset: 0x6A4, size: 0x8, addend: 0x0, symName: __RNvXs5_NtNtCs2iVXuAemrgm_5alloc3ffi5c_strNtB5_7CStringINtNtCs7dfkhshTrE4_4core6borrow6BorrowNtNtNtBV_3ffi5c_str4CStrE6borrowCsgvCG6cIdDjn_13crystal_topos, symObjAddr: 0x0, symBinAddr: 0x8BC, symSize: 0x20 }
  - { offset: 0x72A, size: 0x8, addend: 0x0, symName: __RNvXs5_NtNtCs2iVXuAemrgm_5alloc3ffi5c_strNtB5_7CStringINtNtCs7dfkhshTrE4_4core6borrow6BorrowNtNtNtBV_3ffi5c_str4CStrE6borrowCsgvCG6cIdDjn_13crystal_topos, symObjAddr: 0x0, symBinAddr: 0x8BC, symSize: 0x20 }
  - { offset: 0x8AF, size: 0x8, addend: 0x0, symName: __RNvNtCsgvCG6cIdDjn_13crystal_topos5gates6gate_h, symObjAddr: 0x0, symBinAddr: 0x8DC, symSize: 0x228 }
  - { offset: 0x8C6, size: 0x8, addend: 0x0, symName: __RNvNtCsgvCG6cIdDjn_13crystal_topos5gates6gate_h, symObjAddr: 0x0, symBinAddr: 0x8DC, symSize: 0x228 }
  - { offset: 0xBC6, size: 0x8, addend: 0x0, symName: __RINvMs2_NtCs7Qj1RmEtpUo_4pyo34syncINtB6_11GILOnceCellINtNtCs2iVXuAemrgm_5alloc6borrow3CowNtNtNtCs7dfkhshTrE4_4core3ffi5c_str4CStrEE15get_or_try_initNCNvXs4_NtCsgvCG6cIdDjn_13crystal_topos15python_bindingsNtB2u_12QuantumStateNtNtNtB8_5impl_7pyclass11PyClassImpl3doc0NtNtB8_3err5PyErrEB2w_, symObjAddr: 0x0, symBinAddr: 0xB04, symSize: 0xB4 }
  - { offset: 0x1525, size: 0x8, addend: 0x0, symName: __RINvMs2_NtCs7Qj1RmEtpUo_4pyo34syncINtB6_11GILOnceCellINtNtCs2iVXuAemrgm_5alloc6borrow3CowNtNtNtCs7dfkhshTrE4_4core3ffi5c_str4CStrEE15get_or_try_initNCNvXs4_NtCsgvCG6cIdDjn_13crystal_topos15python_bindingsNtB2u_12QuantumStateNtNtNtB8_5impl_7pyclass11PyClassImpl3doc0NtNtB8_3err5PyErrEB2w_, symObjAddr: 0x0, symBinAddr: 0xB04, symSize: 0xB4 }
  - { offset: 0x1612, size: 0x8, addend: 0x0, symName: __RINvMs2_NtCs7Qj1RmEtpUo_4pyo34syncINtB6_11GILOnceCellINtNtCs2iVXuAemrgm_5alloc6borrow3CowNtNtNtCs7dfkhshTrE4_4core3ffi5c_str4CStrEE4initNCNvXs4_NtCsgvCG6cIdDjn_13crystal_topos15python_bindingsNtB2i_12QuantumStateNtNtNtB8_5impl_7pyclass11PyClassImpl3doc0NtNtB8_3err5PyErrEB2k_, symObjAddr: 0xB4, symBinAddr: 0x6A2BC, symSize: 0x190 }
  - { offset: 0x16E8, size: 0x8, addend: 0x0, symName: __RNvMs2_NtCs7Qj1RmEtpUo_4pyo34syncINtB5_11GILOnceCellINtNtCs2iVXuAemrgm_5alloc6borrow3CowNtNtNtCs7dfkhshTrE4_4core3ffi5c_str4CStrEE3getCsgvCG6cIdDjn_13crystal_topos, symObjAddr: 0x244, symBinAddr: 0xBB8, symSize: 0x70 }
  - { offset: 0x1769, size: 0x8, addend: 0x0, symName: __RNvMs2_NtCs7Qj1RmEtpUo_4pyo34syncINtB5_11GILOnceCellINtNtCs2iVXuAemrgm_5alloc6borrow3CowNtNtNtCs7dfkhshTrE4_4core3ffi5c_str4CStrEE3setCsgvCG6cIdDjn_13crystal_topos, symObjAddr: 0x2B4, symBinAddr: 0xC28, symSize: 0x194 }
  - { offset: 0x1819, size: 0x8, addend: 0x0, symName: __RINvXs4_NtNtCs2iVXuAemrgm_5alloc3vec9into_iterINtB6_8IntoIterdENtNtNtNtCs7dfkhshTrE4_4core4iter6traits8iterator8Iterator8try_foldINtNtNtB17_3num7nonzero7NonZerojENCINvNtNtB15_8adapters3map12map_try_folddINtNtCs7Qj1RmEtpUo_4pyo38instance2PyNtNtNtB3k_5types3any5PyAnyEB23_INtNtB17_6option6OptionB23_ENCNvXs0_NtNtNtB3k_11conversions3std3vecINtB8_3VecdEINtNtB3k_10conversion6IntoPyB3f_E7into_py0NCNvXs_NvBZ_10advance_byINtB2F_3MapBI_B4M_ENtB6o_13SpecAdvanceBy15spec_advance_by0E0B4k_ECsgvCG6cIdDjn_13crystal_topos, symObjAddr: 0x0, symBinAddr: 0xDBC, symSize: 0x150 }
  - { offset: 0x1E10, size: 0x8, addend: 0x0, symName: __RINvYINtNtNtCs2iVXuAemrgm_5alloc3vec9into_iter8IntoIterdENtNtNtNtCs7dfkhshTrE4_4core4iter6traits8iterator8Iterator3mapINtNtCs7Qj1RmEtpUo_4pyo38instance2PyNtNtNtB1X_5types3any5PyAnyENCNvXs0_NtNtNtB1X_11conversions3std3vecINtB8_3VecdEINtNtB1X_10conversion6IntoPyB1S_E7into_py0ECsgvCG6cIdDjn_13crystal_topos, symObjAddr: 0x150, symBinAddr: 0xF0C, symSize: 0x28 }
  - { offset: 0x1F09, size: 0x8, addend: 0x0, symName: __RNvYINtNtNtCs2iVXuAemrgm_5alloc3vec9into_iter8IntoIterdENtNtNtNtCs7dfkhshTrE4_4core4iter6traits10exact_size17ExactSizeIterator3lenCsgvCG6cIdDjn_13crystal_topos, symObjAddr: 0x3C8, symBinAddr: 0x1184, symSize: 0xB8 }
  - { offset: 0x23B7, size: 0x8, addend: 0x0, symName: __RINvXs4_NtNtCs2iVXuAemrgm_5alloc3vec9into_iterINtB6_8IntoIterdENtNtNtNtCs7dfkhshTrE4_4core4iter6traits8iterator8Iterator8try_foldINtNtNtB17_3num7nonzero7NonZerojENCINvNtNtB15_8adapters3map12map_try_folddINtNtCs7Qj1RmEtpUo_4pyo38instance2PyNtNtNtB3k_5types3any5PyAnyEB23_INtNtB17_6option6OptionB23_ENCNvXs0_NtNtNtB3k_11conversions3std3vecINtB8_3VecdEINtNtB3k_10conversion6IntoPyB3f_E7into_py0NCNvXs_NvBZ_10advance_byINtB2F_3MapBI_B4M_ENtB6o_13SpecAdvanceBy15spec_advance_by0E0B4k_ECsgvCG6cIdDjn_13crystal_topos, symObjAddr: 0x0, symBinAddr: 0xDBC, symSize: 0x150 }
  - { offset: 0x258C, size: 0x8, addend: 0x0, symName: __RNvXs4_NtNtCs2iVXuAemrgm_5alloc3vec9into_iterINtB5_8IntoIterdENtNtNtNtCs7dfkhshTrE4_4core4iter6traits8iterator8Iterator4nextCsgvCG6cIdDjn_13crystal_topos, symObjAddr: 0x244, symBinAddr: 0x1000, symSize: 0x94 }
  - { offset: 0x26E6, size: 0x8, addend: 0x0, symName: __RNvXs4_NtNtCs2iVXuAemrgm_5alloc3vec9into_iterINtB5_8IntoIterdENtNtNtNtCs7dfkhshTrE4_4core4iter6traits8iterator8Iterator9size_hintCsgvCG6cIdDjn_13crystal_topos, symObjAddr: 0x2D8, symBinAddr: 0x1094, symSize: 0xB4 }
  - { offset: 0x288F, size: 0x8, addend: 0x0, symName: __RNvXs6_NtNtCs2iVXuAemrgm_5alloc3vec9into_iterINtB5_8IntoIterdENtNtNtNtCs7dfkhshTrE4_4core4iter6traits10exact_size17ExactSizeIterator8is_emptyCsgvCG6cIdDjn_13crystal_topos, symObjAddr: 0x38C, symBinAddr: 0x1148, symSize: 0x3C }
  - { offset: 0x2B05, size: 0x8, addend: 0x0, symName: __RNvMs0_NtNtCs2iVXuAemrgm_5alloc3vec9into_iterINtB5_8IntoIterdE16as_raw_mut_sliceCsgvCG6cIdDjn_13crystal_topos, symObjAddr: 0x178, symBinAddr: 0xF34, symSize: 0xCC }
  - { offset: 0x2D12, size: 0x8, addend: 0x0, symName: __RNvXsT_NtNtCs7dfkhshTrE4_4core3fmt3numiNtB7_5Debug3fmtCsgvCG6cIdDjn_13crystal_topos, symObjAddr: 0x0, symBinAddr: 0x123C, symSize: 0x90 }
  - { offset: 0x2DAD, size: 0x8, addend: 0x0, symName: __RNvXsT_NtNtCs7dfkhshTrE4_4core3fmt3numiNtB7_5Debug3fmtCsgvCG6cIdDjn_13crystal_topos, symObjAddr: 0x0, symBinAddr: 0x123C, symSize: 0x90 }
  - { offset: 0x2F9E, size: 0x8, addend: 0x0, symName: __RINvMsj_NtCs2iVXuAemrgm_5alloc3vecINtB6_3VecdE14extend_trustedINtNtNtNtCs7dfkhshTrE4_4core4iter8adapters3map3MapINtNtNtB17_3ops5range5RangejENCNvNtCsgvCG6cIdDjn_13crystal_topos7measure12sector_probss_0EEB2l_, symObjAddr: 0x0, symBinAddr: 0x12CC, symSize: 0x130 }
  - { offset: 0x417B, size: 0x8, addend: 0x0, symName: __RINvNtCs2iVXuAemrgm_5alloc3vec9from_elemNtNtCsgvCG6cIdDjn_13crystal_topos4base2CxEBG_, symObjAddr: 0x378, symBinAddr: 0x1644, symSize: 0x28 }
  - { offset: 0x41C6, size: 0x8, addend: 0x0, symName: __RINvXse_NtCs2iVXuAemrgm_5alloc3vecINtB6_3VecdEINtNtNtNtCs7dfkhshTrE4_4core4iter6traits7collect12FromIteratordE9from_iterINtNtNtBP_8adapters3map3MapINtNtNtBR_3ops5range5RangejENCNvNtCsgvCG6cIdDjn_13crystal_topos7measure12sector_probss_0EEB2T_, symObjAddr: 0x3A0, symBinAddr: 0x166C, symSize: 0x34 }
  - { offset: 0x4207, size: 0x8, addend: 0x0, symName: __RINvXse_NtCs2iVXuAemrgm_5alloc3vecINtB6_3VecdEINtNtNtNtCs7dfkhshTrE4_4core4iter6traits7collect12FromIteratordE9from_iterINtNtNtBP_8adapters3map3MapINtNtNtBR_5slice4iter4IterNtNtCsgvCG6cIdDjn_13crystal_topos4base2CxENCNvNtB2P_7measure10born_probs0EEB2P_, symObjAddr: 0x3D4, symBinAddr: 0x16A0, symSize: 0x38 }
  - { offset: 0x4247, size: 0x8, addend: 0x0, symName: __RINvXse_NtCs2iVXuAemrgm_5alloc3vecINtB6_3VecdEINtNtNtNtCs7dfkhshTrE4_4core4iter6traits7collect12FromIteratordE9from_iterINtNtNtBP_8adapters3map3MapINtNtNtBR_5slice4iter4IterNtNtCsgvCG6cIdDjn_13crystal_topos4base2CxENCNvNtB2P_7measure12sector_probs0EEB2P_, symObjAddr: 0x40C, symBinAddr: 0x16D8, symSize: 0x38 }
  - { offset: 0x4292, size: 0x8, addend: 0x0, symName: __RNCINvMsj_NtCs2iVXuAemrgm_5alloc3vecINtB8_3VecdE14extend_trustedINtNtNtNtCs7dfkhshTrE4_4core4iter8adapters3map3MapINtNtNtB19_3ops5range5RangejENCNvNtCsgvCG6cIdDjn_13crystal_topos7measure12sector_probss_0EE0B2n_, symObjAddr: 0x444, symBinAddr: 0x1710, symSize: 0x30 }
  - { offset: 0x433A, size: 0x8, addend: 0x0, symName: __RNCINvMsj_NtCs2iVXuAemrgm_5alloc3vecINtB8_3VecdE14extend_trustedINtNtNtNtCs7dfkhshTrE4_4core4iter8adapters3map3MapINtNtNtB19_5slice4iter4IterNtNtCsgvCG6cIdDjn_13crystal_topos4base2CxENCNvNtB2j_7measure10born_probs0EE0B2j_, symObjAddr: 0x474, symBinAddr: 0x1740, symSize: 0x30 }
  - { offset: 0x43E2, size: 0x8, addend: 0x0, symName: __RNCINvMsj_NtCs2iVXuAemrgm_5alloc3vecINtB8_3VecdE14extend_trustedINtNtNtNtCs7dfkhshTrE4_4core4iter8adapters3map3MapINtNtNtB19_5slice4iter4IterNtNtCsgvCG6cIdDjn_13crystal_topos4base2CxENCNvNtB2j_7measure12sector_probs0EE0B2j_, symObjAddr: 0x4A4, symBinAddr: 0x1770, symSize: 0x30 }
  - { offset: 0x4561, size: 0x8, addend: 0x0, symName: __RNvXNtNtCs2iVXuAemrgm_5alloc3vec14spec_from_iterINtB4_3VecdEINtB2_12SpecFromIterdINtNtNtNtCs7dfkhshTrE4_4core4iter8adapters3map3MapINtNtNtB1q_3ops5range5RangejENCNvNtCsgvCG6cIdDjn_13crystal_topos7measure12sector_probss_0EE9from_iterB2E_, symObjAddr: 0x958, symBinAddr: 0x1C24, symSize: 0x14 }
  - { offset: 0x45A0, size: 0x8, addend: 0x0, symName: __RNvXNtNtCs2iVXuAemrgm_5alloc3vec14spec_from_iterINtB4_3VecdEINtB2_12SpecFromIterdINtNtNtNtCs7dfkhshTrE4_4core4iter8adapters3map3MapINtNtNtB1q_5slice4iter4IterNtNtCsgvCG6cIdDjn_13crystal_topos4base2CxENCNvNtB2A_7measure10born_probs0EE9from_iterB2A_, symObjAddr: 0x96C, symBinAddr: 0x1C38, symSize: 0x2C }
  - { offset: 0x45DE, size: 0x8, addend: 0x0, symName: __RNvXNtNtCs2iVXuAemrgm_5alloc3vec14spec_from_iterINtB4_3VecdEINtB2_12SpecFromIterdINtNtNtNtCs7dfkhshTrE4_4core4iter8adapters3map3MapINtNtNtB1q_5slice4iter4IterNtNtCsgvCG6cIdDjn_13crystal_topos4base2CxENCNvNtB2A_7measure12sector_probs0EE9from_iterB2A_, symObjAddr: 0x998, symBinAddr: 0x1C64, symSize: 0x2C }
  - { offset: 0x4623, size: 0x8, addend: 0x0, symName: __RNvXs7_NtCs2iVXuAemrgm_5alloc3vecINtB5_3VecNtNtCsgvCG6cIdDjn_13crystal_topos4base2CxENtNtNtCs7dfkhshTrE4_4core3ops5deref5Deref5derefBJ_, symObjAddr: 0xAA0, symBinAddr: 0x1D6C, symSize: 0x20 }
  - { offset: 0x477B, size: 0x8, addend: 0x0, symName: __RNvXs_NtNtCs2iVXuAemrgm_5alloc3vec11spec_extendINtB6_3VecdEINtB4_10SpecExtenddINtNtNtNtCs7dfkhshTrE4_4core4iter8adapters3map3MapINtNtNtB1n_3ops5range5RangejENCNvNtCsgvCG6cIdDjn_13crystal_topos7measure12sector_probss_0EE11spec_extendB2B_, symObjAddr: 0xAC0, symBinAddr: 0x1D8C, symSize: 0x24 }
  - { offset: 0x47CD, size: 0x8, addend: 0x0, symName: __RNvXs_NtNtCs2iVXuAemrgm_5alloc3vec11spec_extendINtB6_3VecdEINtB4_10SpecExtenddINtNtNtNtCs7dfkhshTrE4_4core4iter8adapters3map3MapINtNtNtB1n_5slice4iter4IterNtNtCsgvCG6cIdDjn_13crystal_topos4base2CxENCNvNtB2x_7measure10born_probs0EE11spec_extendB2x_, symObjAddr: 0xAE4, symBinAddr: 0x1DB0, symSize: 0x34 }
  - { offset: 0x481E, size: 0x8, addend: 0x0, symName: __RNvXs_NtNtCs2iVXuAemrgm_5alloc3vec11spec_extendINtB6_3VecdEINtB4_10SpecExtenddINtNtNtNtCs7dfkhshTrE4_4core4iter8adapters3map3MapINtNtNtB1n_5slice4iter4IterNtNtCsgvCG6cIdDjn_13crystal_topos4base2CxENCNvNtB2x_7measure12sector_probs0EE11spec_extendB2x_, symObjAddr: 0xB18, symBinAddr: 0x1DE4, symSize: 0x34 }
  - { offset: 0x487B, size: 0x8, addend: 0x0, symName: __RNvXs_NtNtCs2iVXuAemrgm_5alloc3vec21spec_from_iter_nestedINtB6_3VecdEINtB4_18SpecFromIterNesteddINtNtNtNtCs7dfkhshTrE4_4core4iter8adapters3map3MapINtNtNtB1F_3ops5range5RangejENCNvNtCsgvCG6cIdDjn_13crystal_topos7measure12sector_probss_0EE9from_iterB2T_, symObjAddr: 0xB4C, symBinAddr: 0x1E18, symSize: 0x130 }
  - { offset: 0x493D, size: 0x8, addend: 0x0, symName: __RNvXs_NtNtCs2iVXuAemrgm_5alloc3vec21spec_from_iter_nestedINtB6_3VecdEINtB4_18SpecFromIterNesteddINtNtNtNtCs7dfkhshTrE4_4core4iter8adapters3map3MapINtNtNtB1F_5slice4iter4IterNtNtCsgvCG6cIdDjn_13crystal_topos4base2CxENCNvNtB2P_7measure10born_probs0EE9from_iterB2P_, symObjAddr: 0xC7C, symBinAddr: 0x1F48, symSize: 0x12C }
  - { offset: 0x49FE, size: 0x8, addend: 0x0, symName: __RNvXs_NtNtCs2iVXuAemrgm_5alloc3vec21spec_from_iter_nestedINtB6_3VecdEINtB4_18SpecFromIterNesteddINtNtNtNtCs7dfkhshTrE4_4core4iter8adapters3map3MapINtNtNtB1F_5slice4iter4IterNtNtCsgvCG6cIdDjn_13crystal_topos4base2CxENCNvNtB2P_7measure12sector_probs0EE9from_iterB2P_, symObjAddr: 0xDA8, symBinAddr: 0x2074, symSize: 0x12C }
  - { offset: 0x4AC6, size: 0x8, addend: 0x0, symName: __RNvXsa_NtCs2iVXuAemrgm_5alloc3vecINtB5_3VecNtNtCsgvCG6cIdDjn_13crystal_topos4base2CxENtNtCs7dfkhshTrE4_4core5clone5Clone5cloneBJ_, symObjAddr: 0xED4, symBinAddr: 0x21A0, symSize: 0x4C }
  - { offset: 0x4C34, size: 0x8, addend: 0x0, symName: __RNvXsc_NtCs2iVXuAemrgm_5alloc3vecINtB5_3VecNtNtCsgvCG6cIdDjn_13crystal_topos4base2CxEINtNtNtCs7dfkhshTrE4_4core3ops5index5IndexjE5indexBJ_, symObjAddr: 0xF20, symBinAddr: 0x21EC, symSize: 0x44 }
  - { offset: 0x4DB9, size: 0x8, addend: 0x0, symName: __RNvXsd_NtCs2iVXuAemrgm_5alloc3vecINtB5_3VecNtNtCsgvCG6cIdDjn_13crystal_topos4base2CxEINtNtNtCs7dfkhshTrE4_4core3ops5index8IndexMutjE9index_mutBJ_, symObjAddr: 0xF64, symBinAddr: 0x2230, symSize: 0x44 }
  - { offset: 0x4ED8, size: 0x8, addend: 0x0, symName: __RNvXsf_NtCs2iVXuAemrgm_5alloc3vecINtB5_3VecdENtNtNtNtCs7dfkhshTrE4_4core4iter6traits7collect12IntoIterator9into_iterCsgvCG6cIdDjn_13crystal_topos, symObjAddr: 0xFA8, symBinAddr: 0x2274, symSize: 0xA8 }
  - { offset: 0x50D5, size: 0x8, addend: 0x0, symName: __RNvXsg_NtCs2iVXuAemrgm_5alloc3vecRINtB5_3VecNtNtCsgvCG6cIdDjn_13crystal_topos4base2CxENtNtNtNtCs7dfkhshTrE4_4core4iter6traits7collect12IntoIterator9into_iterBK_, symObjAddr: 0x1050, symBinAddr: 0x231C, symSize: 0x60 }
  - { offset: 0x52C0, size: 0x8, addend: 0x0, symName: __RNvXsh_NtCs2iVXuAemrgm_5alloc3vecQINtB5_3VecNtNtCsgvCG6cIdDjn_13crystal_topos4base2CxENtNtNtNtCs7dfkhshTrE4_4core4iter6traits7collect12IntoIterator9into_iterBK_, symObjAddr: 0x10B0, symBinAddr: 0x237C, symSize: 0x60 }
  - { offset: 0x5944, size: 0x8, addend: 0x0, symName: __RNvXs0_NtNtNtCs7Qj1RmEtpUo_4pyo311conversions3std3vecINtNtCs2iVXuAemrgm_5alloc3vec3VecdEINtNtBb_10conversion6IntoPyINtNtBb_8instance2PyNtNtNtBb_5types3any5PyAnyEE7into_pyCsgvCG6cIdDjn_13crystal_topos, symObjAddr: 0x9DC, symBinAddr: 0x1CA8, symSize: 0xC4 }
  - { offset: 0x5A62, size: 0x8, addend: 0x0, symName: __RNvXs0_NtNtCs7Qj1RmEtpUo_4pyo35impl_4wrapINtNtCs2iVXuAemrgm_5alloc3vec3VecdEINtB5_6OkWrapBD_E4wrapCsgvCG6cIdDjn_13crystal_topos, symObjAddr: 0x9C4, symBinAddr: 0x1C90, symSize: 0x18 }
  - { offset: 0x5D95, size: 0x8, addend: 0x0, symName: __RINvMsj_NtCs2iVXuAemrgm_5alloc3vecINtB6_3VecdE14extend_trustedINtNtNtNtCs7dfkhshTrE4_4core4iter8adapters3map3MapINtNtNtB17_3ops5range5RangejENCNvNtCsgvCG6cIdDjn_13crystal_topos7measure12sector_probss_0EEB2l_, symObjAddr: 0x0, symBinAddr: 0x12CC, symSize: 0x130 }
  - { offset: 0x5FA3, size: 0x8, addend: 0x0, symName: __RINvMsj_NtCs2iVXuAemrgm_5alloc3vecINtB6_3VecdE14extend_trustedINtNtNtNtCs7dfkhshTrE4_4core4iter8adapters3map3MapINtNtNtB17_5slice4iter4IterNtNtCsgvCG6cIdDjn_13crystal_topos4base2CxENCNvNtB2h_7measure10born_probs0EEB2h_, symObjAddr: 0x130, symBinAddr: 0x13FC, symSize: 0x124 }
  - { offset: 0x6196, size: 0x8, addend: 0x0, symName: __RINvMsj_NtCs2iVXuAemrgm_5alloc3vecINtB6_3VecdE14extend_trustedINtNtNtNtCs7dfkhshTrE4_4core4iter8adapters3map3MapINtNtNtB17_5slice4iter4IterNtNtCsgvCG6cIdDjn_13crystal_topos4base2CxENCNvNtB2h_7measure12sector_probs0EEB2h_, symObjAddr: 0x254, symBinAddr: 0x1520, symSize: 0x124 }
  - { offset: 0x635C, size: 0x8, addend: 0x0, symName: __RNvMNtCs2iVXuAemrgm_5alloc3vecINtB2_3VecReE3newCsgvCG6cIdDjn_13crystal_topos, symObjAddr: 0x4D4, symBinAddr: 0x17A0, symSize: 0x14 }
  - { offset: 0x64A3, size: 0x8, addend: 0x0, symName: __RNvMs3_NtCs2iVXuAemrgm_5alloc3vecINtB5_3VecNtNtCsgvCG6cIdDjn_13crystal_topos4base2CxE11extend_withBJ_, symObjAddr: 0x4E8, symBinAddr: 0x17B4, symSize: 0x200 }
  - { offset: 0x6741, size: 0x8, addend: 0x0, symName: __RNvMsF_NtCs2iVXuAemrgm_5alloc3vecINtB5_3VecReE4pushCsgvCG6cIdDjn_13crystal_topos, symObjAddr: 0x6E8, symBinAddr: 0x19B4, symSize: 0x30 }
  - { offset: 0x6899, size: 0x8, addend: 0x0, symName: __RNvMsF_NtCs2iVXuAemrgm_5alloc3vecINtB5_3VecReE8push_mutCsgvCG6cIdDjn_13crystal_topos, symObjAddr: 0x718, symBinAddr: 0x19E4, symSize: 0xE0 }
  - { offset: 0x6A1C, size: 0x8, addend: 0x0, symName: __RNvMs_NtCs2iVXuAemrgm_5alloc3vecINtB4_3VecNtNtCsgvCG6cIdDjn_13crystal_topos4base2CxE3lenBI_, symObjAddr: 0x7F8, symBinAddr: 0x1AC4, symSize: 0x18 }
  - { offset: 0x6B81, size: 0x8, addend: 0x0, symName: __RNvMs_NtCs2iVXuAemrgm_5alloc3vecINtB4_3VecNtNtCsgvCG6cIdDjn_13crystal_topos4base2CxE7reserveBI_, symObjAddr: 0x810, symBinAddr: 0x1ADC, symSize: 0xA8 }
  - { offset: 0x6DE5, size: 0x8, addend: 0x0, symName: __RNvMs_NtCs2iVXuAemrgm_5alloc3vecINtB4_3VecdE7reserveCsgvCG6cIdDjn_13crystal_topos, symObjAddr: 0x8B8, symBinAddr: 0x1B84, symSize: 0xA0 }
  - { offset: 0x77E5, size: 0x8, addend: 0x0, symName: __RINvMNtCs7Qj1RmEtpUo_4pyo38instanceINtB3_5BoundNtNtCsgvCG6cIdDjn_13crystal_topos15python_bindings12QuantumStateE3newBJ_EBN_, symObjAddr: 0x0, symBinAddr: 0x23DC, symSize: 0x54 }
  - { offset: 0x8128, size: 0x8, addend: 0x0, symName: __RNvXs1_NtCs7dfkhshTrE4_4core7convertINtNtCs7Qj1RmEtpUo_4pyo38instance5BoundNtNtNtBD_5types4list6PyListEINtB5_4IntoINtBB_2PyNtNtB1f_3any5PyAnyEE4intoCsgvCG6cIdDjn_13crystal_topos, symObjAddr: 0x7C0, symBinAddr: 0x2B9C, symSize: 0x24 }
  - { offset: 0x8673, size: 0x8, addend: 0x0, symName: __RNCNvMsa_NtCs7Qj1RmEtpUo_4pyo38instanceINtB7_8BorrowedNtNtNtB9_5types3any5PyAnyE15from_ptr_or_opt0CsgvCG6cIdDjn_13crystal_topos, symObjAddr: 0x438, symBinAddr: 0x2814, symSize: 0x20 }
  - { offset: 0x87B1, size: 0x8, addend: 0x0, symName: __RNvXs5_NtCs7Qj1RmEtpUo_4pyo38instanceINtB5_5BoundNtNtCsgvCG6cIdDjn_13crystal_topos15python_bindings12QuantumStateENtNtCs7dfkhshTrE4_4core5clone5Clone5cloneBP_, symObjAddr: 0x7E4, symBinAddr: 0x2BC0, symSize: 0x34 }
  - { offset: 0x87E8, size: 0x8, addend: 0x0, symName: __RNvXs5_NtCs7Qj1RmEtpUo_4pyo38instanceINtB5_5BoundNtNtNtB7_5types10boolobject6PyBoolENtNtCs7dfkhshTrE4_4core5clone5Clone5cloneCsgvCG6cIdDjn_13crystal_topos, symObjAddr: 0x818, symBinAddr: 0x2BF4, symSize: 0x34 }
  - { offset: 0x8825, size: 0x8, addend: 0x0, symName: __RNvXsd_NtCs7Qj1RmEtpUo_4pyo38instanceINtB5_8BorrowedNtNtNtB7_5types10boolobject6PyBoolENtNtNtCs7dfkhshTrE4_4core3ops5deref5Deref5derefCsgvCG6cIdDjn_13crystal_topos, symObjAddr: 0x84C, symBinAddr: 0x2C28, symSize: 0x74 }
  - { offset: 0x8862, size: 0x8, addend: 0x0, symName: __RNvXsh_NtCs7Qj1RmEtpUo_4pyo38instanceINtB5_8BorrowedNtNtNtB7_5types10boolobject6PyBoolEINtNtB7_10conversion6IntoPyINtB5_2PyNtNtBS_3any5PyAnyEE7into_pyCsgvCG6cIdDjn_13crystal_topos, symObjAddr: 0x8C0, symBinAddr: 0x2C9C, symSize: 0x28 }
  - { offset: 0x88BA, size: 0x8, addend: 0x0, symName: __RNvXsp_NtCs7Qj1RmEtpUo_4pyo38instanceINtB5_2PyNtNtCsgvCG6cIdDjn_13crystal_topos15python_bindings12QuantumStateEINtNtB7_10conversion6IntoPyIBA_NtNtNtB7_5types3any5PyAnyEE7into_pyBM_, symObjAddr: 0x8FC, symBinAddr: 0x2CD8, symSize: 0x24 }
  - { offset: 0x8912, size: 0x8, addend: 0x0, symName: __RNvXss_NtCs7Qj1RmEtpUo_4pyo38instanceINtB5_5BoundNtNtNtB7_5types10boolobject6PyBoolEINtNtB7_10conversion6IntoPyINtB5_2PyNtNtBP_3any5PyAnyEE7into_pyCsgvCG6cIdDjn_13crystal_topos, symObjAddr: 0x920, symBinAddr: 0x2CFC, symSize: 0x28 }
  - { offset: 0x896A, size: 0x8, addend: 0x0, symName: __RNvXsw_NtCs7Qj1RmEtpUo_4pyo38instanceINtB5_2PyNtNtNtB7_5types3any5PyAnyEINtNtCs7dfkhshTrE4_4core7convert4FromINtB5_5BoundNtNtBM_4list6PyListEE4fromCsgvCG6cIdDjn_13crystal_topos, symObjAddr: 0x948, symBinAddr: 0x2D24, symSize: 0x84 }
  - { offset: 0x8B04, size: 0x8, addend: 0x0, symName: __RNvXsn_NtNtCs7Qj1RmEtpUo_4pyo35impl_9pymethodsRINtNtB9_8instance5BoundNtNtNtB9_5types6module8PyModuleEINtNtCs7dfkhshTrE4_4core7convert4FromINtB5_8BoundRefB16_EE4fromCsgvCG6cIdDjn_13crystal_topos, symObjAddr: 0x8E8, symBinAddr: 0x2CC4, symSize: 0x14 }
  - { offset: 0x8C4D, size: 0x8, addend: 0x0, symName: __RINvXs_NtNtCs7Qj1RmEtpUo_4pyo35types3anyINtNtB9_8instance5BoundNtB5_5PyAnyENtB5_12PyAnyMethods18downcast_uncheckedNtNtCsgvCG6cIdDjn_13crystal_topos15python_bindings12QuantumStateEB1S_, symObjAddr: 0x104, symBinAddr: 0x24E0, symSize: 0x74 }
  - { offset: 0x8C84, size: 0x8, addend: 0x0, symName: __RINvXs_NtNtCs7Qj1RmEtpUo_4pyo35types3anyINtNtB9_8instance5BoundNtB5_5PyAnyENtB5_12PyAnyMethods23downcast_into_uncheckedNtNtCsgvCG6cIdDjn_13crystal_topos15python_bindings12QuantumStateEB1X_, symObjAddr: 0x178, symBinAddr: 0x2554, symSize: 0x14 }
  - { offset: 0x8CBB, size: 0x8, addend: 0x0, symName: __RINvXs_NtNtCs7Qj1RmEtpUo_4pyo35types3anyINtNtB9_8instance5BoundNtB5_5PyAnyENtB5_12PyAnyMethods7extractINtNtB9_6pycell5PyRefNtNtCsgvCG6cIdDjn_13crystal_topos15python_bindings12QuantumStateEEB21_, symObjAddr: 0x18C, symBinAddr: 0x2568, symSize: 0x30 }
  - { offset: 0x8CF2, size: 0x8, addend: 0x0, symName: __RINvXs_NtNtCs7Qj1RmEtpUo_4pyo35types3anyINtNtB9_8instance5BoundNtB5_5PyAnyENtB5_12PyAnyMethods8downcastNtNtCsgvCG6cIdDjn_13crystal_topos15python_bindings12QuantumStateEB1H_, symObjAddr: 0x1BC, symBinAddr: 0x2598, symSize: 0x84 }
  - { offset: 0x8DA1, size: 0x8, addend: 0x0, symName: __RINvXs_NtNtCs7Qj1RmEtpUo_4pyo35types6moduleINtNtB9_8instance5BoundNtB5_8PyModuleENtB5_15PyModuleMethods3addReRIBG_NtNtB7_10typeobject6PyTypeEECsgvCG6cIdDjn_13crystal_topos, symObjAddr: 0x240, symBinAddr: 0x261C, symSize: 0x140 }
  - { offset: 0x8E15, size: 0x8, addend: 0x0, symName: __RINvXs_NtNtCs7Qj1RmEtpUo_4pyo35types6moduleINtNtB9_8instance5BoundNtB5_8PyModuleENtB5_15PyModuleMethods9add_classNtNtCsgvCG6cIdDjn_13crystal_topos15python_bindings12QuantumStateEB1R_, symObjAddr: 0x380, symBinAddr: 0x275C, symSize: 0xB8 }
  - { offset: 0x92C8, size: 0x8, addend: 0x0, symName: __RINvMNtCs7Qj1RmEtpUo_4pyo38instanceINtB3_5BoundNtNtCsgvCG6cIdDjn_13crystal_topos15python_bindings12QuantumStateE3newBJ_EBN_, symObjAddr: 0x0, symBinAddr: 0x23DC, symSize: 0x54 }
  - { offset: 0x9344, size: 0x8, addend: 0x0, symName: __RINvMNtNtCs7Qj1RmEtpUo_4pyo38internal8get_slotINtNtB7_8instance5BoundNtNtNtB7_5types10typeobject6PyTypeE8get_slotKl4a_ECsgvCG6cIdDjn_13crystal_topos, symObjAddr: 0x54, symBinAddr: 0x2430, symSize: 0x28 }
  - { offset: 0x9399, size: 0x8, addend: 0x0, symName: __RINvMsa_NtCs7Qj1RmEtpUo_4pyo38instanceINtB6_8BorrowedNtNtNtB8_5types3any5PyAnyE18downcast_uncheckedNtNtBT_10boolobject6PyBoolECsgvCG6cIdDjn_13crystal_topos, symObjAddr: 0x7C, symBinAddr: 0x2458, symSize: 0x14 }
  - { offset: 0x93D2, size: 0x8, addend: 0x0, symName: __RINvMsa_NtCs7Qj1RmEtpUo_4pyo38instanceINtB6_8BorrowedNtNtNtB8_5types3any5PyAnyE18downcast_uncheckedNtNtBT_4dict6PyDictECsgvCG6cIdDjn_13crystal_topos, symObjAddr: 0x90, symBinAddr: 0x246C, symSize: 0x14 }
  - { offset: 0x940B, size: 0x8, addend: 0x0, symName: __RINvMsa_NtCs7Qj1RmEtpUo_4pyo38instanceINtB6_8BorrowedNtNtNtB8_5types3any5PyAnyE18downcast_uncheckedNtNtBT_5tuple7PyTupleECsgvCG6cIdDjn_13crystal_topos, symObjAddr: 0xA4, symBinAddr: 0x2480, symSize: 0x14 }
  - { offset: 0x9437, size: 0x8, addend: 0x0, symName: __RINvMsk_NtCs7Qj1RmEtpUo_4pyo38instanceINtB6_2PyNtNtCsgvCG6cIdDjn_13crystal_topos15python_bindings12QuantumStateE3newBJ_EBN_, symObjAddr: 0xB8, symBinAddr: 0x2494, symSize: 0x4C }
  - { offset: 0x949C, size: 0x8, addend: 0x0, symName: __RNvMs0_NtCs7Qj1RmEtpUo_4pyo38instanceINtB5_5BoundNtNtCsgvCG6cIdDjn_13crystal_topos15python_bindings12QuantumStateE10try_borrowBP_, symObjAddr: 0x458, symBinAddr: 0x2834, symSize: 0x24 }
  - { offset: 0x94D5, size: 0x8, addend: 0x0, symName: __RNvMs0_NtCs7Qj1RmEtpUo_4pyo38instanceINtB5_5BoundNtNtCsgvCG6cIdDjn_13crystal_topos15python_bindings12QuantumStateE16get_class_objectBP_, symObjAddr: 0x47C, symBinAddr: 0x2858, symSize: 0x2C }
  - { offset: 0x950E, size: 0x8, addend: 0x0, symName: __RNvMs7_NtCs7Qj1RmEtpUo_4pyo38instanceINtB5_5BoundNtNtCsgvCG6cIdDjn_13crystal_topos15python_bindings12QuantumStateE6as_ptrBP_, symObjAddr: 0x4A8, symBinAddr: 0x2884, symSize: 0x2C }
  - { offset: 0x953A, size: 0x8, addend: 0x0, symName: __RNvMs7_NtCs7Qj1RmEtpUo_4pyo38instanceINtB5_5BoundNtNtCsgvCG6cIdDjn_13crystal_topos15python_bindings12QuantumStateE6unbindBP_, symObjAddr: 0x4D4, symBinAddr: 0x28B0, symSize: 0x48 }
  - { offset: 0x9584, size: 0x8, addend: 0x0, symName: __RNvMs7_NtCs7Qj1RmEtpUo_4pyo38instanceINtB5_5BoundNtNtNtB7_5types10boolobject6PyBoolE6unbindCsgvCG6cIdDjn_13crystal_topos, symObjAddr: 0x51C, symBinAddr: 0x28F8, symSize: 0x48 }
  - { offset: 0x95CE, size: 0x8, addend: 0x0, symName: __RNvMs7_NtCs7Qj1RmEtpUo_4pyo38instanceINtB5_5BoundNtNtNtB7_5types10boolobject6PyBoolE8into_anyCsgvCG6cIdDjn_13crystal_topos, symObjAddr: 0x564, symBinAddr: 0x2940, symSize: 0x30 }
  - { offset: 0x95FA, size: 0x8, addend: 0x0, symName: __RNvMs9_NtCs7Qj1RmEtpUo_4pyo38instanceINtB5_8BorrowedNtNtNtB7_5types10boolobject6PyBoolE8to_ownedCsgvCG6cIdDjn_13crystal_topos, symObjAddr: 0x594, symBinAddr: 0x2970, symSize: 0x2C }
  - { offset: 0x9633, size: 0x8, addend: 0x0, symName: __RNvMsl_NtCs7Qj1RmEtpUo_4pyo38instanceINtB5_2PyNtNtCsgvCG6cIdDjn_13crystal_topos15python_bindings12QuantumStateE6as_ptrBM_, symObjAddr: 0x5C0, symBinAddr: 0x299C, symSize: 0x1C }
  - { offset: 0x965F, size: 0x8, addend: 0x0, symName: __RNvMsl_NtCs7Qj1RmEtpUo_4pyo38instanceINtB5_2PyNtNtCsgvCG6cIdDjn_13crystal_topos15python_bindings12QuantumStateE8into_anyBM_, symObjAddr: 0x5DC, symBinAddr: 0x29B8, symSize: 0x3C }
  - { offset: 0x968B, size: 0x8, addend: 0x0, symName: __RNvMsl_NtCs7Qj1RmEtpUo_4pyo38instanceINtB5_2PyNtNtNtB7_5types10boolobject6PyBoolE8into_anyCsgvCG6cIdDjn_13crystal_topos, symObjAddr: 0x618, symBinAddr: 0x29F4, symSize: 0x3C }
  - { offset: 0x96B7, size: 0x8, addend: 0x0, symName: __RNvMsl_NtCs7Qj1RmEtpUo_4pyo38instanceINtB5_2PyNtNtNtB7_5types6module8PyModuleE8into_ptrCsgvCG6cIdDjn_13crystal_topos, symObjAddr: 0x654, symBinAddr: 0x2A30, symSize: 0x30 }
  - { offset: 0x96E3, size: 0x8, addend: 0x0, symName: __RNvMsm_NtCs7Qj1RmEtpUo_4pyo38instanceINtB5_2PyNtNtCsgvCG6cIdDjn_13crystal_topos15python_bindings12QuantumStateE16get_class_objectBM_, symObjAddr: 0x684, symBinAddr: 0x2A60, symSize: 0x78 }
  - { offset: 0x9725, size: 0x8, addend: 0x0, symName: __RNvMsn_NtCs7Qj1RmEtpUo_4pyo38instanceINtB5_2PyNtNtCsgvCG6cIdDjn_13crystal_topos15python_bindings12QuantumStateE10into_boundBM_, symObjAddr: 0x6FC, symBinAddr: 0x2AD8, symSize: 0x1C }
  - { offset: 0x976C, size: 0x8, addend: 0x0, symName: __RNvMsn_NtCs7Qj1RmEtpUo_4pyo38instanceINtB5_2PyNtNtCsgvCG6cIdDjn_13crystal_topos15python_bindings12QuantumStateE13from_non_nullBM_, symObjAddr: 0x718, symBinAddr: 0x2AF4, symSize: 0x14 }
  - { offset: 0x9798, size: 0x8, addend: 0x0, symName: __RNvMsn_NtCs7Qj1RmEtpUo_4pyo38instanceINtB5_2PyNtNtCsgvCG6cIdDjn_13crystal_topos15python_bindings12QuantumStateE9clone_refBM_, symObjAddr: 0x72C, symBinAddr: 0x2B08, symSize: 0x40 }
  - { offset: 0x97FD, size: 0x8, addend: 0x0, symName: __RNvMsn_NtCs7Qj1RmEtpUo_4pyo38instanceINtB5_2PyNtNtNtB7_5types10boolobject6PyBoolE13from_non_nullCsgvCG6cIdDjn_13crystal_topos, symObjAddr: 0x76C, symBinAddr: 0x2B48, symSize: 0x14 }
  - { offset: 0x9829, size: 0x8, addend: 0x0, symName: __RNvMsn_NtCs7Qj1RmEtpUo_4pyo38instanceINtB5_2PyNtNtNtB7_5types10boolobject6PyBoolE9clone_refCsgvCG6cIdDjn_13crystal_topos, symObjAddr: 0x780, symBinAddr: 0x2B5C, symSize: 0x40 }
  - { offset: 0x9921, size: 0x8, addend: 0x0, symName: __RNvMNtNtCs7Qj1RmEtpUo_4pyo35types10typeobjectNtB2_6PyType22from_borrowed_type_ptrCsgvCG6cIdDjn_13crystal_topos, symObjAddr: 0x0, symBinAddr: 0x2DA8, symSize: 0x34 }
  - { offset: 0x9C58, size: 0x8, addend: 0x0, symName: __RNvMNtNtCs7Qj1RmEtpUo_4pyo35types10typeobjectNtB2_6PyType22from_borrowed_type_ptrCsgvCG6cIdDjn_13crystal_topos, symObjAddr: 0x0, symBinAddr: 0x2DA8, symSize: 0x34 }
  - { offset: 0x9CB1, size: 0x8, addend: 0x0, symName: __RINvMNtNtCs7dfkhshTrE4_4core3fmt2rtNtB3_8Argument11new_displaydECsgvCG6cIdDjn_13crystal_topos, symObjAddr: 0x0, symBinAddr: 0x2DDC, symSize: 0x2C }
  - { offset: 0x9F65, size: 0x8, addend: 0x0, symName: __RINvMNtNtCs7dfkhshTrE4_4core3fmt2rtNtB3_8Argument11new_displaydECsgvCG6cIdDjn_13crystal_topos, symObjAddr: 0x0, symBinAddr: 0x2DDC, symSize: 0x2C }
  - { offset: 0x9FAE, size: 0x8, addend: 0x0, symName: __RINvNtCskXqYSXpV4rx_3std5panic12catch_unwindNCINvNtNtCs7Qj1RmEtpUo_4pyo35impl_10trampoline10trampolineNCNvBL_11module_init0ONtNtCsgh2hkQkDkI2_8pyo3_ffi6object8PyObjectE0INtNtCs7dfkhshTrE4_4core6result6ResultB1X_NtNtBP_3err5PyErrEECsgvCG6cIdDjn_13crystal_topos, symObjAddr: 0x0, symBinAddr: 0x2E08, symSize: 0xC0 }
  - { offset: 0xA303, size: 0x8, addend: 0x0, symName: __RINvNtCskXqYSXpV4rx_3std5panic12catch_unwindNCINvNtNtCs7Qj1RmEtpUo_4pyo35impl_10trampoline10trampolineNCNvBL_11module_init0ONtNtCsgh2hkQkDkI2_8pyo3_ffi6object8PyObjectE0INtNtCs7dfkhshTrE4_4core6result6ResultB1X_NtNtBP_3err5PyErrEECsgvCG6cIdDjn_13crystal_topos, symObjAddr: 0x0, symBinAddr: 0x2E08, symSize: 0xC0 }
  - { offset: 0xA428, size: 0x8, addend: 0x0, symName: __RINvNtCskXqYSXpV4rx_3std5panic12catch_unwindNCINvNtNtCs7Qj1RmEtpUo_4pyo35impl_10trampoline10trampolineNCNvBL_23cfunction_with_keywords0ONtNtCsgh2hkQkDkI2_8pyo3_ffi6object8PyObjectE0INtNtCs7dfkhshTrE4_4core6result6ResultB29_NtNtBP_3err5PyErrEECsgvCG6cIdDjn_13crystal_topos, symObjAddr: 0xC0, symBinAddr: 0x2EC8, symSize: 0xE4 }
  - { offset: 0xA581, size: 0x8, addend: 0x0, symName: __RINvNtCskXqYSXpV4rx_3std5panic12catch_unwindNCINvNtNtCs7Qj1RmEtpUo_4pyo35impl_10trampoline10trampolineNCNvBL_6noargs0ONtNtCsgh2hkQkDkI2_8pyo3_ffi6object8PyObjectE0INtNtCs7dfkhshTrE4_4core6result6ResultB1R_NtNtBP_3err5PyErrEECsgvCG6cIdDjn_13crystal_topos, symObjAddr: 0x1A4, symBinAddr: 0x2FAC, symSize: 0xD0 }
  - { offset: 0xA6A6, size: 0x8, addend: 0x0, symName: __RINvNtCskXqYSXpV4rx_3std5panic12catch_unwindNCINvNtNtCs7Qj1RmEtpUo_4pyo35impl_10trampoline10trampolineNCNvBL_8reprfunc0ONtNtCsgh2hkQkDkI2_8pyo3_ffi6object8PyObjectE0INtNtCs7dfkhshTrE4_4core6result6ResultB1T_NtNtBP_3err5PyErrEECsgvCG6cIdDjn_13crystal_topos, symObjAddr: 0x274, symBinAddr: 0x307C, symSize: 0xD0 }
  - { offset: 0xA7CB, size: 0x8, addend: 0x0, symName: __RINvNtCskXqYSXpV4rx_3std5panic12catch_unwindNCINvNtNtCs7Qj1RmEtpUo_4pyo35impl_10trampoline21trampoline_unraisableNCNvBL_7dealloc0E0INtNtCs7dfkhshTrE4_4core6result6ResultuNtNtBP_3err5PyErrEECsgvCG6cIdDjn_13crystal_topos, symObjAddr: 0x344, symBinAddr: 0x314C, symSize: 0xD0 }
  - { offset: 0xB7C0, size: 0x8, addend: 0x0, symName: __RNvXNtNtNtCs7dfkhshTrE4_4core4iter6traits7collectINtNtNtB6_8adapters9enumerate9EnumerateINtNtBQ_4take4TakeNtNtNtCs7Qj1RmEtpUo_4pyo35types5tuple21BorrowedTupleIteratorEENtB2_12IntoIterator9into_iterCsgvCG6cIdDjn_13crystal_topos, symObjAddr: 0x0, symBinAddr: 0x3270, symSize: 0x30 }
  - { offset: 0xB86B, size: 0x8, addend: 0x0, symName: __RNvXNtNtNtCs7dfkhshTrE4_4core4iter6traits7collectINtNtNtB6_8adapters9enumerate9EnumerateINtNtBQ_4take4TakeNtNtNtCs7Qj1RmEtpUo_4pyo35types5tuple21BorrowedTupleIteratorEENtB2_12IntoIterator9into_iterCsgvCG6cIdDjn_13crystal_topos, symObjAddr: 0x0, symBinAddr: 0x3270, symSize: 0x30 }
  - { offset: 0xB8B5, size: 0x8, addend: 0x0, symName: __RNvXs_NtNtNtCs7dfkhshTrE4_4core4iter8adapters9enumerateINtB4_9EnumerateINtNtB6_4take4TakeNtNtNtCs7Qj1RmEtpUo_4pyo35types5tuple21BorrowedTupleIteratorEENtNtNtB8_6traits8iterator8Iterator4nextCsgvCG6cIdDjn_13crystal_topos, symObjAddr: 0x30, symBinAddr: 0x32A0, symSize: 0xE0 }
  - { offset: 0xBF86, size: 0x8, addend: 0x0, symName: __RNvMNtNtCs7Qj1RmEtpUo_4pyo35types10boolobjectNtB2_6PyBool9new_boundCsgvCG6cIdDjn_13crystal_topos, symObjAddr: 0x0, symBinAddr: 0x3380, symSize: 0x50 }
  - { offset: 0xC05B, size: 0x8, addend: 0x0, symName: __RNvXsb_NtNtCs7Qj1RmEtpUo_4pyo35types10boolobjectbINtNtB9_10conversion6IntoPyINtNtB9_8instance2PyNtNtB7_3any5PyAnyEE7into_pyCsgvCG6cIdDjn_13crystal_topos, symObjAddr: 0x50, symBinAddr: 0x33D0, symSize: 0x24 }
  - { offset: 0xC328, size: 0x8, addend: 0x0, symName: __RNvMNtNtCs7Qj1RmEtpUo_4pyo35types10boolobjectNtB2_6PyBool9new_boundCsgvCG6cIdDjn_13crystal_topos, symObjAddr: 0x0, symBinAddr: 0x3380, symSize: 0x50 }
  - { offset: 0xC381, size: 0x8, addend: 0x0, symName: __RINvXs0_NtNtNtCs7dfkhshTrE4_4core4iter8adapters3mapINtB6_3MapINtNtNtBc_3ops5range5RangejENCNCNvNtCsgvCG6cIdDjn_13crystal_topos7measure12sector_probss_00ENtNtNtBa_6traits8iterator8Iterator4folddNCINvXs26_NtB2v_5accumdNtB3f_3Sum3sumBN_E0EB1x_, symObjAddr: 0x0, symBinAddr: 0x33F4, symSize: 0x3C }
  - { offset: 0xC42C, size: 0x8, addend: 0x0, symName: __RINvXs0_NtNtNtCs7dfkhshTrE4_4core4iter8adapters3mapINtB6_3MapINtNtNtBc_3ops5range5RangejENCNCNvNtCsgvCG6cIdDjn_13crystal_topos7measure12sector_probss_00ENtNtNtBa_6traits8iterator8Iterator4folddNCINvXs26_NtB2v_5accumdNtB3f_3Sum3sumBN_E0EB1x_, symObjAddr: 0x0, symBinAddr: 0x33F4, symSize: 0x3C }
  - { offset: 0xC4A2, size: 0x8, addend: 0x0, symName: __RINvXs0_NtNtNtCs7dfkhshTrE4_4core4iter8adapters3mapINtB6_3MapINtNtNtBc_3ops5range5RangejENCNvNtCsgvCG6cIdDjn_13crystal_topos7measure12sector_probss_0ENtNtNtBa_6traits8iterator8Iterator4folduNCINvNvB2o_8for_each4calldNCINvMsj_NtCs2iVXuAemrgm_5alloc3vecINtB3B_3VecdE14extend_trustedBN_E0E0EB1v_, symObjAddr: 0x3C, symBinAddr: 0x3430, symSize: 0x4C }
  - { offset: 0xC53B, size: 0x8, addend: 0x0, symName: __RINvXs0_NtNtNtCs7dfkhshTrE4_4core4iter8adapters3mapINtB6_3MapINtNtNtBc_5slice4iter4IterNtNtCsgvCG6cIdDjn_13crystal_topos4base2CxENCNvMs3_B1p_NtB1p_4Vec_4norm0ENtNtNtBa_6traits8iterator8Iterator4folddNCINvXs26_NtB2B_5accumdNtB3l_3Sum3sumBN_E0EB1r_, symObjAddr: 0x88, symBinAddr: 0x347C, symSize: 0x30 }
  - { offset: 0xC5B0, size: 0x8, addend: 0x0, symName: __RINvXs0_NtNtNtCs7dfkhshTrE4_4core4iter8adapters3mapINtB6_3MapINtNtNtBc_5slice4iter4IterNtNtCsgvCG6cIdDjn_13crystal_topos4base2CxENCNvNtB1r_7measure10born_probs0ENtNtNtBa_6traits8iterator8Iterator4folduNCINvNvB2z_8for_each4calldNCINvMsj_NtCs2iVXuAemrgm_5alloc3vecINtB3M_3VecdE14extend_trustedBN_E0E0EB1r_, symObjAddr: 0xB8, symBinAddr: 0x34AC, symSize: 0x44 }
  - { offset: 0xC648, size: 0x8, addend: 0x0, symName: __RINvXs0_NtNtNtCs7dfkhshTrE4_4core4iter8adapters3mapINtB6_3MapINtNtNtBc_5slice4iter4IterNtNtCsgvCG6cIdDjn_13crystal_topos4base2CxENCNvNtB1r_7measure12sector_probs0ENtNtNtBa_6traits8iterator8Iterator4folduNCINvNvB2B_8for_each4calldNCINvMsj_NtCs2iVXuAemrgm_5alloc3vecINtB3O_3VecdE14extend_trustedBN_E0E0EB1r_, symObjAddr: 0xFC, symBinAddr: 0x34F0, symSize: 0x44 }
  - { offset: 0xC6E0, size: 0x8, addend: 0x0, symName: __RINvXs0_NtNtNtCs7dfkhshTrE4_4core4iter8adapters3mapINtB6_3MapINtNtNtCs2iVXuAemrgm_5alloc3vec9into_iter8IntoIterdENCNvXs0_NtNtNtCs7Qj1RmEtpUo_4pyo311conversions3std3vecINtB12_3VecdEINtNtB21_10conversion6IntoPyINtNtB21_8instance2PyNtNtNtB21_5types3any5PyAnyEE7into_py0ENtNtNtBa_6traits8iterator8Iterator8try_foldINtNtNtBc_3num7nonzero7NonZerojENCNvXs_NvB4h_10advance_byBN_NtB5B_13SpecAdvanceBy15spec_advance_by0INtNtBc_6option6OptionB4Y_EECsgvCG6cIdDjn_13crystal_topos, symObjAddr: 0x140, symBinAddr: 0x3534, symSize: 0x34 }
  - { offset: 0xC75E, size: 0x8, addend: 0x0, symName: __RNvXs0_NtNtNtCs7dfkhshTrE4_4core4iter8adapters3mapINtB5_3MapINtNtNtBb_3ops5range5RangejENCNvNtCsgvCG6cIdDjn_13crystal_topos7measure12sector_probss_0ENtNtNtB9_6traits8iterator8Iterator9size_hintB1u_, symObjAddr: 0x64C, symBinAddr: 0x3A40, symSize: 0x24 }
  - { offset: 0xC7A5, size: 0x8, addend: 0x0, symName: __RNvXs0_NtNtNtCs7dfkhshTrE4_4core4iter8adapters3mapINtB5_3MapINtNtNtBb_5slice4iter4IterNtNtCsgvCG6cIdDjn_13crystal_topos4base2CxENCNvNtB1q_7measure10born_probs0ENtNtNtB9_6traits8iterator8Iterator9size_hintB1q_, symObjAddr: 0x670, symBinAddr: 0x3A64, symSize: 0x24 }
  - { offset: 0xC7EC, size: 0x8, addend: 0x0, symName: __RNvXs0_NtNtNtCs7dfkhshTrE4_4core4iter8adapters3mapINtB5_3MapINtNtNtBb_5slice4iter4IterNtNtCsgvCG6cIdDjn_13crystal_topos4base2CxENCNvNtB1q_7measure12sector_probs0ENtNtNtB9_6traits8iterator8Iterator9size_hintB1q_, symObjAddr: 0x694, symBinAddr: 0x3A88, symSize: 0x24 }
  - { offset: 0xC833, size: 0x8, addend: 0x0, symName: __RNvXs0_NtNtNtCs7dfkhshTrE4_4core4iter8adapters3mapINtB5_3MapINtNtNtCs2iVXuAemrgm_5alloc3vec9into_iter8IntoIterdENCNvXs0_NtNtNtCs7Qj1RmEtpUo_4pyo311conversions3std3vecINtB11_3VecdEINtNtB20_10conversion6IntoPyINtNtB20_8instance2PyNtNtNtB20_5types3any5PyAnyEE7into_py0ENtNtNtB9_6traits8iterator8Iterator4nextCsgvCG6cIdDjn_13crystal_topos, symObjAddr: 0x6B8, symBinAddr: 0x3AAC, symSize: 0x74 }
  - { offset: 0xC8CF, size: 0x8, addend: 0x0, symName: __RNvXs0_NtNtNtCs7dfkhshTrE4_4core4iter8adapters3mapINtB5_3MapINtNtNtCs2iVXuAemrgm_5alloc3vec9into_iter8IntoIterdENCNvXs0_NtNtNtCs7Qj1RmEtpUo_4pyo311conversions3std3vecINtB11_3VecdEINtNtB20_10conversion6IntoPyINtNtB20_8instance2PyNtNtNtB20_5types3any5PyAnyEE7into_py0ENtNtNtB9_6traits8iterator8Iterator9size_hintCsgvCG6cIdDjn_13crystal_topos, symObjAddr: 0x72C, symBinAddr: 0x3B20, symSize: 0x24 }
  - { offset: 0xC9CA, size: 0x8, addend: 0x0, symName: __RNCINvNtNtNtCs7dfkhshTrE4_4core4iter8adapters3map8map_foldRNtNtCsgvCG6cIdDjn_13crystal_topos4base2CxddNCNvMs3_BX_NtBX_4Vec_4norm0NCINvXs26_NtNtB8_6traits5accumdNtB2d_3Sum3sumINtB4_3MapINtNtNtBa_5slice4iter4IterBV_EB1C_EE0E0BZ_, symObjAddr: 0x370, symBinAddr: 0x3764, symSize: 0x90 }
  - { offset: 0xCA51, size: 0x8, addend: 0x0, symName: __RNCINvNtNtNtCs7dfkhshTrE4_4core4iter8adapters3map8map_foldRNtNtCsgvCG6cIdDjn_13crystal_topos4base2CxduNCNvNtBZ_7measure10born_probs0NCINvNvNtNtNtB8_6traits8iterator8Iterator8for_each4calldNCINvMsj_NtCs2iVXuAemrgm_5alloc3vecINtB39_3VecdE14extend_trustedINtB4_3MapINtNtNtBa_5slice4iter4IterBV_EB1C_EE0E0E0BZ_, symObjAddr: 0x400, symBinAddr: 0x37F4, symSize: 0x7C }
  - { offset: 0xCAD6, size: 0x8, addend: 0x0, symName: __RNCINvNtNtNtCs7dfkhshTrE4_4core4iter8adapters3map8map_foldRNtNtCsgvCG6cIdDjn_13crystal_topos4base2CxduNCNvNtBZ_7measure12sector_probs0NCINvNvNtNtNtB8_6traits8iterator8Iterator8for_each4calldNCINvMsj_NtCs2iVXuAemrgm_5alloc3vecINtB3b_3VecdE14extend_trustedINtB4_3MapINtNtNtBa_5slice4iter4IterBV_EB1C_EE0E0E0BZ_, symObjAddr: 0x47C, symBinAddr: 0x3870, symSize: 0x7C }
  - { offset: 0xCB5B, size: 0x8, addend: 0x0, symName: __RNCINvNtNtNtCs7dfkhshTrE4_4core4iter8adapters3map8map_foldjddNCNCNvNtCsgvCG6cIdDjn_13crystal_topos7measure12sector_probss_00NCINvXs26_NtNtB8_6traits5accumdNtB28_3Sum3sumINtB4_3MapINtNtNtBa_3ops5range5RangejEBX_EE0E0B15_, symObjAddr: 0x4F8, symBinAddr: 0x38EC, symSize: 0x8C }
  - { offset: 0xCBE4, size: 0x8, addend: 0x0, symName: __RNCINvNtNtNtCs7dfkhshTrE4_4core4iter8adapters3map8map_foldjduNCNvNtCsgvCG6cIdDjn_13crystal_topos7measure12sector_probss_0NCINvNvNtNtNtB8_6traits8iterator8Iterator8for_each4calldNCINvMsj_NtCs2iVXuAemrgm_5alloc3vecINtB2Y_3VecdE14extend_trustedINtB4_3MapINtNtNtBa_3ops5range5RangejEBX_EE0E0E0B13_, symObjAddr: 0x584, symBinAddr: 0x3978, symSize: 0x78 }
  - { offset: 0xCD17, size: 0x8, addend: 0x0, symName: __RNCINvNtNtNtCs7dfkhshTrE4_4core4iter8adapters3map12map_try_folddINtNtCs7Qj1RmEtpUo_4pyo38instance2PyNtNtNtB15_5types3any5PyAnyEINtNtNtBa_3num7nonzero7NonZerojEINtNtBa_6option6OptionB21_ENCNvXs0_NtNtNtB15_11conversions3std3vecINtNtCs2iVXuAemrgm_5alloc3vec3VecdEINtNtB15_10conversion6IntoPyB10_E7into_py0NCNvXs_NvNtNtNtB8_6traits8iterator8Iterator10advance_byINtB4_3MapINtNtB3E_9into_iter8IntoIterdEB2Y_ENtB4X_13SpecAdvanceBy15spec_advance_by0E0CsgvCG6cIdDjn_13crystal_topos, symObjAddr: 0x2DC, symBinAddr: 0x36D0, symSize: 0x94 }
  - { offset: 0xCDAF, size: 0x8, addend: 0x0, symName: __RNvXs2_NtNtNtCs7dfkhshTrE4_4core4iter8adapters3mapINtB5_3MapINtNtNtCs2iVXuAemrgm_5alloc3vec9into_iter8IntoIterdENCNvXs0_NtNtNtCs7Qj1RmEtpUo_4pyo311conversions3std3vecINtB11_3VecdEINtNtB20_10conversion6IntoPyINtNtB20_8instance2PyNtNtNtB20_5types3any5PyAnyEE7into_py0ENtNtNtB9_6traits10exact_size17ExactSizeIterator3lenCsgvCG6cIdDjn_13crystal_topos, symObjAddr: 0x750, symBinAddr: 0x3B44, symSize: 0x24 }
  - { offset: 0xCDF6, size: 0x8, addend: 0x0, symName: __RNvXs2_NtNtNtCs7dfkhshTrE4_4core4iter8adapters3mapINtB5_3MapINtNtNtCs2iVXuAemrgm_5alloc3vec9into_iter8IntoIterdENCNvXs0_NtNtNtCs7Qj1RmEtpUo_4pyo311conversions3std3vecINtB11_3VecdEINtNtB20_10conversion6IntoPyINtNtB20_8instance2PyNtNtNtB20_5types3any5PyAnyEE7into_py0ENtNtNtB9_6traits10exact_size17ExactSizeIterator8is_emptyCsgvCG6cIdDjn_13crystal_topos, symObjAddr: 0x774, symBinAddr: 0x3B68, symSize: 0x24 }
  - { offset: 0xD056, size: 0x8, addend: 0x0, symName: __RINvYINtNtNtNtCs7dfkhshTrE4_4core4iter8adapters3map3MapINtNtNtBc_3ops5range5RangejENCNCNvNtCsgvCG6cIdDjn_13crystal_topos7measure12sector_probss_00ENtNtNtBa_6traits8iterator8Iterator3sumdEB1r_, symObjAddr: 0x174, symBinAddr: 0x3568, symSize: 0x14 }
  - { offset: 0xD097, size: 0x8, addend: 0x0, symName: __RINvYINtNtNtNtCs7dfkhshTrE4_4core4iter8adapters3map3MapINtNtNtBc_3ops5range5RangejENCNvNtCsgvCG6cIdDjn_13crystal_topos7measure12sector_probss_0ENtNtNtBa_6traits8iterator8Iterator7collectINtNtCs2iVXuAemrgm_5alloc3vec3VecdEEB1p_, symObjAddr: 0x188, symBinAddr: 0x357C, symSize: 0x14 }
  - { offset: 0xD0D8, size: 0x8, addend: 0x0, symName: __RINvYINtNtNtNtCs7dfkhshTrE4_4core4iter8adapters3map3MapINtNtNtBc_3ops5range5RangejENCNvNtCsgvCG6cIdDjn_13crystal_topos7measure12sector_probss_0ENtNtNtBa_6traits8iterator8Iterator8for_eachNCINvMsj_NtCs2iVXuAemrgm_5alloc3vecINtB38_3VecdE14extend_trustedB3_E0EB1p_, symObjAddr: 0x19C, symBinAddr: 0x3590, symSize: 0x34 }
  - { offset: 0xD144, size: 0x8, addend: 0x0, symName: __RINvYINtNtNtNtCs7dfkhshTrE4_4core4iter8adapters3map3MapINtNtNtBc_5slice4iter4IterNtNtCsgvCG6cIdDjn_13crystal_topos4base2CxENCNvMs3_B1j_NtB1j_4Vec_4norm0ENtNtNtBa_6traits8iterator8Iterator3sumdEB1l_, symObjAddr: 0x1D0, symBinAddr: 0x35C4, symSize: 0x2C }
  - { offset: 0xD184, size: 0x8, addend: 0x0, symName: __RINvYINtNtNtNtCs7dfkhshTrE4_4core4iter8adapters3map3MapINtNtNtBc_5slice4iter4IterNtNtCsgvCG6cIdDjn_13crystal_topos4base2CxENCNvNtB1l_7measure10born_probs0ENtNtNtBa_6traits8iterator8Iterator7collectINtNtCs2iVXuAemrgm_5alloc3vec3VecdEEB1l_, symObjAddr: 0x1FC, symBinAddr: 0x35F0, symSize: 0x2C }
  - { offset: 0xD1C4, size: 0x8, addend: 0x0, symName: __RINvYINtNtNtNtCs7dfkhshTrE4_4core4iter8adapters3map3MapINtNtNtBc_5slice4iter4IterNtNtCsgvCG6cIdDjn_13crystal_topos4base2CxENCNvNtB1l_7measure10born_probs0ENtNtNtBa_6traits8iterator8Iterator8for_eachNCINvMsj_NtCs2iVXuAemrgm_5alloc3vecINtB3j_3VecdE14extend_trustedB3_E0EB1l_, symObjAddr: 0x228, symBinAddr: 0x361C, symSize: 0x44 }
  - { offset: 0xD22F, size: 0x8, addend: 0x0, symName: __RINvYINtNtNtNtCs7dfkhshTrE4_4core4iter8adapters3map3MapINtNtNtBc_5slice4iter4IterNtNtCsgvCG6cIdDjn_13crystal_topos4base2CxENCNvNtB1l_7measure12sector_probs0ENtNtNtBa_6traits8iterator8Iterator7collectINtNtCs2iVXuAemrgm_5alloc3vec3VecdEEB1l_, symObjAddr: 0x26C, symBinAddr: 0x3660, symSize: 0x2C }
  - { offset: 0xD26F, size: 0x8, addend: 0x0, symName: __RINvYINtNtNtNtCs7dfkhshTrE4_4core4iter8adapters3map3MapINtNtNtBc_5slice4iter4IterNtNtCsgvCG6cIdDjn_13crystal_topos4base2CxENCNvNtB1l_7measure12sector_probs0ENtNtNtBa_6traits8iterator8Iterator8for_eachNCINvMsj_NtCs2iVXuAemrgm_5alloc3vecINtB3l_3VecdE14extend_trustedB3_E0EB1l_, symObjAddr: 0x298, symBinAddr: 0x368C, symSize: 0x44 }
  - { offset: 0xD2E4, size: 0x8, addend: 0x0, symName: __RNvXs_NvNtNtNtNtCs7dfkhshTrE4_4core4iter6traits8iterator8Iterator10advance_byINtNtNtBc_8adapters3map3MapINtNtNtCs2iVXuAemrgm_5alloc3vec9into_iter8IntoIterdENCNvXs0_NtNtNtCs7Qj1RmEtpUo_4pyo311conversions3std3vecINtB1J_3VecdEINtNtB2I_10conversion6IntoPyINtNtB2I_8instance2PyNtNtNtB2I_5types3any5PyAnyEE7into_py0ENtB4_13SpecAdvanceBy15spec_advance_byCsgvCG6cIdDjn_13crystal_topos, symObjAddr: 0x798, symBinAddr: 0x3B8C, symSize: 0x8C }
  - { offset: 0xD3A1, size: 0x8, addend: 0x0, symName: __RNvYINtNtNtNtCs7dfkhshTrE4_4core4iter8adapters3map3MapINtNtNtCs2iVXuAemrgm_5alloc3vec9into_iter8IntoIterdENCNvXs0_NtNtNtCs7Qj1RmEtpUo_4pyo311conversions3std3vecINtBV_3VecdEINtNtB1U_10conversion6IntoPyINtNtB1U_8instance2PyNtNtNtB1U_5types3any5PyAnyEE7into_py0ENtNtNtB9_6traits8iterator8Iterator10advance_byCsgvCG6cIdDjn_13crystal_topos, symObjAddr: 0x824, symBinAddr: 0x3C18, symSize: 0x28 }
  - { offset: 0xD3E7, size: 0x8, addend: 0x0, symName: __RNvYINtNtNtNtCs7dfkhshTrE4_4core4iter8adapters3map3MapINtNtNtCs2iVXuAemrgm_5alloc3vec9into_iter8IntoIterdENCNvXs0_NtNtNtCs7Qj1RmEtpUo_4pyo311conversions3std3vecINtBV_3VecdEINtNtB1U_10conversion6IntoPyINtNtB1U_8instance2PyNtNtNtB1U_5types3any5PyAnyEE7into_py0ENtNtNtB9_6traits8iterator8Iterator3nthCsgvCG6cIdDjn_13crystal_topos, symObjAddr: 0x84C, symBinAddr: 0x3C40, symSize: 0x68 }
  - { offset: 0xD49D, size: 0x8, addend: 0x0, symName: __RNvXNtNtNtCs7dfkhshTrE4_4core4iter6traits7collectINtNtNtB6_8adapters3map3MapINtNtNtB8_3ops5range5RangejENCNvNtCsgvCG6cIdDjn_13crystal_topos7measure12sector_probss_0ENtB2_12IntoIterator9into_iterB1K_, symObjAddr: 0x5FC, symBinAddr: 0x39F0, symSize: 0x18 }
  - { offset: 0xD4D4, size: 0x8, addend: 0x0, symName: __RNvXNtNtNtCs7dfkhshTrE4_4core4iter6traits7collectINtNtNtB6_8adapters3map3MapINtNtNtB8_5slice4iter4IterNtNtCsgvCG6cIdDjn_13crystal_topos4base2CxENCNvNtB1G_7measure10born_probs0ENtB2_12IntoIterator9into_iterB1G_, symObjAddr: 0x614, symBinAddr: 0x3A08, symSize: 0x1C }
  - { offset: 0xD50B, size: 0x8, addend: 0x0, symName: __RNvXNtNtNtCs7dfkhshTrE4_4core4iter6traits7collectINtNtNtB6_8adapters3map3MapINtNtNtB8_5slice4iter4IterNtNtCsgvCG6cIdDjn_13crystal_topos4base2CxENCNvNtB1G_7measure12sector_probs0ENtB2_12IntoIterator9into_iterB1G_, symObjAddr: 0x630, symBinAddr: 0x3A24, symSize: 0x1C }
  - { offset: 0xE1D2, size: 0x8, addend: 0x0, symName: __RNCNvMs0_NtCs7Qj1RmEtpUo_4pyo36pycellINtB7_5PyRefNtNtCsgvCG6cIdDjn_13crystal_topos15python_bindings12QuantumStateE10try_borrow0BP_, symObjAddr: 0x0, symBinAddr: 0x3CA8, symSize: 0x24 }
  - { offset: 0xE278, size: 0x8, addend: 0x0, symName: __RNCNvMs0_NtCs7Qj1RmEtpUo_4pyo36pycellINtB7_5PyRefNtNtCsgvCG6cIdDjn_13crystal_topos15python_bindings12QuantumStateE10try_borrow0BP_, symObjAddr: 0x0, symBinAddr: 0x3CA8, symSize: 0x24 }
  - { offset: 0xE315, size: 0x8, addend: 0x0, symName: __RNvXs2_NtCs7Qj1RmEtpUo_4pyo36pycellINtB5_5PyRefNtNtCsgvCG6cIdDjn_13crystal_topos15python_bindings12QuantumStateENtNtNtCs7dfkhshTrE4_4core3ops5deref5Deref5derefBN_, symObjAddr: 0xC0, symBinAddr: 0x3D68, symSize: 0x74 }
  - { offset: 0xE5E8, size: 0x8, addend: 0x0, symName: __RNvXNtCs7Qj1RmEtpUo_4pyo310conversionINtNtB4_6pycell5PyRefNtNtCsgvCG6cIdDjn_13crystal_topos15python_bindings12QuantumStateENtB2_17FromPyObjectBound20from_py_object_boundBY_, symObjAddr: 0x70, symBinAddr: 0x3D18, symSize: 0x34 }
  - { offset: 0xE625, size: 0x8, addend: 0x0, symName: __RNvXs3_NtCs7Qj1RmEtpUo_4pyo310conversionINtNtB7_6pycell5PyRefNtNtCsgvCG6cIdDjn_13crystal_topos15python_bindings12QuantumStateENtB5_12FromPyObject13extract_boundB11_, symObjAddr: 0x134, symBinAddr: 0x3DDC, symSize: 0xA4 }
  - { offset: 0xED03, size: 0x8, addend: 0x0, symName: __RNvXs1_NtCs7dfkhshTrE4_4core7convertNtNtCs7Qj1RmEtpUo_4pyo36pycell13PyBorrowErrorINtB5_4IntoNtNtBC_3err5PyErrE4intoCsgvCG6cIdDjn_13crystal_topos, symObjAddr: 0xA4, symBinAddr: 0x3D4C, symSize: 0x1C }
  - { offset: 0xEF04, size: 0x8, addend: 0x0, symName: __RNvMs0_NtCs7Qj1RmEtpUo_4pyo36pycellINtB5_5PyRefNtNtCsgvCG6cIdDjn_13crystal_topos15python_bindings12QuantumStateE10try_borrowBN_, symObjAddr: 0x24, symBinAddr: 0x3CCC, symSize: 0x4C }
  - { offset: 0xF01C, size: 0x8, addend: 0x0, symName: __RNvMNtCs7Qj1RmEtpUo_4pyo33gilNtB2_8GILGuard6pythonCsgvCG6cIdDjn_13crystal_topos, symObjAddr: 0x0, symBinAddr: 0x3E80, symSize: 0x20 }
  - { offset: 0xF0CC, size: 0x8, addend: 0x0, symName: __RNvMNtCs7Qj1RmEtpUo_4pyo33gilNtB2_8GILGuard6pythonCsgvCG6cIdDjn_13crystal_topos, symObjAddr: 0x0, symBinAddr: 0x3E80, symSize: 0x20 }
  - { offset: 0xF10C, size: 0x8, addend: 0x0, symName: __RINvNtCs7dfkhshTrE4_4core3ptr5writeINtNtNtCs7Qj1RmEtpUo_4pyo36pycell5impl_21PyClassObjectContentsNtNtCsgvCG6cIdDjn_13crystal_topos15python_bindings12QuantumStateEEB1B_, symObjAddr: 0x0, symBinAddr: 0x3EA0, symSize: 0x24 }
  - { offset: 0xF123, size: 0x8, addend: 0x0, symName: __RINvNtCs7dfkhshTrE4_4core3ptr5writeINtNtNtCs7Qj1RmEtpUo_4pyo36pycell5impl_21PyClassObjectContentsNtNtCsgvCG6cIdDjn_13crystal_topos15python_bindings12QuantumStateEEB1B_, symObjAddr: 0x0, symBinAddr: 0x3EA0, symSize: 0x24 }
  - { offset: 0xF4E8, size: 0x8, addend: 0x0, symName: __RNvXs2_NtCs2iVXuAemrgm_5alloc6borrowINtB5_3CowNtNtNtCs7dfkhshTrE4_4core3ffi5c_str4CStrENtNtNtBO_3ops5deref5Deref5derefCsgvCG6cIdDjn_13crystal_topos, symObjAddr: 0x0, symBinAddr: 0x3EC4, symSize: 0x70 }
  - { offset: 0xF504, size: 0x8, addend: 0x0, symName: __RNvXs2_NtCs2iVXuAemrgm_5alloc6borrowINtB5_3CowNtNtNtCs7dfkhshTrE4_4core3ffi5c_str4CStrENtNtNtBO_3ops5deref5Deref5derefCsgvCG6cIdDjn_13crystal_topos, symObjAddr: 0x0, symBinAddr: 0x3EC4, symSize: 0x70 }
  - { offset: 0xF6B4, size: 0x8, addend: 0x0, symName: __RNvMNtCsgvCG6cIdDjn_13crystal_topos4baseNtB2_2Cx3exp, symObjAddr: 0x0, symBinAddr: 0x3F34, symSize: 0x64 }
  - { offset: 0xF8E7, size: 0x8, addend: 0x0, symName: __RNvNtCsgvCG6cIdDjn_13crystal_topos4base11max_entropy, symObjAddr: 0x8A8, symBinAddr: 0x47DC, symSize: 0x18 }
  - { offset: 0xF904, size: 0x8, addend: 0x0, symName: __RNvNtCsgvCG6cIdDjn_13crystal_topos4base5kappa, symObjAddr: 0x8C0, symBinAddr: 0x47F4, symSize: 0x38 }
  - { offset: 0xF921, size: 0x8, addend: 0x0, symName: __RNvNtCsgvCG6cIdDjn_13crystal_topos4base8energies, symObjAddr: 0x8F8, symBinAddr: 0x482C, symSize: 0x58 }
  - { offset: 0xF943, size: 0x8, addend: 0x0, symName: __RNvXs0_NtCsgvCG6cIdDjn_13crystal_topos4baseNtB5_2CxNtNtNtCs7dfkhshTrE4_4core3ops5arith3Sub3sub, symObjAddr: 0x950, symBinAddr: 0x4884, symSize: 0x24 }
  - { offset: 0xF983, size: 0x8, addend: 0x0, symName: __RNvXs1_NtCsgvCG6cIdDjn_13crystal_topos4baseNtB5_2CxNtNtNtCs7dfkhshTrE4_4core3ops5arith3Mul3mul, symObjAddr: 0x974, symBinAddr: 0x48A8, symSize: 0x58 }
  - { offset: 0xF9C3, size: 0x8, addend: 0x0, symName: __RNvXs2_NtCsgvCG6cIdDjn_13crystal_topos4baseNtB5_2CxNtNtNtCs7dfkhshTrE4_4core3ops5arith3Neg3neg, symObjAddr: 0x9CC, symBinAddr: 0x4900, symSize: 0x1C }
  - { offset: 0xF9F5, size: 0x8, addend: 0x0, symName: __RNvXs6_NtCsgvCG6cIdDjn_13crystal_topos4baseNtB5_2CxNtNtCs7dfkhshTrE4_4core5clone5Clone5cloneB7_, symObjAddr: 0x9E8, symBinAddr: 0x491C, symSize: 0x1C }
  - { offset: 0xFA27, size: 0x8, addend: 0x0, symName: __RNvXs_NtCsgvCG6cIdDjn_13crystal_topos4baseNtB4_2CxNtNtNtCs7dfkhshTrE4_4core3ops5arith3Add3add, symObjAddr: 0xA04, symBinAddr: 0x4938, symSize: 0x24 }
  - { offset: 0xFA67, size: 0x8, addend: 0x0, symName: __RNvXsb_NtCsgvCG6cIdDjn_13crystal_topos4baseNtB5_4Vec_NtNtCs7dfkhshTrE4_4core5clone5Clone5cloneB7_, symObjAddr: 0xA28, symBinAddr: 0x495C, symSize: 0x40 }
  - { offset: 0xFA9D, size: 0x8, addend: 0x0, symName: __RNvMNtCsgvCG6cIdDjn_13crystal_topos4baseNtB2_2Cx3exp, symObjAddr: 0x0, symBinAddr: 0x3F34, symSize: 0x64 }
  - { offset: 0xFADC, size: 0x8, addend: 0x0, symName: __RNvMNtCsgvCG6cIdDjn_13crystal_topos4baseNtB2_2Cx3new, symObjAddr: 0x64, symBinAddr: 0x3F98, symSize: 0x14 }
  - { offset: 0xFB0C, size: 0x8, addend: 0x0, symName: __RNvMNtCsgvCG6cIdDjn_13crystal_topos4baseNtB2_2Cx4conj, symObjAddr: 0x78, symBinAddr: 0x3FAC, symSize: 0x18 }
  - { offset: 0xFB2E, size: 0x8, addend: 0x0, symName: __RNvMNtCsgvCG6cIdDjn_13crystal_topos4baseNtB2_2Cx5norm2, symObjAddr: 0x90, symBinAddr: 0x3FC4, symSize: 0x20 }
  - { offset: 0xFB50, size: 0x8, addend: 0x0, symName: __RNvMNtCsgvCG6cIdDjn_13crystal_topos4baseNtB2_2Cx5scale, symObjAddr: 0xB0, symBinAddr: 0x3FE4, symSize: 0x20 }
  - { offset: 0xFB80, size: 0x8, addend: 0x0, symName: __RNvMNtCsgvCG6cIdDjn_13crystal_topos4baseNtB2_2Cx9from_real, symObjAddr: 0xD0, symBinAddr: 0x4004, symSize: 0x14 }
  - { offset: 0xFE21, size: 0x8, addend: 0x0, symName: __RNvMs3_NtCsgvCG6cIdDjn_13crystal_topos4baseNtB5_4Vec_10normalized, symObjAddr: 0xE4, symBinAddr: 0x4018, symSize: 0x78 }
  - { offset: 0xFE58, size: 0x8, addend: 0x0, symName: __RNvMs3_NtCsgvCG6cIdDjn_13crystal_topos4baseNtB5_4Vec_3dim, symObjAddr: 0x15C, symBinAddr: 0x4090, symSize: 0x24 }
  - { offset: 0xFE7A, size: 0x8, addend: 0x0, symName: __RNvMs3_NtCsgvCG6cIdDjn_13crystal_topos4baseNtB5_4Vec_3new, symObjAddr: 0x180, symBinAddr: 0x40B4, symSize: 0x44 }
  - { offset: 0xFE9C, size: 0x8, addend: 0x0, symName: __RNvMs3_NtCsgvCG6cIdDjn_13crystal_topos4baseNtB5_4Vec_4norm, symObjAddr: 0x1C4, symBinAddr: 0x40F8, symSize: 0x34 }
  - { offset: 0xFEBE, size: 0x8, addend: 0x0, symName: __RNvMs3_NtCsgvCG6cIdDjn_13crystal_topos4baseNtB5_4Vec_4prob, symObjAddr: 0x1F8, symBinAddr: 0x412C, symSize: 0x3C }
  - { offset: 0xFEEE, size: 0x8, addend: 0x0, symName: __RNvMs3_NtCsgvCG6cIdDjn_13crystal_topos4baseNtB5_4Vec_5basis, symObjAddr: 0x234, symBinAddr: 0x4168, symSize: 0x9C }
  - { offset: 0xFF33, size: 0x8, addend: 0x0, symName: __RNvMs3_NtCsgvCG6cIdDjn_13crystal_topos4baseNtB5_4Vec_5equal, symObjAddr: 0x2D0, symBinAddr: 0x4204, symSize: 0x60 }
  - { offset: 0xFF72, size: 0x8, addend: 0x0, symName: __RNvMs3_NtCsgvCG6cIdDjn_13crystal_topos4baseNtB5_4Vec_7entropy, symObjAddr: 0x330, symBinAddr: 0x4264, symSize: 0xBC }
  - { offset: 0xFFF5, size: 0x8, addend: 0x0, symName: __RNvMs3_NtCsgvCG6cIdDjn_13crystal_topos4baseNtB5_4Vec_9normalize, symObjAddr: 0x3EC, symBinAddr: 0x4320, symSize: 0xBC }
  - { offset: 0x10073, size: 0x8, addend: 0x0, symName: __RNvMs4_NtCsgvCG6cIdDjn_13crystal_topos4baseNtB5_3Mat3get, symObjAddr: 0x4A8, symBinAddr: 0x43DC, symSize: 0x98 }
  - { offset: 0x100B1, size: 0x8, addend: 0x0, symName: __RNvMs4_NtCsgvCG6cIdDjn_13crystal_topos4baseNtB5_3Mat3new, symObjAddr: 0x540, symBinAddr: 0x4474, symSize: 0x78 }
  - { offset: 0x100E0, size: 0x8, addend: 0x0, symName: __RNvMs4_NtCsgvCG6cIdDjn_13crystal_topos4baseNtB5_3Mat3set, symObjAddr: 0x5B8, symBinAddr: 0x44EC, symSize: 0xB0 }
  - { offset: 0x1012C, size: 0x8, addend: 0x0, symName: __RNvMs4_NtCsgvCG6cIdDjn_13crystal_topos4baseNtB5_3Mat5apply, symObjAddr: 0x668, symBinAddr: 0x459C, symSize: 0x240 }
  - { offset: 0x1025A, size: 0x8, addend: 0x0, symName: __RINvNtNtCs7Qj1RmEtpUo_4pyo35impl_12deprecations12inspect_typeRINtNtB6_8instance5BoundNtNtNtB6_5types6module8PyModuleEECsgvCG6cIdDjn_13crystal_topos, symObjAddr: 0x0, symBinAddr: 0x499C, symSize: 0x18 }
  - { offset: 0x102FB, size: 0x8, addend: 0x0, symName: __RINvNtNtCs7Qj1RmEtpUo_4pyo35impl_12deprecations12inspect_typeRINtNtB6_8instance5BoundNtNtNtB6_5types6module8PyModuleEECsgvCG6cIdDjn_13crystal_topos, symObjAddr: 0x0, symBinAddr: 0x499C, symSize: 0x18 }
  - { offset: 0x1033A, size: 0x8, addend: 0x0, symName: __RINvNtNtCs7Qj1RmEtpUo_4pyo35impl_12deprecations12inspect_typeRNtNtCsgvCG6cIdDjn_13crystal_topos15python_bindings12QuantumStateEB12_, symObjAddr: 0x18, symBinAddr: 0x49B4, symSize: 0x18 }
  - { offset: 0x10379, size: 0x8, addend: 0x0, symName: __RINvNtNtCs7Qj1RmEtpUo_4pyo35impl_12deprecations12inspect_typedECsgvCG6cIdDjn_13crystal_topos, symObjAddr: 0x30, symBinAddr: 0x49CC, symSize: 0x14 }
  - { offset: 0x103B8, size: 0x8, addend: 0x0, symName: __RINvNtNtCs7Qj1RmEtpUo_4pyo35impl_12deprecations12inspect_typejECsgvCG6cIdDjn_13crystal_topos, symObjAddr: 0x44, symBinAddr: 0x49E0, symSize: 0x14 }
  - { offset: 0x1063A, size: 0x8, addend: 0x0, symName: __RNvXs3_NtNtCs7Qj1RmEtpUo_4pyo35impl_12deprecationsINtB5_7GilRefsRINtNtB9_8instance5BoundNtNtNtB9_5types6module8PyModuleEENtNtNtCs7dfkhshTrE4_4core3ops5deref5Deref5derefCsgvCG6cIdDjn_13crystal_topos, symObjAddr: 0xB8, symBinAddr: 0x4A54, symSize: 0x14 }
  - { offset: 0x1066F, size: 0x8, addend: 0x0, symName: __RNvXs3_NtNtCs7Qj1RmEtpUo_4pyo35impl_12deprecationsINtB5_7GilRefsRNtNtCsgvCG6cIdDjn_13crystal_topos15python_bindings12QuantumStateENtNtNtCs7dfkhshTrE4_4core3ops5deref5Deref5derefB15_, symObjAddr: 0xCC, symBinAddr: 0x4A68, symSize: 0x14 }
  - { offset: 0x106A4, size: 0x8, addend: 0x0, symName: __RNvXs3_NtNtCs7Qj1RmEtpUo_4pyo35impl_12deprecationsINtB5_7GilRefsdENtNtNtCs7dfkhshTrE4_4core3ops5deref5Deref5derefCsgvCG6cIdDjn_13crystal_topos, symObjAddr: 0xE0, symBinAddr: 0x4A7C, symSize: 0x14 }
  - { offset: 0x106D9, size: 0x8, addend: 0x0, symName: __RNvXs3_NtNtCs7Qj1RmEtpUo_4pyo35impl_12deprecationsINtB5_7GilRefsjENtNtNtCs7dfkhshTrE4_4core3ops5deref5Deref5derefCsgvCG6cIdDjn_13crystal_topos, symObjAddr: 0xF4, symBinAddr: 0x4A90, symSize: 0x14 }
  - { offset: 0x10714, size: 0x8, addend: 0x0, symName: __RNvXs4_NtNtCs7Qj1RmEtpUo_4pyo35impl_12deprecationsINtB5_13OptionGilRefsRINtNtB9_8instance5BoundNtNtNtB9_5types6module8PyModuleEENtNtNtCs7dfkhshTrE4_4core3ops5deref5Deref5derefCsgvCG6cIdDjn_13crystal_topos, symObjAddr: 0x108, symBinAddr: 0x4AA4, symSize: 0x14 }
  - { offset: 0x10749, size: 0x8, addend: 0x0, symName: __RNvXs4_NtNtCs7Qj1RmEtpUo_4pyo35impl_12deprecationsINtB5_13OptionGilRefsRNtNtCsgvCG6cIdDjn_13crystal_topos15python_bindings12QuantumStateENtNtNtCs7dfkhshTrE4_4core3ops5deref5Deref5derefB1c_, symObjAddr: 0x11C, symBinAddr: 0x4AB8, symSize: 0x14 }
  - { offset: 0x1077E, size: 0x8, addend: 0x0, symName: __RNvXs4_NtNtCs7Qj1RmEtpUo_4pyo35impl_12deprecationsINtB5_13OptionGilRefsdENtNtNtCs7dfkhshTrE4_4core3ops5deref5Deref5derefCsgvCG6cIdDjn_13crystal_topos, symObjAddr: 0x130, symBinAddr: 0x4ACC, symSize: 0x14 }
  - { offset: 0x107B3, size: 0x8, addend: 0x0, symName: __RNvXs4_NtNtCs7Qj1RmEtpUo_4pyo35impl_12deprecationsINtB5_13OptionGilRefsjENtNtNtCs7dfkhshTrE4_4core3ops5deref5Deref5derefCsgvCG6cIdDjn_13crystal_topos, symObjAddr: 0x144, symBinAddr: 0x4AE0, symSize: 0x14 }
  - { offset: 0x10B53, size: 0x8, addend: 0x0, symName: __RNvMNtNtCs7Qj1RmEtpUo_4pyo35impl_12deprecationsINtB2_7GilRefsRINtNtB6_8instance5BoundNtNtNtB6_5types6module8PyModuleEE3newCsgvCG6cIdDjn_13crystal_topos, symObjAddr: 0x58, symBinAddr: 0x49F4, symSize: 0x4 }
  - { offset: 0x10CB1, size: 0x8, addend: 0x0, symName: __RNvMNtNtCs7Qj1RmEtpUo_4pyo35impl_12deprecationsINtB2_7GilRefsRNtNtCsgvCG6cIdDjn_13crystal_topos15python_bindings12QuantumStateE3newB12_, symObjAddr: 0x5C, symBinAddr: 0x49F8, symSize: 0x4 }
  - { offset: 0x10CCE, size: 0x8, addend: 0x0, symName: __RNvMNtNtCs7Qj1RmEtpUo_4pyo35impl_12deprecationsINtB2_7GilRefsdE3newCsgvCG6cIdDjn_13crystal_topos, symObjAddr: 0x60, symBinAddr: 0x49FC, symSize: 0x4 }
  - { offset: 0x10CEB, size: 0x8, addend: 0x0, symName: __RNvMNtNtCs7Qj1RmEtpUo_4pyo35impl_12deprecationsINtB2_7GilRefsjE3newCsgvCG6cIdDjn_13crystal_topos, symObjAddr: 0x64, symBinAddr: 0x4A00, symSize: 0x4 }
  - { offset: 0x10D15, size: 0x8, addend: 0x0, symName: __RNvMs2_NtNtCs7Qj1RmEtpUo_4pyo35impl_12deprecationsINtB5_10NotAGilRefRINtNtB9_8instance5BoundNtNtNtB9_5types6module8PyModuleEE12function_argCsgvCG6cIdDjn_13crystal_topos, symObjAddr: 0x68, symBinAddr: 0x4A04, symSize: 0x10 }
  - { offset: 0x10D40, size: 0x8, addend: 0x0, symName: __RNvMs2_NtNtCs7Qj1RmEtpUo_4pyo35impl_12deprecationsINtB5_10NotAGilRefRINtNtB9_8instance5BoundNtNtNtB9_5types6module8PyModuleEE9is_pythonCsgvCG6cIdDjn_13crystal_topos, symObjAddr: 0x78, symBinAddr: 0x4A14, symSize: 0x10 }
  - { offset: 0x10D78, size: 0x8, addend: 0x0, symName: __RNvMs2_NtNtCs7Qj1RmEtpUo_4pyo35impl_12deprecationsINtB5_10NotAGilRefRNtNtCsgvCG6cIdDjn_13crystal_topos15python_bindings12QuantumStateE12function_argB19_, symObjAddr: 0x88, symBinAddr: 0x4A24, symSize: 0x10 }
  - { offset: 0x10DB0, size: 0x8, addend: 0x0, symName: __RNvMs2_NtNtCs7Qj1RmEtpUo_4pyo35impl_12deprecationsINtB5_10NotAGilRefdE12function_argCsgvCG6cIdDjn_13crystal_topos, symObjAddr: 0x98, symBinAddr: 0x4A34, symSize: 0x10 }
  - { offset: 0x10DE8, size: 0x8, addend: 0x0, symName: __RNvMs2_NtNtCs7Qj1RmEtpUo_4pyo35impl_12deprecationsINtB5_10NotAGilRefjE12function_argCsgvCG6cIdDjn_13crystal_topos, symObjAddr: 0xA8, symBinAddr: 0x4A44, symSize: 0x10 }
  - { offset: 0x10E99, size: 0x8, addend: 0x0, symName: __RINvXs26_NtNtNtCs7dfkhshTrE4_4core4iter6traits5accumdNtB7_3Sum3sumINtNtNtBb_8adapters3map3MapINtNtNtBd_3ops5range5RangejENCNCNvNtCsgvCG6cIdDjn_13crystal_topos7measure12sector_probss_00EEB23_, symObjAddr: 0x0, symBinAddr: 0x4AF4, symSize: 0x1C }
  - { offset: 0x10EBF, size: 0x8, addend: 0x0, symName: __RINvXs26_NtNtNtCs7dfkhshTrE4_4core4iter6traits5accumdNtB7_3Sum3sumINtNtNtBb_8adapters3map3MapINtNtNtBd_3ops5range5RangejENCNCNvNtCsgvCG6cIdDjn_13crystal_topos7measure12sector_probss_00EEB23_, symObjAddr: 0x0, symBinAddr: 0x4AF4, symSize: 0x1C }
  - { offset: 0x10EF5, size: 0x8, addend: 0x0, symName: __RINvXs26_NtNtNtCs7dfkhshTrE4_4core4iter6traits5accumdNtB7_3Sum3sumINtNtNtBb_8adapters3map3MapINtNtNtBd_5slice4iter4IterNtNtCsgvCG6cIdDjn_13crystal_topos4base2CxENCNvMs3_B1V_NtB1V_4Vec_4norm0EEB1X_, symObjAddr: 0x1C, symBinAddr: 0x4B10, symSize: 0x34 }
  - { offset: 0x10F2F, size: 0x8, addend: 0x0, symName: __RNCINvXs26_NtNtNtCs7dfkhshTrE4_4core4iter6traits5accumdNtB9_3Sum3sumINtNtNtBd_8adapters3map3MapINtNtNtBf_3ops5range5RangejENCNCNvNtCsgvCG6cIdDjn_13crystal_topos7measure12sector_probss_00EE0B25_, symObjAddr: 0x50, symBinAddr: 0x4B44, symSize: 0x1C }
  - { offset: 0x10F7C, size: 0x8, addend: 0x0, symName: __RNCINvXs26_NtNtNtCs7dfkhshTrE4_4core4iter6traits5accumdNtB9_3Sum3sumINtNtNtBd_8adapters3map3MapINtNtNtBf_5slice4iter4IterNtNtCsgvCG6cIdDjn_13crystal_topos4base2CxENCNvMs3_B1X_NtB1X_4Vec_4norm0EE0B1Z_, symObjAddr: 0x6C, symBinAddr: 0x4B60, symSize: 0x1C }
  - { offset: 0x1136B, size: 0x8, addend: 0x0, symName: __RNvYNtNtNtCs7Qj1RmEtpUo_4pyo35types5tuple21BorrowedTupleIteratorNtNtNtNtCs7dfkhshTrE4_4core4iter6traits8iterator8Iterator4takeCsgvCG6cIdDjn_13crystal_topos, symObjAddr: 0x0, symBinAddr: 0x4B7C, symSize: 0x24 }
  - { offset: 0x1146F, size: 0x8, addend: 0x0, symName: __RNvYNtNtNtCs7Qj1RmEtpUo_4pyo35types5tuple21BorrowedTupleIteratorNtNtNtNtCs7dfkhshTrE4_4core4iter6traits8iterator8Iterator4takeCsgvCG6cIdDjn_13crystal_topos, symObjAddr: 0x0, symBinAddr: 0x4B7C, symSize: 0x24 }
  - { offset: 0x11793, size: 0x8, addend: 0x0, symName: __RNCNvXs4_NtCsgvCG6cIdDjn_13crystal_topos15python_bindingsNtB7_12QuantumStateNtNtNtCs7Qj1RmEtpUo_4pyo35impl_7pyclass11PyClassImpl3doc0B9_, symObjAddr: 0x0, symBinAddr: 0x4BA0, symSize: 0x58 }
  - { offset: 0x11839, size: 0x8, addend: 0x0, symName: __RNCNvXs4_NtCsgvCG6cIdDjn_13crystal_topos15python_bindingsNtB7_12QuantumStateNtNtNtCs7Qj1RmEtpUo_4pyo35impl_7pyclass11PyClassImpl3doc0B9_, symObjAddr: 0x0, symBinAddr: 0x4BA0, symSize: 0x58 }
  - { offset: 0x118E9, size: 0x8, addend: 0x0, symName: __RNvXNtCs7Qj1RmEtpUo_4pyo311type_objectNtNtCsgvCG6cIdDjn_13crystal_topos15python_bindings12QuantumStateNtB2_11PyTypeCheck10type_checkBE_, symObjAddr: 0x58, symBinAddr: 0x4BF8, symSize: 0x24 }
  - { offset: 0x11924, size: 0x8, addend: 0x0, symName: __RNvYNtNtCsgvCG6cIdDjn_13crystal_topos15python_bindings12QuantumStateNtNtCs7Qj1RmEtpUo_4pyo311type_object10PyTypeInfo16is_type_of_boundB6_, symObjAddr: 0xA8, symBinAddr: 0x4C48, symSize: 0x50 }
  - { offset: 0x1196A, size: 0x8, addend: 0x0, symName: __RNvXs0_NtNtCs7Qj1RmEtpUo_4pyo35impl_4wrapNtNtCsgvCG6cIdDjn_13crystal_topos15python_bindings12QuantumStateINtB5_6OkWrapBD_E4wrapBH_, symObjAddr: 0x7C, symBinAddr: 0x4C1C, symSize: 0x18 }
  - { offset: 0x119AB, size: 0x8, addend: 0x0, symName: __RNvYNtNtCsgvCG6cIdDjn_13crystal_topos15python_bindings12QuantumStateNtNtNtCs7Qj1RmEtpUo_4pyo35impl_7pyclass11PyClassImpl11dict_offsetB6_, symObjAddr: 0xF8, symBinAddr: 0x4C98, symSize: 0x8 }
  - { offset: 0x119D2, size: 0x8, addend: 0x0, symName: __RNvYNtNtCsgvCG6cIdDjn_13crystal_topos15python_bindings12QuantumStateNtNtNtCs7Qj1RmEtpUo_4pyo35impl_7pyclass11PyClassImpl15weaklist_offsetB6_, symObjAddr: 0x100, symBinAddr: 0x4CA0, symSize: 0x8 }
  - { offset: 0x11CF1, size: 0x8, addend: 0x0, symName: __RNvXs1_NtCs7dfkhshTrE4_4core7convertNtNtCsgvCG6cIdDjn_13crystal_topos15python_bindings12QuantumStateINtB5_4IntoINtNtCs7Qj1RmEtpUo_4pyo312pyclass_init18PyClassInitializerBy_EE4intoBC_, symObjAddr: 0x94, symBinAddr: 0x4C34, symSize: 0x14 }
  - { offset: 0x12393, size: 0x8, addend: 0x0, symName: __RNvXNtNtNtCs7dfkhshTrE4_4core4iter6traits10exact_sizeQDNtB2_17ExactSizeIteratorp4ItemINtNtCs7Qj1RmEtpUo_4pyo38instance2PyNtNtNtB1q_5types3any5PyAnyEEL_BR_3lenCsgvCG6cIdDjn_13crystal_topos, symObjAddr: 0x0, symBinAddr: 0x4CA8, symSize: 0x34 }
  - { offset: 0x123B9, size: 0x8, addend: 0x0, symName: __RNvXNtNtNtCs7dfkhshTrE4_4core4iter6traits10exact_sizeQDNtB2_17ExactSizeIteratorp4ItemINtNtCs7Qj1RmEtpUo_4pyo38instance2PyNtNtNtB1q_5types3any5PyAnyEEL_BR_3lenCsgvCG6cIdDjn_13crystal_topos, symObjAddr: 0x0, symBinAddr: 0x4CA8, symSize: 0x34 }
  - { offset: 0x123FA, size: 0x8, addend: 0x0, symName: __RNvXs0_NtNtNtCs7dfkhshTrE4_4core4iter6traits8iteratorQDNtNtB7_10exact_size17ExactSizeIteratorp4ItemINtNtCs7Qj1RmEtpUo_4pyo38instance2PyNtNtNtB1E_5types3any5PyAnyEEL_NtB5_8Iterator4nextCsgvCG6cIdDjn_13crystal_topos, symObjAddr: 0x34, symBinAddr: 0x4CDC, symSize: 0x34 }
  - { offset: 0x12437, size: 0x8, addend: 0x0, symName: __RNvYQDNtNtNtNtCs7dfkhshTrE4_4core4iter6traits10exact_size17ExactSizeIteratorp4ItemINtNtCs7Qj1RmEtpUo_4pyo38instance2PyNtNtNtB1n_5types3any5PyAnyEEL_NtNtB8_8iterator8Iterator4takeCsgvCG6cIdDjn_13crystal_topos, symObjAddr: 0x68, symBinAddr: 0x4D10, symSize: 0x2C }
  - { offset: 0x12762, size: 0x8, addend: 0x0, symName: __RNvMs2_NtCs7Qj1RmEtpUo_4pyo36markerNtB5_6Python19assume_gil_acquiredCsgvCG6cIdDjn_13crystal_topos, symObjAddr: 0x0, symBinAddr: 0x4D3C, symSize: 0x4 }
  - { offset: 0x128A4, size: 0x8, addend: 0x0, symName: __RNvMs2_NtCs7Qj1RmEtpUo_4pyo36markerNtB5_6Python19assume_gil_acquiredCsgvCG6cIdDjn_13crystal_topos, symObjAddr: 0x0, symBinAddr: 0x4D3C, symSize: 0x4 }
  - { offset: 0x128D5, size: 0x8, addend: 0x0, symName: __RNvNvMs_NtCs2iVXuAemrgm_5alloc3vecINtB6_3VecppE7set_len18precondition_checkCsgvCG6cIdDjn_13crystal_topos, symObjAddr: 0x0, symBinAddr: 0x4D40, symSize: 0x60 }
  - { offset: 0x128F6, size: 0x8, addend: 0x0, symName: __RNvNvMs_NtCs2iVXuAemrgm_5alloc3vecINtB6_3VecppE7set_len18precondition_checkCsgvCG6cIdDjn_13crystal_topos, symObjAddr: 0x0, symBinAddr: 0x4D40, symSize: 0x60 }
  - { offset: 0x129A0, size: 0x8, addend: 0x0, symName: __RNvMs2_NtCs7dfkhshTrE4_4core3fmtNtB5_9Arguments17from_str_nonconstCsgvCG6cIdDjn_13crystal_topos, symObjAddr: 0x0, symBinAddr: 0x4DA0, symSize: 0x28 }
  - { offset: 0x12CEC, size: 0x8, addend: 0x0, symName: __RNvMs2_NtCs7dfkhshTrE4_4core3fmtNtB5_9Arguments17from_str_nonconstCsgvCG6cIdDjn_13crystal_topos, symObjAddr: 0x0, symBinAddr: 0x4DA0, symSize: 0x28 }
  - { offset: 0x12D0F, size: 0x8, addend: 0x0, symName: __RNvMs4_NtCs7dfkhshTrE4_4core3fmtNtB5_9Arguments8from_strCsgvCG6cIdDjn_13crystal_topos, symObjAddr: 0x28, symBinAddr: 0x4DC8, symSize: 0x20 }
  - { offset: 0x12D50, size: 0x8, addend: 0x0, symName: __RNvXNtNtNtCs7Qj1RmEtpUo_4pyo35types4dict13borrowed_iterNtB2_16BorrowedDictIterNtNtNtNtCs7dfkhshTrE4_4core4iter6traits8iterator8Iterator4nextCsgvCG6cIdDjn_13crystal_topos, symObjAddr: 0x0, symBinAddr: 0x4DE8, symSize: 0xE4 }
  - { offset: 0x12DFB, size: 0x8, addend: 0x0, symName: __RNvXNtNtNtCs7Qj1RmEtpUo_4pyo35types4dict13borrowed_iterNtB2_16BorrowedDictIterNtNtNtNtCs7dfkhshTrE4_4core4iter6traits8iterator8Iterator4nextCsgvCG6cIdDjn_13crystal_topos, symObjAddr: 0x0, symBinAddr: 0x4DE8, symSize: 0xE4 }
  - { offset: 0x13248, size: 0x8, addend: 0x0, symName: __RNvXNtNtNtCs7dfkhshTrE4_4core4iter6traits7collectINtNtNtB6_8adapters3zip3ZipINtNtNtB8_5slice4iter4IterNtNtNtCs7Qj1RmEtpUo_4pyo35impl_16extract_argument31KeywordOnlyParameterDescriptionEIB1d_INtNtB8_6option6OptionINtNtB1I_8instance8BorrowedNtNtNtB1I_5types3any5PyAnyEEEENtB2_12IntoIterator9into_iterCsgvCG6cIdDjn_13crystal_topos, symObjAddr: 0x0, symBinAddr: 0x4ECC, symSize: 0x30 }
  - { offset: 0x132F3, size: 0x8, addend: 0x0, symName: __RNvXNtNtNtCs7dfkhshTrE4_4core4iter6traits7collectINtNtNtB6_8adapters3zip3ZipINtNtNtB8_5slice4iter4IterNtNtNtCs7Qj1RmEtpUo_4pyo35impl_16extract_argument31KeywordOnlyParameterDescriptionEIB1d_INtNtB8_6option6OptionINtNtB1I_8instance8BorrowedNtNtNtB1I_5types3any5PyAnyEEEENtB2_12IntoIterator9into_iterCsgvCG6cIdDjn_13crystal_topos, symObjAddr: 0x0, symBinAddr: 0x4ECC, symSize: 0x30 }
  - { offset: 0x137C2, size: 0x8, addend: 0x0, symName: __RINvMs3_NtNtCs7Qj1RmEtpUo_4pyo35impl_16extract_argumentNtB6_19FunctionDescription13handle_kwargsNtB6_13NoVarkeywordsNtNtNtNtBa_5types4dict13borrowed_iter16BorrowedDictIterECsgvCG6cIdDjn_13crystal_topos, symObjAddr: 0x0, symBinAddr: 0x4EFC, symSize: 0x67C }
  - { offset: 0x141DC, size: 0x8, addend: 0x0, symName: __RINvNtNtCs7Qj1RmEtpUo_4pyo35impl_16extract_argument16extract_argumentdECsgvCG6cIdDjn_13crystal_topos, symObjAddr: 0xB18, symBinAddr: 0x5A14, symSize: 0x11C }
  - { offset: 0x14260, size: 0x8, addend: 0x0, symName: __RINvNtNtCs7Qj1RmEtpUo_4pyo35impl_16extract_argument16extract_argumentjECsgvCG6cIdDjn_13crystal_topos, symObjAddr: 0xC34, symBinAddr: 0x5B30, symSize: 0x11C }
  - { offset: 0x142E4, size: 0x8, addend: 0x0, symName: __RINvNtNtCs7Qj1RmEtpUo_4pyo35impl_16extract_argument19extract_pyclass_refNtNtCsgvCG6cIdDjn_13crystal_topos15python_bindings12QuantumStateEB1c_, symObjAddr: 0xD50, symBinAddr: 0x5C4C, symSize: 0xB0 }
  - { offset: 0x1434F, size: 0x8, addend: 0x0, symName: __RNCINvMs3_NtNtCs7Qj1RmEtpUo_4pyo35impl_16extract_argumentNtB8_19FunctionDescription28extract_arguments_tuple_dictNtB8_9NoVarargsNtB8_13NoVarkeywordsE0CsgvCG6cIdDjn_13crystal_topos, symObjAddr: 0xE00, symBinAddr: 0x5CFC, symSize: 0x24 }
  - { offset: 0x143A7, size: 0x8, addend: 0x0, symName: __RNCNvMs3_NtNtCs7Qj1RmEtpUo_4pyo35impl_16extract_argumentNtB7_19FunctionDescription36find_keyword_parameter_in_positional0CsgvCG6cIdDjn_13crystal_topos, symObjAddr: 0xE24, symBinAddr: 0x5D20, symSize: 0x48 }
  - { offset: 0x14407, size: 0x8, addend: 0x0, symName: __RNCNvMs3_NtNtCs7Qj1RmEtpUo_4pyo35impl_16extract_argumentNtB7_19FunctionDescription38find_keyword_parameter_in_keyword_only0CsgvCG6cIdDjn_13crystal_topos, symObjAddr: 0xE6C, symBinAddr: 0x5D68, symSize: 0x38 }
  - { offset: 0x1444E, size: 0x8, addend: 0x0, symName: __RNvXNtNtCs7Qj1RmEtpUo_4pyo35impl_16extract_argumentdNtB2_18PyFunctionArgument7extractCsgvCG6cIdDjn_13crystal_topos, symObjAddr: 0xEA4, symBinAddr: 0x5DA0, symSize: 0x28 }
  - { offset: 0x1448D, size: 0x8, addend: 0x0, symName: __RNvXNtNtCs7Qj1RmEtpUo_4pyo35impl_16extract_argumentjNtB2_18PyFunctionArgument7extractCsgvCG6cIdDjn_13crystal_topos, symObjAddr: 0xECC, symBinAddr: 0x5DC8, symSize: 0x28 }
  - { offset: 0x14A5D, size: 0x8, addend: 0x0, symName: __RINvMs3_NtNtCs7Qj1RmEtpUo_4pyo35impl_16extract_argumentNtB6_19FunctionDescription13handle_kwargsNtB6_13NoVarkeywordsNtNtNtNtBa_5types4dict13borrowed_iter16BorrowedDictIterECsgvCG6cIdDjn_13crystal_topos, symObjAddr: 0x0, symBinAddr: 0x4EFC, symSize: 0x67C }
  - { offset: 0x14C7A, size: 0x8, addend: 0x0, symName: __RINvMs3_NtNtCs7Qj1RmEtpUo_4pyo35impl_16extract_argumentNtB6_19FunctionDescription28extract_arguments_tuple_dictNtB6_9NoVarargsNtB6_13NoVarkeywordsECsgvCG6cIdDjn_13crystal_topos, symObjAddr: 0x67C, symBinAddr: 0x5578, symSize: 0x49C }
  - { offset: 0x15098, size: 0x8, addend: 0x0, symName: __RNCINvNvNtNtNtNtCs7dfkhshTrE4_4core4iter6traits8iterator8Iterator8for_each4calldNCINvMsj_NtCs2iVXuAemrgm_5alloc3vecINtB1p_3VecdE14extend_trustedINtNtNtBc_8adapters3map3MapINtNtNtBe_3ops5range5RangejENCNvNtCsgvCG6cIdDjn_13crystal_topos7measure12sector_probss_0EE0E0B3h_, symObjAddr: 0x0, symBinAddr: 0x5DF0, symSize: 0x28 }
  - { offset: 0x1514D, size: 0x8, addend: 0x0, symName: __RNCINvNvNtNtNtNtCs7dfkhshTrE4_4core4iter6traits8iterator8Iterator8for_each4calldNCINvMsj_NtCs2iVXuAemrgm_5alloc3vecINtB1p_3VecdE14extend_trustedINtNtNtBc_8adapters3map3MapINtNtNtBe_3ops5range5RangejENCNvNtCsgvCG6cIdDjn_13crystal_topos7measure12sector_probss_0EE0E0B3h_, symObjAddr: 0x0, symBinAddr: 0x5DF0, symSize: 0x28 }
  - { offset: 0x151A5, size: 0x8, addend: 0x0, symName: __RNCINvNvNtNtNtNtCs7dfkhshTrE4_4core4iter6traits8iterator8Iterator8for_each4calldNCINvMsj_NtCs2iVXuAemrgm_5alloc3vecINtB1p_3VecdE14extend_trustedINtNtNtBc_8adapters3map3MapINtNtNtBe_5slice4iter4IterNtNtCsgvCG6cIdDjn_13crystal_topos4base2CxENCNvNtB3d_7measure10born_probs0EE0E0B3d_, symObjAddr: 0x28, symBinAddr: 0x5E18, symSize: 0x28 }
  - { offset: 0x151FD, size: 0x8, addend: 0x0, symName: __RNCINvNvNtNtNtNtCs7dfkhshTrE4_4core4iter6traits8iterator8Iterator8for_each4calldNCINvMsj_NtCs2iVXuAemrgm_5alloc3vecINtB1p_3VecdE14extend_trustedINtNtNtBc_8adapters3map3MapINtNtNtBe_5slice4iter4IterNtNtCsgvCG6cIdDjn_13crystal_topos4base2CxENCNvNtB3d_7measure12sector_probs0EE0E0B3d_, symObjAddr: 0x50, symBinAddr: 0x5E40, symSize: 0x28 }
  - { offset: 0x15266, size: 0x8, addend: 0x0, symName: __RNCNvXs_NvNtNtNtNtCs7dfkhshTrE4_4core4iter6traits8iterator8Iterator10advance_byINtNtNtBe_8adapters3map3MapINtNtNtCs2iVXuAemrgm_5alloc3vec9into_iter8IntoIterdENCNvXs0_NtNtNtCs7Qj1RmEtpUo_4pyo311conversions3std3vecINtB1L_3VecdEINtNtB2K_10conversion6IntoPyINtNtB2K_8instance2PyNtNtNtB2K_5types3any5PyAnyEE7into_py0ENtB6_13SpecAdvanceBy15spec_advance_by0CsgvCG6cIdDjn_13crystal_topos, symObjAddr: 0x78, symBinAddr: 0x5E68, symSize: 0x40 }
  - { offset: 0x157D9, size: 0x8, addend: 0x0, symName: __RNvXs1_NtCs7dfkhshTrE4_4core7convertINtNtNtCs7Qj1RmEtpUo_4pyo35impl_9pymethods8BoundRefNtNtNtBF_5types6module8PyModuleEINtB5_4IntoRINtNtBF_8instance5BoundB1n_EE4intoCsgvCG6cIdDjn_13crystal_topos, symObjAddr: 0x0, symBinAddr: 0x5EA8, symSize: 0x24 }
  - { offset: 0x1587A, size: 0x8, addend: 0x0, symName: __RNvXs1_NtCs7dfkhshTrE4_4core7convertINtNtNtCs7Qj1RmEtpUo_4pyo35impl_9pymethods8BoundRefNtNtNtBF_5types6module8PyModuleEINtB5_4IntoRINtNtBF_8instance5BoundB1n_EE4intoCsgvCG6cIdDjn_13crystal_topos, symObjAddr: 0x0, symBinAddr: 0x5EA8, symSize: 0x24 }
  - { offset: 0x15B91, size: 0x8, addend: 0x0, symName: __RINvNtCs7dfkhshTrE4_4core9panicking13assert_failediiECsgvCG6cIdDjn_13crystal_topos, symObjAddr: 0x0, symBinAddr: 0x6A44C, symSize: 0x54 }
  - { offset: 0x15BF5, size: 0x8, addend: 0x0, symName: __RINvNtCs7dfkhshTrE4_4core9panicking13assert_failediiECsgvCG6cIdDjn_13crystal_topos, symObjAddr: 0x0, symBinAddr: 0x6A44C, symSize: 0x54 }
  - { offset: 0x15FB0, size: 0x8, addend: 0x0, symName: __RINvXNtNtCs2iVXuAemrgm_5alloc3vec14spec_from_elemNtNtCsgvCG6cIdDjn_13crystal_topos4base2CxNtB3_12SpecFromElem9from_elemNtNtB7_5alloc6GlobalEBP_, symObjAddr: 0x0, symBinAddr: 0x5ECC, symSize: 0xE8 }
  - { offset: 0x16217, size: 0x8, addend: 0x0, symName: __RINvXNtNtCs2iVXuAemrgm_5alloc3vec14spec_from_elemNtNtCsgvCG6cIdDjn_13crystal_topos4base2CxNtB3_12SpecFromElem9from_elemNtNtB7_5alloc6GlobalEBP_, symObjAddr: 0x0, symBinAddr: 0x5ECC, symSize: 0xE8 }
  - { offset: 0x162E0, size: 0x8, addend: 0x0, symName: __RINvXs_NvMNtCs2iVXuAemrgm_5alloc5sliceSp9to_vec_inNtNtCsgvCG6cIdDjn_13crystal_topos4base2CxNtB5_10ConvertVec6to_vecNtNtBa_5alloc6GlobalEBQ_, symObjAddr: 0xE8, symBinAddr: 0x5FB4, symSize: 0x114 }
  - { offset: 0x16548, size: 0x8, addend: 0x0, symName: __RNCNvMs3_NtCsgvCG6cIdDjn_13crystal_topos4baseNtB7_4Vec_4norm0B9_, symObjAddr: 0x1FC, symBinAddr: 0x60C8, symSize: 0x30 }
  - { offset: 0x16766, size: 0x8, addend: 0x0, symName: __RNvMNtCs7dfkhshTrE4_4core5sliceSNtNtCsgvCG6cIdDjn_13crystal_topos4base2Cx4iterBy_, symObjAddr: 0x22C, symBinAddr: 0x60F8, symSize: 0x28 }
  - { offset: 0x16812, size: 0x8, addend: 0x0, symName: __RNvXs1_NtCs7dfkhshTrE4_4core7convertNtNtCsgvCG6cIdDjn_13crystal_topos4base4Vec_INtB5_4IntoBy_E4intoBC_, symObjAddr: 0x254, symBinAddr: 0x6120, symSize: 0x18 }
  - { offset: 0x16B31, size: 0x8, addend: 0x0, symName: __RNCNvNtNtCsgvCG6cIdDjn_13crystal_topos15python_bindings13crystal_topos11___pyo3_init0B7_, symObjAddr: 0x0, symBinAddr: 0x6138, symSize: 0x28 }
  - { offset: 0x16BD7, size: 0x8, addend: 0x0, symName: __RNCNvNtNtCsgvCG6cIdDjn_13crystal_topos15python_bindings13crystal_topos11___pyo3_init0B7_, symObjAddr: 0x0, symBinAddr: 0x6138, symSize: 0x28 }
  - { offset: 0x170AB, size: 0x8, addend: 0x0, symName: __RNvNvNtNtCs7dfkhshTrE4_4core5slice3raw14from_raw_parts18precondition_checkCsgvCG6cIdDjn_13crystal_topos, symObjAddr: 0x0, symBinAddr: 0x6160, symSize: 0xEC }
  - { offset: 0x17191, size: 0x8, addend: 0x0, symName: __RNvNvNtNtCs7dfkhshTrE4_4core5slice3raw14from_raw_parts18precondition_checkCsgvCG6cIdDjn_13crystal_topos, symObjAddr: 0x0, symBinAddr: 0x6160, symSize: 0xEC }
  - { offset: 0x17326, size: 0x8, addend: 0x0, symName: __RINvYINtNtNtCs7dfkhshTrE4_4core3ops5range5RangejENtNtNtNtBa_4iter6traits8iterator8Iterator3mapdNCNCNvNtCsgvCG6cIdDjn_13crystal_topos7measure12sector_probss_00EB1D_, symObjAddr: 0x0, symBinAddr: 0x624C, symSize: 0x34 }
  - { offset: 0x174DD, size: 0x8, addend: 0x0, symName: __RINvYINtNtNtCs7dfkhshTrE4_4core3ops5range5RangejENtNtNtNtBa_4iter6traits8iterator8Iterator3mapdNCNCNvNtCsgvCG6cIdDjn_13crystal_topos7measure12sector_probss_00EB1D_, symObjAddr: 0x0, symBinAddr: 0x624C, symSize: 0x34 }
  - { offset: 0x1754A, size: 0x8, addend: 0x0, symName: __RINvYINtNtNtCs7dfkhshTrE4_4core3ops5range5RangejENtNtNtNtBa_4iter6traits8iterator8Iterator3mapdNCNvNtCsgvCG6cIdDjn_13crystal_topos7measure12sector_probss_0EB1B_, symObjAddr: 0x34, symBinAddr: 0x6280, symSize: 0x28 }
  - { offset: 0x175B7, size: 0x8, addend: 0x0, symName: __RINvYINtNtNtCs7dfkhshTrE4_4core3ops5range5RangejENtNtNtNtBa_4iter6traits8iterator8Iterator4folddNCINvNtNtBR_8adapters3map8map_foldjddNCNCNvNtCsgvCG6cIdDjn_13crystal_topos7measure12sector_probss_00NCINvXs26_NtBP_5accumdNtB3i_3Sum3sumINtB1B_3MapB3_B27_EE0E0EB2f_, symObjAddr: 0x5C, symBinAddr: 0x62A8, symSize: 0xDC }
  - { offset: 0x1764B, size: 0x8, addend: 0x0, symName: __RINvYINtNtNtCs7dfkhshTrE4_4core3ops5range5RangejENtNtNtNtBa_4iter6traits8iterator8Iterator4folduNCINvNtNtBR_8adapters3map8map_foldjduNCNvNtCsgvCG6cIdDjn_13crystal_topos7measure12sector_probss_0NCINvNvBL_8for_each4calldNCINvMsj_NtCs2iVXuAemrgm_5alloc3vecINtB3D_3VecdE14extend_trustedINtB1B_3MapB3_B27_EE0E0E0EB2d_, symObjAddr: 0x138, symBinAddr: 0x6384, symSize: 0xD8 }
  - { offset: 0x17720, size: 0x8, addend: 0x0, symName: __RNvXs4_NtNtCs7dfkhshTrE4_4core4iter5rangeINtNtNtB9_3ops5range5RangejENtNtNtB7_6traits8iterator8Iterator9size_hintCsgvCG6cIdDjn_13crystal_topos, symObjAddr: 0x210, symBinAddr: 0x645C, symSize: 0x88 }
  - { offset: 0x17965, size: 0x8, addend: 0x0, symName: __RNvXs5_NtNtCs7dfkhshTrE4_4core5slice5indexINtNtNtB9_3ops5range9RangeFromjEINtB5_10SliceIndexSINtNtB9_6option6OptionINtNtCs7Qj1RmEtpUo_4pyo38instance8BorrowedNtNtNtB1U_5types3any5PyAnyEEE5indexCsgvCG6cIdDjn_13crystal_topos, symObjAddr: 0x298, symBinAddr: 0x64E4, symSize: 0x70 }
  - { offset: 0x17F49, size: 0x8, addend: 0x0, symName: __RNvNtCsgvCG6cIdDjn_13crystal_topos10algorithms11grover_step, symObjAddr: 0x0, symBinAddr: 0x6554, symSize: 0x228 }
  - { offset: 0x17F60, size: 0x8, addend: 0x0, symName: __RNvNtCsgvCG6cIdDjn_13crystal_topos10algorithms11grover_step, symObjAddr: 0x0, symBinAddr: 0x6554, symSize: 0x228 }
  - { offset: 0x1801D, size: 0x8, addend: 0x0, symName: __RNvNtCsgvCG6cIdDjn_13crystal_topos10algorithms13grover_oracle, symObjAddr: 0x228, symBinAddr: 0x677C, symSize: 0xE4 }
  - { offset: 0x1806C, size: 0x8, addend: 0x0, symName: __RNvNtCsgvCG6cIdDjn_13crystal_topos10algorithms13grover_search, symObjAddr: 0x30C, symBinAddr: 0x6860, symSize: 0x170 }
  - { offset: 0x180E7, size: 0x8, addend: 0x0, symName: __RNvNtCsgvCG6cIdDjn_13crystal_topos10algorithms3qft, symObjAddr: 0x47C, symBinAddr: 0x69D0, symSize: 0x2E0 }
  - { offset: 0x18407, size: 0x8, addend: 0x0, symName: __RNvNtCsgvCG6cIdDjn_13crystal_topos7measure10born_probs, symObjAddr: 0x0, symBinAddr: 0x6CB0, symSize: 0x38 }
  - { offset: 0x1841E, size: 0x8, addend: 0x0, symName: __RNvNtCsgvCG6cIdDjn_13crystal_topos7measure10born_probs, symObjAddr: 0x0, symBinAddr: 0x6CB0, symSize: 0x38 }
  - { offset: 0x1844A, size: 0x8, addend: 0x0, symName: __RNvNtCsgvCG6cIdDjn_13crystal_topos7measure12sector_probs, symObjAddr: 0x38, symBinAddr: 0x6CE8, symSize: 0x90 }
  - { offset: 0x186E0, size: 0x8, addend: 0x0, symName: __RNCNCNvNtCsgvCG6cIdDjn_13crystal_topos7measure12sector_probss_00B7_, symObjAddr: 0x0, symBinAddr: 0x6D78, symSize: 0xA8 }
  - { offset: 0x18701, size: 0x8, addend: 0x0, symName: __RNCNCNvNtCsgvCG6cIdDjn_13crystal_topos7measure12sector_probss_00B7_, symObjAddr: 0x0, symBinAddr: 0x6D78, symSize: 0xA8 }
  - { offset: 0x18752, size: 0x8, addend: 0x0, symName: __RNCNvNtCsgvCG6cIdDjn_13crystal_topos7measure12sector_probs0B5_, symObjAddr: 0xD8, symBinAddr: 0x6E50, symSize: 0x30 }
  - { offset: 0x18788, size: 0x8, addend: 0x0, symName: __RNCNvNtCsgvCG6cIdDjn_13crystal_topos7measure12sector_probss_0B5_, symObjAddr: 0x108, symBinAddr: 0x6E80, symSize: 0x4C }
  - { offset: 0x187D2, size: 0x8, addend: 0x0, symName: __RNCNvNtCsgvCG6cIdDjn_13crystal_topos7measure10born_probs0B5_, symObjAddr: 0xA8, symBinAddr: 0x6E20, symSize: 0x30 }
  - { offset: 0x18A1C, size: 0x8, addend: 0x0, symName: __RNvMNtNtCs7Qj1RmEtpUo_4pyo35impl_5panicNtB2_9PanicTrap3newCsgvCG6cIdDjn_13crystal_topos, symObjAddr: 0x0, symBinAddr: 0x6ECC, symSize: 0x18 }
  - { offset: 0x18AAB, size: 0x8, addend: 0x0, symName: __RNvMNtNtCs7Qj1RmEtpUo_4pyo35impl_5panicNtB2_9PanicTrap3newCsgvCG6cIdDjn_13crystal_topos, symObjAddr: 0x0, symBinAddr: 0x6ECC, symSize: 0x18 }
  - { offset: 0x18ACD, size: 0x8, addend: 0x0, symName: __RNvMNtNtCs7Qj1RmEtpUo_4pyo35impl_5panicNtB2_9PanicTrap6disarmCsgvCG6cIdDjn_13crystal_topos, symObjAddr: 0x18, symBinAddr: 0x6EE4, symSize: 0x28 }
  - { offset: 0x18B0D, size: 0x8, addend: 0x0, symName: __RNvNtCs2iVXuAemrgm_5alloc3fmt6formatCsgvCG6cIdDjn_13crystal_topos, symObjAddr: 0x0, symBinAddr: 0x6F0C, symSize: 0xD8 }
  - { offset: 0x19025, size: 0x8, addend: 0x0, symName: __RNvNtCs2iVXuAemrgm_5alloc3fmt6formatCsgvCG6cIdDjn_13crystal_topos, symObjAddr: 0x0, symBinAddr: 0x6F0C, symSize: 0xD8 }
  - { offset: 0x191D5, size: 0x8, addend: 0x0, symName: __RINvXs_NvMNtCs2iVXuAemrgm_5alloc5sliceSp9to_vec_indNtB5_10ConvertVec6to_vecNtNtBa_5alloc6GlobalECsgvCG6cIdDjn_13crystal_topos, symObjAddr: 0x0, symBinAddr: 0x6FE4, symSize: 0x10C }
  - { offset: 0x19447, size: 0x8, addend: 0x0, symName: __RINvXs_NvMNtCs2iVXuAemrgm_5alloc5sliceSp9to_vec_indNtB5_10ConvertVec6to_vecNtNtBa_5alloc6GlobalECsgvCG6cIdDjn_13crystal_topos, symObjAddr: 0x0, symBinAddr: 0x6FE4, symSize: 0x10C }
  - { offset: 0x196B4, size: 0x8, addend: 0x0, symName: __RNvMNtCs2iVXuAemrgm_5alloc5sliceSd6to_vecCsgvCG6cIdDjn_13crystal_topos, symObjAddr: 0x10C, symBinAddr: 0x70F0, symSize: 0x28 }
  - { offset: 0x19B11, size: 0x8, addend: 0x0, symName: __RNvXsF_NtNtCs7dfkhshTrE4_4core4iter5rangejNtB5_4Step13steps_betweenCsgvCG6cIdDjn_13crystal_topos, symObjAddr: 0x0, symBinAddr: 0x7118, symSize: 0x8C }
  - { offset: 0x19B32, size: 0x8, addend: 0x0, symName: __RNvXsF_NtNtCs7dfkhshTrE4_4core4iter5rangejNtB5_4Step13steps_betweenCsgvCG6cIdDjn_13crystal_topos, symObjAddr: 0x0, symBinAddr: 0x7118, symSize: 0x8C }
  - { offset: 0x19C50, size: 0x8, addend: 0x0, symName: __RNvNvNtCs7dfkhshTrE4_4core9ub_checks23maybe_is_nonoverlapping7runtimeCsgvCG6cIdDjn_13crystal_topos, symObjAddr: 0x0, symBinAddr: 0x71A4, symSize: 0xD8 }
  - { offset: 0x19DD5, size: 0x8, addend: 0x0, symName: __RNvNvNtCs7dfkhshTrE4_4core9ub_checks23maybe_is_nonoverlapping7runtimeCsgvCG6cIdDjn_13crystal_topos, symObjAddr: 0x0, symBinAddr: 0x71A4, symSize: 0xD8 }
  - { offset: 0x19FE8, size: 0x8, addend: 0x0, symName: __RINvNtNtCs7Qj1RmEtpUo_4pyo37pyclass18create_type_object18create_type_objectNtNtCsgvCG6cIdDjn_13crystal_topos15python_bindings12QuantumStateEB1f_, symObjAddr: 0x0, symBinAddr: 0x727C, symSize: 0x164 }
  - { offset: 0x1A089, size: 0x8, addend: 0x0, symName: __RINvNtNtCs7Qj1RmEtpUo_4pyo37pyclass18create_type_object18create_type_objectNtNtCsgvCG6cIdDjn_13crystal_topos15python_bindings12QuantumStateEB1f_, symObjAddr: 0x0, symBinAddr: 0x727C, symSize: 0x164 }
  - { offset: 0x1AA58, size: 0x8, addend: 0x0, symName: __RNvMNtCs7dfkhshTrE4_4core3f64d3maxCsgvCG6cIdDjn_13crystal_topos, symObjAddr: 0x0, symBinAddr: 0x73E0, symSize: 0x20 }
  - { offset: 0x1AA74, size: 0x8, addend: 0x0, symName: __RNvMNtCs7dfkhshTrE4_4core3f64d3maxCsgvCG6cIdDjn_13crystal_topos, symObjAddr: 0x0, symBinAddr: 0x73E0, symSize: 0x20 }
  - { offset: 0x1AAD9, size: 0x8, addend: 0x0, symName: __RNvMs_NtCs7Qj1RmEtpUo_4pyo312pyclass_initINtB4_18PyClassInitializerNtNtCsgvCG6cIdDjn_13crystal_topos15python_bindings12QuantumStateE19create_class_objectB17_, symObjAddr: 0x0, symBinAddr: 0x7400, symSize: 0x94 }
  - { offset: 0x1ACDF, size: 0x8, addend: 0x0, symName: __RNvXNtCs7Qj1RmEtpUo_4pyo312pyclass_initINtB2_23PyNativeTypeInitializerNtNtNtB4_5types3any5PyAnyEINtB2_12PyObjectInitB16_E15into_new_objectCsgvCG6cIdDjn_13crystal_topos, symObjAddr: 0x43C, symBinAddr: 0x783C, symSize: 0x3C }
  - { offset: 0x1AD63, size: 0x8, addend: 0x0, symName: __RNvXNtCs7Qj1RmEtpUo_4pyo312pyclass_initINtB2_23PyNativeTypeInitializerNtNtNtB4_5types3any5PyAnyEINtB2_12PyObjectInitB16_E17can_be_subclassedCsgvCG6cIdDjn_13crystal_topos, symObjAddr: 0x478, symBinAddr: 0x7878, symSize: 0x18 }
  - { offset: 0x1AD9E, size: 0x8, addend: 0x0, symName: __RNvXs1_NtCs7Qj1RmEtpUo_4pyo312pyclass_initINtB5_18PyClassInitializerNtNtCsgvCG6cIdDjn_13crystal_topos15python_bindings12QuantumStateEINtNtCs7dfkhshTrE4_4core7convert4FromB14_E4fromB18_, symObjAddr: 0x490, symBinAddr: 0x7890, symSize: 0x3C }
  - { offset: 0x1B858, size: 0x8, addend: 0x0, symName: __RNvMs_NtCs7Qj1RmEtpUo_4pyo312pyclass_initINtB4_18PyClassInitializerNtNtCsgvCG6cIdDjn_13crystal_topos15python_bindings12QuantumStateE19create_class_objectB17_, symObjAddr: 0x0, symBinAddr: 0x7400, symSize: 0x94 }
  - { offset: 0x1B93B, size: 0x8, addend: 0x0, symName: __RNvMs_NtCs7Qj1RmEtpUo_4pyo312pyclass_initINtB4_18PyClassInitializerNtNtCsgvCG6cIdDjn_13crystal_topos15python_bindings12QuantumStateE27create_class_object_of_typeB17_, symObjAddr: 0x94, symBinAddr: 0x7494, symSize: 0x2D0 }
  - { offset: 0x1BB45, size: 0x8, addend: 0x0, symName: __RNvMs_NtCs7Qj1RmEtpUo_4pyo312pyclass_initINtB4_18PyClassInitializerNtNtCsgvCG6cIdDjn_13crystal_topos15python_bindings12QuantumStateE3newB17_, symObjAddr: 0x364, symBinAddr: 0x7764, symSize: 0xD8 }
  - { offset: 0x1BBB1, size: 0x8, addend: 0x0, symName: _PyInit_crystal_topos, symObjAddr: 0x0, symBinAddr: 0x78CC, symSize: 0x34 }
  - { offset: 0x1BBDA, size: 0x8, addend: 0x0, symName: __RNvNtNtCsgvCG6cIdDjn_13crystal_topos15python_bindings13crystal_topos9__PYO3_DEF, symObjAddr: 0x58, symBinAddr: 0xAC3D8, symSize: 0x0 }
  - { offset: 0x1BBE7, size: 0x8, addend: 0x0, symName: _PyInit_crystal_topos, symObjAddr: 0x0, symBinAddr: 0x78CC, symSize: 0x34 }
  - { offset: 0x1C72A, size: 0x8, addend: 0x0, symName: __RNCNvMs_NtNtNtCs7Qj1RmEtpUo_4pyo35impl_7pyclass16lazy_type_objectINtB6_14LazyTypeObjectNtNtCsgvCG6cIdDjn_13crystal_topos15python_bindings12QuantumStateE11get_or_init0B1r_, symObjAddr: 0x0, symBinAddr: 0x7900, symSize: 0xA8 }
  - { offset: 0x1C7DA, size: 0x8, addend: 0x0, symName: __RNCNvMs_NtNtNtCs7Qj1RmEtpUo_4pyo35impl_7pyclass16lazy_type_objectINtB6_14LazyTypeObjectNtNtCsgvCG6cIdDjn_13crystal_topos15python_bindings12QuantumStateE11get_or_init0B1r_, symObjAddr: 0x0, symBinAddr: 0x7900, symSize: 0xA8 }
  - { offset: 0x1D6EB, size: 0x8, addend: 0x0, symName: __RNvMs_NtNtNtCs7Qj1RmEtpUo_4pyo35impl_7pyclass16lazy_type_objectINtB4_14LazyTypeObjectNtNtCsgvCG6cIdDjn_13crystal_topos15python_bindings12QuantumStateE11get_or_initB1p_, symObjAddr: 0xA8, symBinAddr: 0x79A8, symSize: 0x40 }
  - { offset: 0x1D72F, size: 0x8, addend: 0x0, symName: __RNvMs_NtNtNtCs7Qj1RmEtpUo_4pyo35impl_7pyclass16lazy_type_objectINtB4_14LazyTypeObjectNtNtCsgvCG6cIdDjn_13crystal_topos15python_bindings12QuantumStateE15get_or_try_initB1p_, symObjAddr: 0xE8, symBinAddr: 0x79E8, symSize: 0x58 }
  - { offset: 0x1D885, size: 0x8, addend: 0x0, symName: __RNvMs9_NtCsgvCG6cIdDjn_13crystal_topos15python_bindingsNtB5_12QuantumState10annihilate, symObjAddr: 0x0, symBinAddr: 0x7A40, symSize: 0x31C }
  - { offset: 0x1EFED, size: 0x8, addend: 0x0, symName: __RNvNvXs4_NtCsgvCG6cIdDjn_13crystal_topos15python_bindingsNtB7_12QuantumStateNtNtNtCs7Qj1RmEtpUo_4pyo35impl_7pyclass11PyClassImpl10items_iter15INTRINSIC_ITEMS, symObjAddr: 0x6488, symBinAddr: 0x79E18, symSize: 0x0 }
  - { offset: 0x1F00D, size: 0x8, addend: 0x0, symName: __RNvNvXs4_NtCsgvCG6cIdDjn_13crystal_topos15python_bindingsNtB7_12QuantumStateNtNtNtCs7Qj1RmEtpUo_4pyo35impl_7pyclass11PyClassImpl16lazy_type_object11TYPE_OBJECT, symObjAddr: 0x6A80, symBinAddr: 0xAC458, symSize: 0x0 }
  - { offset: 0x1F02D, size: 0x8, addend: 0x0, symName: __RNvNvXs4_NtCsgvCG6cIdDjn_13crystal_topos15python_bindingsNtB7_12QuantumStateNtNtNtCs7Qj1RmEtpUo_4pyo35impl_7pyclass11PyClassImpl3doc3DOC, symObjAddr: 0x6AC8, symBinAddr: 0xAC4A0, symSize: 0x0 }
  - { offset: 0x1F03B, size: 0x8, addend: 0x0, symName: __RNvXs4_NtCsgvCG6cIdDjn_13crystal_topos15python_bindingsNtB5_12QuantumStateNtNtNtCs7Qj1RmEtpUo_4pyo35impl_7pyclass11PyClassImpl10items_iter, symObjAddr: 0x4E78, symBinAddr: 0xC8B8, symSize: 0x38 }
  - { offset: 0x1F076, size: 0x8, addend: 0x0, symName: __RNvXs4_NtCsgvCG6cIdDjn_13crystal_topos15python_bindingsNtB5_12QuantumStateNtNtNtCs7Qj1RmEtpUo_4pyo35impl_7pyclass11PyClassImpl16lazy_type_object, symObjAddr: 0x4EB0, symBinAddr: 0xC8F0, symSize: 0xC }
  - { offset: 0x1F093, size: 0x8, addend: 0x0, symName: __RNvXs4_NtCsgvCG6cIdDjn_13crystal_topos15python_bindingsNtB5_12QuantumStateNtNtNtCs7Qj1RmEtpUo_4pyo35impl_7pyclass11PyClassImpl3doc, symObjAddr: 0x4EBC, symBinAddr: 0xC8FC, symSize: 0x3C }
  - { offset: 0x1F519, size: 0x8, addend: 0x0, symName: __RNvNvXsa_NtCsgvCG6cIdDjn_13crystal_topos15python_bindingsINtNtNtCs7Qj1RmEtpUo_4pyo35impl_7pyclass20PyClassImplCollectorNtB7_12QuantumStateEINtBW_9PyMethodsB1T_E10py_methods5ITEMS, symObjAddr: 0x63B0, symBinAddr: 0xA55E8, symSize: 0x0 }
  - { offset: 0x1F52B, size: 0x8, addend: 0x0, symName: __RNvNvNvXsa_NtCsgvCG6cIdDjn_13crystal_topos15python_bindingsINtNtNtCs7Qj1RmEtpUo_4pyo35impl_7pyclass20PyClassImplCollectorNtB9_12QuantumStateEINtBY_9PyMethodsB1V_E10py_methods5ITEMS10trampoline, symObjAddr: 0x47D0, symBinAddr: 0xC210, symSize: 0x44 }
  - { offset: 0x1F565, size: 0x8, addend: 0x0, symName: __RNvNvNvXsa_NtCsgvCG6cIdDjn_13crystal_topos15python_bindingsINtNtNtCs7Qj1RmEtpUo_4pyo35impl_7pyclass20PyClassImplCollectorNtB9_12QuantumStateEINtBY_9PyMethodsB1V_E10py_methods5ITEMSs0_10trampoline, symObjAddr: 0x4814, symBinAddr: 0xC254, symSize: 0x44 }
  - { offset: 0x1F59F, size: 0x8, addend: 0x0, symName: __RNvNvNvXsa_NtCsgvCG6cIdDjn_13crystal_topos15python_bindingsINtNtNtCs7Qj1RmEtpUo_4pyo35impl_7pyclass20PyClassImplCollectorNtB9_12QuantumStateEINtBY_9PyMethodsB1V_E10py_methods5ITEMSs1_10trampoline, symObjAddr: 0x4858, symBinAddr: 0xC298, symSize: 0x44 }
  - { offset: 0x1F5D9, size: 0x8, addend: 0x0, symName: __RNvNvNvXsa_NtCsgvCG6cIdDjn_13crystal_topos15python_bindingsINtNtNtCs7Qj1RmEtpUo_4pyo35impl_7pyclass20PyClassImplCollectorNtB9_12QuantumStateEINtBY_9PyMethodsB1V_E10py_methods5ITEMSs2_10trampoline, symObjAddr: 0x489C, symBinAddr: 0xC2DC, symSize: 0x44 }
  - { offset: 0x1F613, size: 0x8, addend: 0x0, symName: __RNvNvNvXsa_NtCsgvCG6cIdDjn_13crystal_topos15python_bindingsINtNtNtCs7Qj1RmEtpUo_4pyo35impl_7pyclass20PyClassImplCollectorNtB9_12QuantumStateEINtBY_9PyMethodsB1V_E10py_methods5ITEMSs3_10trampoline, symObjAddr: 0x48E0, symBinAddr: 0xC320, symSize: 0x44 }
  - { offset: 0x1F64D, size: 0x8, addend: 0x0, symName: __RNvNvNvXsa_NtCsgvCG6cIdDjn_13crystal_topos15python_bindingsINtNtNtCs7Qj1RmEtpUo_4pyo35impl_7pyclass20PyClassImplCollectorNtB9_12QuantumStateEINtBY_9PyMethodsB1V_E10py_methods5ITEMSs4_10trampoline, symObjAddr: 0x4924, symBinAddr: 0xC364, symSize: 0x4C }
  - { offset: 0x1F695, size: 0x8, addend: 0x0, symName: __RNvNvNvXsa_NtCsgvCG6cIdDjn_13crystal_topos15python_bindingsINtNtNtCs7Qj1RmEtpUo_4pyo35impl_7pyclass20PyClassImplCollectorNtB9_12QuantumStateEINtBY_9PyMethodsB1V_E10py_methods5ITEMSs5_10trampoline, symObjAddr: 0x4970, symBinAddr: 0xC3B0, symSize: 0x44 }
  - { offset: 0x1F6CF, size: 0x8, addend: 0x0, symName: __RNvNvNvXsa_NtCsgvCG6cIdDjn_13crystal_topos15python_bindingsINtNtNtCs7Qj1RmEtpUo_4pyo35impl_7pyclass20PyClassImplCollectorNtB9_12QuantumStateEINtBY_9PyMethodsB1V_E10py_methods5ITEMSs6_10trampoline, symObjAddr: 0x49B4, symBinAddr: 0xC3F4, symSize: 0x4C }
  - { offset: 0x1F717, size: 0x8, addend: 0x0, symName: __RNvNvNvXsa_NtCsgvCG6cIdDjn_13crystal_topos15python_bindingsINtNtNtCs7Qj1RmEtpUo_4pyo35impl_7pyclass20PyClassImplCollectorNtB9_12QuantumStateEINtBY_9PyMethodsB1V_E10py_methods5ITEMSs7_10trampoline, symObjAddr: 0x4A00, symBinAddr: 0xC440, symSize: 0x44 }
  - { offset: 0x1F751, size: 0x8, addend: 0x0, symName: __RNvNvNvXsa_NtCsgvCG6cIdDjn_13crystal_topos15python_bindingsINtNtNtCs7Qj1RmEtpUo_4pyo35impl_7pyclass20PyClassImplCollectorNtB9_12QuantumStateEINtBY_9PyMethodsB1V_E10py_methods5ITEMSs8_10trampoline, symObjAddr: 0x4A44, symBinAddr: 0xC484, symSize: 0x44 }
  - { offset: 0x1F78B, size: 0x8, addend: 0x0, symName: __RNvNvNvXsa_NtCsgvCG6cIdDjn_13crystal_topos15python_bindingsINtNtNtCs7Qj1RmEtpUo_4pyo35impl_7pyclass20PyClassImplCollectorNtB9_12QuantumStateEINtBY_9PyMethodsB1V_E10py_methods5ITEMSs9_10trampoline, symObjAddr: 0x4A88, symBinAddr: 0xC4C8, symSize: 0x44 }
  - { offset: 0x1F7C5, size: 0x8, addend: 0x0, symName: __RNvNvNvXsa_NtCsgvCG6cIdDjn_13crystal_topos15python_bindingsINtNtNtCs7Qj1RmEtpUo_4pyo35impl_7pyclass20PyClassImplCollectorNtB9_12QuantumStateEINtBY_9PyMethodsB1V_E10py_methods5ITEMSs_10trampoline, symObjAddr: 0x4ACC, symBinAddr: 0xC50C, symSize: 0x44 }
  - { offset: 0x1F7FF, size: 0x8, addend: 0x0, symName: __RNvNvNvXsa_NtCsgvCG6cIdDjn_13crystal_topos15python_bindingsINtNtNtCs7Qj1RmEtpUo_4pyo35impl_7pyclass20PyClassImplCollectorNtB9_12QuantumStateEINtBY_9PyMethodsB1V_E10py_methods5ITEMSsa_10trampoline, symObjAddr: 0x4B10, symBinAddr: 0xC550, symSize: 0x44 }
  - { offset: 0x1F839, size: 0x8, addend: 0x0, symName: __RNvNvNvXsa_NtCsgvCG6cIdDjn_13crystal_topos15python_bindingsINtNtNtCs7Qj1RmEtpUo_4pyo35impl_7pyclass20PyClassImplCollectorNtB9_12QuantumStateEINtBY_9PyMethodsB1V_E10py_methods5ITEMSsb_10trampoline, symObjAddr: 0x4B54, symBinAddr: 0xC594, symSize: 0x44 }
  - { offset: 0x1F873, size: 0x8, addend: 0x0, symName: __RNvNvNvXsa_NtCsgvCG6cIdDjn_13crystal_topos15python_bindingsINtNtNtCs7Qj1RmEtpUo_4pyo35impl_7pyclass20PyClassImplCollectorNtB9_12QuantumStateEINtBY_9PyMethodsB1V_E10py_methods5ITEMSsc_10trampoline, symObjAddr: 0x4B98, symBinAddr: 0xC5D8, symSize: 0x44 }
  - { offset: 0x1F8AD, size: 0x8, addend: 0x0, symName: __RNvNvNvXsa_NtCsgvCG6cIdDjn_13crystal_topos15python_bindingsINtNtNtCs7Qj1RmEtpUo_4pyo35impl_7pyclass20PyClassImplCollectorNtB9_12QuantumStateEINtBY_9PyMethodsB1V_E10py_methods5ITEMSsd_10trampoline, symObjAddr: 0x4BDC, symBinAddr: 0xC61C, symSize: 0x4C }
  - { offset: 0x1F8F5, size: 0x8, addend: 0x0, symName: __RNvNvNvXsa_NtCsgvCG6cIdDjn_13crystal_topos15python_bindingsINtNtNtCs7Qj1RmEtpUo_4pyo35impl_7pyclass20PyClassImplCollectorNtB9_12QuantumStateEINtBY_9PyMethodsB1V_E10py_methods5ITEMSse_10trampoline, symObjAddr: 0x4C28, symBinAddr: 0xC668, symSize: 0x44 }
  - { offset: 0x1F92F, size: 0x8, addend: 0x0, symName: __RNvNvNvXsa_NtCsgvCG6cIdDjn_13crystal_topos15python_bindingsINtNtNtCs7Qj1RmEtpUo_4pyo35impl_7pyclass20PyClassImplCollectorNtB9_12QuantumStateEINtBY_9PyMethodsB1V_E10py_methods5ITEMSsf_10trampoline, symObjAddr: 0x4C6C, symBinAddr: 0xC6AC, symSize: 0x44 }
  - { offset: 0x1F969, size: 0x8, addend: 0x0, symName: __RNvNvNvXsa_NtCsgvCG6cIdDjn_13crystal_topos15python_bindingsINtNtNtCs7Qj1RmEtpUo_4pyo35impl_7pyclass20PyClassImplCollectorNtB9_12QuantumStateEINtBY_9PyMethodsB1V_E10py_methods5ITEMSsg_10trampoline, symObjAddr: 0x4CB0, symBinAddr: 0xC6F0, symSize: 0x44 }
  - { offset: 0x1F9A3, size: 0x8, addend: 0x0, symName: __RNvNvNvXsa_NtCsgvCG6cIdDjn_13crystal_topos15python_bindingsINtNtNtCs7Qj1RmEtpUo_4pyo35impl_7pyclass20PyClassImplCollectorNtB9_12QuantumStateEINtBY_9PyMethodsB1V_E10py_methods5ITEMSsh_10trampoline, symObjAddr: 0x4CF4, symBinAddr: 0xC734, symSize: 0x4C }
  - { offset: 0x1F9EB, size: 0x8, addend: 0x0, symName: __RNvNvNvXsa_NtCsgvCG6cIdDjn_13crystal_topos15python_bindingsINtNtNtCs7Qj1RmEtpUo_4pyo35impl_7pyclass20PyClassImplCollectorNtB9_12QuantumStateEINtBY_9PyMethodsB1V_E10py_methods5ITEMSsi_10trampoline, symObjAddr: 0x4D40, symBinAddr: 0xC780, symSize: 0x44 }
  - { offset: 0x1FA25, size: 0x8, addend: 0x0, symName: __RNvNvNvXsa_NtCsgvCG6cIdDjn_13crystal_topos15python_bindingsINtNtNtCs7Qj1RmEtpUo_4pyo35impl_7pyclass20PyClassImplCollectorNtB9_12QuantumStateEINtBY_9PyMethodsB1V_E10py_methods5ITEMSsj_10trampoline, symObjAddr: 0x4D84, symBinAddr: 0xC7C4, symSize: 0x3C }
  - { offset: 0x1FA54, size: 0x8, addend: 0x0, symName: __RNvNtCsgvCG6cIdDjn_13crystal_topos15python_bindings13crystal_kappa, symObjAddr: 0x3320, symBinAddr: 0xAD60, symSize: 0x14 }
  - { offset: 0x1FA71, size: 0x8, addend: 0x0, symName: __RNvNtCsgvCG6cIdDjn_13crystal_topos15python_bindings13crystal_topos, symObjAddr: 0x3334, symBinAddr: 0xAD74, symSize: 0xD64 }
  - { offset: 0x20020, size: 0x8, addend: 0x0, symName: __RNvNtCsgvCG6cIdDjn_13crystal_topos15python_bindings16___pyfunction_chi, symObjAddr: 0x4098, symBinAddr: 0xBAD8, symSize: 0x4C }
  - { offset: 0x200BC, size: 0x8, addend: 0x0, symName: __RNvNtCsgvCG6cIdDjn_13crystal_topos15python_bindings16___pyfunction_n_c, symObjAddr: 0x40E4, symBinAddr: 0xBB24, symSize: 0x4C }
  - { offset: 0x20158, size: 0x8, addend: 0x0, symName: __RNvNtCsgvCG6cIdDjn_13crystal_topos15python_bindings16___pyfunction_n_w, symObjAddr: 0x4130, symBinAddr: 0xBB70, symSize: 0x4C }
  - { offset: 0x201F4, size: 0x8, addend: 0x0, symName: __RNvNtCsgvCG6cIdDjn_13crystal_topos15python_bindings16crystal_energies, symObjAddr: 0x417C, symBinAddr: 0xBBBC, symSize: 0x3C }
  - { offset: 0x20211, size: 0x8, addend: 0x0, symName: __RNvNtCsgvCG6cIdDjn_13crystal_topos15python_bindings18___pyfunction_beta0, symObjAddr: 0x41B8, symBinAddr: 0xBBF8, symSize: 0x4C }
  - { offset: 0x202AD, size: 0x8, addend: 0x0, symName: __RNvNtCsgvCG6cIdDjn_13crystal_topos15python_bindings18___pyfunction_gauss, symObjAddr: 0x4204, symBinAddr: 0xBC44, symSize: 0x4C }
  - { offset: 0x20349, size: 0x8, addend: 0x0, symName: __RNvNtCsgvCG6cIdDjn_13crystal_topos15python_bindings19crystal_max_entropy, symObjAddr: 0x4250, symBinAddr: 0xBC90, symSize: 0x14 }
  - { offset: 0x20366, size: 0x8, addend: 0x0, symName: __RNvNtCsgvCG6cIdDjn_13crystal_topos15python_bindings20___pyfunction_d_total, symObjAddr: 0x4264, symBinAddr: 0xBCA4, symSize: 0x4C }
  - { offset: 0x20402, size: 0x8, addend: 0x0, symName: __RNvNtCsgvCG6cIdDjn_13crystal_topos15python_bindings20___pyfunction_sigma_d, symObjAddr: 0x42B0, symBinAddr: 0xBCF0, symSize: 0x4C }
  - { offset: 0x2049E, size: 0x8, addend: 0x0, symName: __RNvNtCsgvCG6cIdDjn_13crystal_topos15python_bindings21___pyfunction_sigma_d2, symObjAddr: 0x42FC, symBinAddr: 0xBD3C, symSize: 0x4C }
  - { offset: 0x2053A, size: 0x8, addend: 0x0, symName: __RNvNtCsgvCG6cIdDjn_13crystal_topos15python_bindings26___pyfunction_crystal_kappa, symObjAddr: 0x4348, symBinAddr: 0xBD88, symSize: 0x4C }
  - { offset: 0x205D6, size: 0x8, addend: 0x0, symName: __RNvNtCsgvCG6cIdDjn_13crystal_topos15python_bindings29___pyfunction_crystal_energies, symObjAddr: 0x4394, symBinAddr: 0xBDD4, symSize: 0x6C }
  - { offset: 0x20672, size: 0x8, addend: 0x0, symName: __RNvNtCsgvCG6cIdDjn_13crystal_topos15python_bindings32___pyfunction_crystal_max_entropy, symObjAddr: 0x4400, symBinAddr: 0xBE40, symSize: 0x4C }
  - { offset: 0x2070E, size: 0x8, addend: 0x0, symName: __RNvNtCsgvCG6cIdDjn_13crystal_topos15python_bindings3chi, symObjAddr: 0x444C, symBinAddr: 0xBE8C, symSize: 0xC }
  - { offset: 0x2072B, size: 0x8, addend: 0x0, symName: __RNvNtCsgvCG6cIdDjn_13crystal_topos15python_bindings3n_c, symObjAddr: 0x4458, symBinAddr: 0xBE98, symSize: 0xC }
  - { offset: 0x20748, size: 0x8, addend: 0x0, symName: __RNvNtCsgvCG6cIdDjn_13crystal_topos15python_bindings3n_w, symObjAddr: 0x4464, symBinAddr: 0xBEA4, symSize: 0xC }
  - { offset: 0x20765, size: 0x8, addend: 0x0, symName: __RNvNtCsgvCG6cIdDjn_13crystal_topos15python_bindings5beta0, symObjAddr: 0x4470, symBinAddr: 0xBEB0, symSize: 0xC }
  - { offset: 0x20782, size: 0x8, addend: 0x0, symName: __RNvNtCsgvCG6cIdDjn_13crystal_topos15python_bindings5gauss, symObjAddr: 0x447C, symBinAddr: 0xBEBC, symSize: 0xC }
  - { offset: 0x2079F, size: 0x8, addend: 0x0, symName: __RNvNtCsgvCG6cIdDjn_13crystal_topos15python_bindings7d_total, symObjAddr: 0x4488, symBinAddr: 0xBEC8, symSize: 0xC }
  - { offset: 0x207BC, size: 0x8, addend: 0x0, symName: __RNvNtCsgvCG6cIdDjn_13crystal_topos15python_bindings7sigma_d, symObjAddr: 0x4494, symBinAddr: 0xBED4, symSize: 0xC }
  - { offset: 0x207D9, size: 0x8, addend: 0x0, symName: __RNvNtCsgvCG6cIdDjn_13crystal_topos15python_bindings8sigma_d2, symObjAddr: 0x44A0, symBinAddr: 0xBEE0, symSize: 0xC }
  - { offset: 0x20800, size: 0x8, addend: 0x0, symName: __RNvNvMsc_NtCsgvCG6cIdDjn_13crystal_topos15python_bindingsNtNtB7_3n_w7MakeDef9__PYO3_DEF10trampoline, symObjAddr: 0x44AC, symBinAddr: 0xBEEC, symSize: 0x44 }
  - { offset: 0x20846, size: 0x8, addend: 0x0, symName: __RNvNvMsd_NtCsgvCG6cIdDjn_13crystal_topos15python_bindingsNtNtB7_3n_c7MakeDef9__PYO3_DEF10trampoline, symObjAddr: 0x44F0, symBinAddr: 0xBF30, symSize: 0x44 }
  - { offset: 0x2088C, size: 0x8, addend: 0x0, symName: __RNvNvMse_NtCsgvCG6cIdDjn_13crystal_topos15python_bindingsNtNtB7_3chi7MakeDef9__PYO3_DEF10trampoline, symObjAddr: 0x4534, symBinAddr: 0xBF74, symSize: 0x44 }
  - { offset: 0x208D2, size: 0x8, addend: 0x0, symName: __RNvNvMsf_NtCsgvCG6cIdDjn_13crystal_topos15python_bindingsNtNtB7_5beta07MakeDef9__PYO3_DEF10trampoline, symObjAddr: 0x4578, symBinAddr: 0xBFB8, symSize: 0x44 }
  - { offset: 0x20918, size: 0x8, addend: 0x0, symName: __RNvNvMsg_NtCsgvCG6cIdDjn_13crystal_topos15python_bindingsNtNtB7_7sigma_d7MakeDef9__PYO3_DEF10trampoline, symObjAddr: 0x45BC, symBinAddr: 0xBFFC, symSize: 0x44 }
  - { offset: 0x2095E, size: 0x8, addend: 0x0, symName: __RNvNvMsh_NtCsgvCG6cIdDjn_13crystal_topos15python_bindingsNtNtB7_8sigma_d27MakeDef9__PYO3_DEF10trampoline, symObjAddr: 0x4600, symBinAddr: 0xC040, symSize: 0x44 }
  - { offset: 0x209A4, size: 0x8, addend: 0x0, symName: __RNvNvMsi_NtCsgvCG6cIdDjn_13crystal_topos15python_bindingsNtNtB7_5gauss7MakeDef9__PYO3_DEF10trampoline, symObjAddr: 0x4644, symBinAddr: 0xC084, symSize: 0x44 }
  - { offset: 0x209EA, size: 0x8, addend: 0x0, symName: __RNvNvMsj_NtCsgvCG6cIdDjn_13crystal_topos15python_bindingsNtNtB7_7d_total7MakeDef9__PYO3_DEF10trampoline, symObjAddr: 0x4688, symBinAddr: 0xC0C8, symSize: 0x44 }
  - { offset: 0x20A30, size: 0x8, addend: 0x0, symName: __RNvNvMsk_NtCsgvCG6cIdDjn_13crystal_topos15python_bindingsNtNtB7_13crystal_kappa7MakeDef9__PYO3_DEF10trampoline, symObjAddr: 0x46CC, symBinAddr: 0xC10C, symSize: 0x44 }
  - { offset: 0x20A76, size: 0x8, addend: 0x0, symName: __RNvNvMsl_NtCsgvCG6cIdDjn_13crystal_topos15python_bindingsNtNtB7_19crystal_max_entropy7MakeDef9__PYO3_DEF10trampoline, symObjAddr: 0x4710, symBinAddr: 0xC150, symSize: 0x44 }
  - { offset: 0x20ABC, size: 0x8, addend: 0x0, symName: __RNvNvMsm_NtCsgvCG6cIdDjn_13crystal_topos15python_bindingsNtNtB7_16crystal_energies7MakeDef9__PYO3_DEF10trampoline, symObjAddr: 0x4754, symBinAddr: 0xC194, symSize: 0x44 }
  - { offset: 0x20B02, size: 0x8, addend: 0x0, symName: __RNvNvMsn_NtCsgvCG6cIdDjn_13crystal_topos15python_bindingsNtNtB7_13crystal_topos7MakeDef8make_def15___pyo3_pymodule, symObjAddr: 0x4798, symBinAddr: 0xC1D8, symSize: 0x38 }
  - { offset: 0x20B35, size: 0x8, addend: 0x0, symName: __RNvXs3_NtCsgvCG6cIdDjn_13crystal_topos15python_bindingsNtB5_12QuantumStateINtNtCs7Qj1RmEtpUo_4pyo310conversion6IntoPyINtNtB1f_8instance2PyNtNtNtB1f_5types3any5PyAnyEE7into_py, symObjAddr: 0x4DC0, symBinAddr: 0xC800, symSize: 0xB8 }
  - { offset: 0x20BB8, size: 0x8, addend: 0x0, symName: __RNvXs_NtCsgvCG6cIdDjn_13crystal_topos15python_bindingsNtB4_12QuantumStateNtNtCs7Qj1RmEtpUo_4pyo311type_object10PyTypeInfo15type_object_rawB6_, symObjAddr: 0x4EF8, symBinAddr: 0xC938, symSize: 0x24 }
  - { offset: 0x21138, size: 0x8, addend: 0x0, symName: __RNvMs9_NtCsgvCG6cIdDjn_13crystal_topos15python_bindingsNtB5_12QuantumState10annihilate, symObjAddr: 0x0, symBinAddr: 0x7A40, symSize: 0x31C }
  - { offset: 0x211B8, size: 0x8, addend: 0x0, symName: __RNvMs9_NtCsgvCG6cIdDjn_13crystal_topos15python_bindingsNtB5_12QuantumState11concurrence, symObjAddr: 0x31C, symBinAddr: 0x7D5C, symSize: 0x24 }
  - { offset: 0x211DA, size: 0x8, addend: 0x0, symName: __RNvMs9_NtCsgvCG6cIdDjn_13crystal_topos15python_bindingsNtB5_12QuantumState12sector_probs, symObjAddr: 0x340, symBinAddr: 0x7D80, symSize: 0x24 }
  - { offset: 0x211FC, size: 0x8, addend: 0x0, symName: __RNvMs9_NtCsgvCG6cIdDjn_13crystal_topos15python_bindingsNtB5_12QuantumState13max_entangled, symObjAddr: 0x364, symBinAddr: 0x7DA4, symSize: 0x38 }
  - { offset: 0x2120F, size: 0x8, addend: 0x0, symName: __RNvMs9_NtCsgvCG6cIdDjn_13crystal_topos15python_bindingsNtB5_12QuantumState13superposition, symObjAddr: 0x39C, symBinAddr: 0x7DDC, symSize: 0x40 }
  - { offset: 0x21222, size: 0x8, addend: 0x0, symName: __RNvMs9_NtCsgvCG6cIdDjn_13crystal_topos15python_bindingsNtB5_12QuantumState20entanglement_entropy, symObjAddr: 0x3DC, symBinAddr: 0x7E1C, symSize: 0x24 }
  - { offset: 0x21244, size: 0x8, addend: 0x0, symName: __RNvMs9_NtCsgvCG6cIdDjn_13crystal_topos15python_bindingsNtB5_12QuantumState3dim, symObjAddr: 0x400, symBinAddr: 0x7E40, symSize: 0x24 }
  - { offset: 0x21266, size: 0x8, addend: 0x0, symName: __RNvMs9_NtCsgvCG6cIdDjn_13crystal_topos15python_bindingsNtB5_12QuantumState3qft, symObjAddr: 0x424, symBinAddr: 0x7E64, symSize: 0x40 }
  - { offset: 0x21288, size: 0x8, addend: 0x0, symName: __RNvMs9_NtCsgvCG6cIdDjn_13crystal_topos15python_bindingsNtB5_12QuantumState4bell, symObjAddr: 0x464, symBinAddr: 0x7EA4, symSize: 0x40 }
  - { offset: 0x212B8, size: 0x8, addend: 0x0, symName: __RNvMs9_NtCsgvCG6cIdDjn_13crystal_topos15python_bindingsNtB5_12QuantumState4prob, symObjAddr: 0x4A4, symBinAddr: 0x7EE4, symSize: 0x28 }
  - { offset: 0x212E8, size: 0x8, addend: 0x0, symName: __RNvMs9_NtCsgvCG6cIdDjn_13crystal_topos15python_bindingsNtB5_12QuantumState4weak, symObjAddr: 0x4CC, symBinAddr: 0x7F0C, symSize: 0x48 }
  - { offset: 0x212FB, size: 0x8, addend: 0x0, symName: __RNvMs9_NtCsgvCG6cIdDjn_13crystal_topos15python_bindingsNtB5_12QuantumState5mixed, symObjAddr: 0x514, symBinAddr: 0x7F54, symSize: 0x48 }
  - { offset: 0x2130E, size: 0x8, addend: 0x0, symName: __RNvMs9_NtCsgvCG6cIdDjn_13crystal_topos15python_bindingsNtB5_12QuantumState5probs, symObjAddr: 0x55C, symBinAddr: 0x7F9C, symSize: 0x24 }
  - { offset: 0x21330, size: 0x8, addend: 0x0, symName: __RNvMs9_NtCsgvCG6cIdDjn_13crystal_topos15python_bindingsNtB5_12QuantumState6colour, symObjAddr: 0x580, symBinAddr: 0x7FC0, symSize: 0x48 }
  - { offset: 0x21343, size: 0x8, addend: 0x0, symName: __RNvMs9_NtCsgvCG6cIdDjn_13crystal_topos15python_bindingsNtB5_12QuantumState6create, symObjAddr: 0x5C8, symBinAddr: 0x8008, symSize: 0x300 }
  - { offset: 0x213C3, size: 0x8, addend: 0x0, symName: __RNvMs9_NtCsgvCG6cIdDjn_13crystal_topos15python_bindingsNtB5_12QuantumState6evolve, symObjAddr: 0x8C8, symBinAddr: 0x8308, symSize: 0x218 }
  - { offset: 0x21468, size: 0x8, addend: 0x0, symName: __RNvMs9_NtCsgvCG6cIdDjn_13crystal_topos15python_bindingsNtB5_12QuantumState6grover, symObjAddr: 0xAE0, symBinAddr: 0x8520, symSize: 0x50 }
  - { offset: 0x21498, size: 0x8, addend: 0x0, symName: __RNvMs9_NtCsgvCG6cIdDjn_13crystal_topos15python_bindingsNtB5_12QuantumState7entropy, symObjAddr: 0xB30, symBinAddr: 0x8570, symSize: 0x24 }
  - { offset: 0x214BA, size: 0x8, addend: 0x0, symName: __RNvMs9_NtCsgvCG6cIdDjn_13crystal_topos15python_bindingsNtB5_12QuantumState7singlet, symObjAddr: 0xB54, symBinAddr: 0x8594, symSize: 0x44 }
  - { offset: 0x214CD, size: 0x8, addend: 0x0, symName: __RNvMs9_NtCsgvCG6cIdDjn_13crystal_topos15python_bindingsNtB5_12QuantumState8___repr__, symObjAddr: 0xB98, symBinAddr: 0x85D8, symSize: 0xB0 }
  - { offset: 0x21547, size: 0x8, addend: 0x0, symName: __RNvMs9_NtCsgvCG6cIdDjn_13crystal_topos15python_bindingsNtB5_12QuantumState8hadamard, symObjAddr: 0xC48, symBinAddr: 0x8688, symSize: 0xA0 }
  - { offset: 0x21570, size: 0x8, addend: 0x0, symName: __RNvMs9_NtCsgvCG6cIdDjn_13crystal_topos15python_bindingsNtB5_12QuantumState8ppt_test, symObjAddr: 0xCE8, symBinAddr: 0x8728, symSize: 0x24 }
  - { offset: 0x21592, size: 0x8, addend: 0x0, symName: __RNvMsb_NtCsgvCG6cIdDjn_13crystal_topos15python_bindingsNtB5_12QuantumState16___pymethod_dim__, symObjAddr: 0xD0C, symBinAddr: 0x874C, symSize: 0x1B0 }
  - { offset: 0x21680, size: 0x8, addend: 0x0, symName: __RNvMsb_NtCsgvCG6cIdDjn_13crystal_topos15python_bindingsNtB5_12QuantumState16___pymethod_qft__, symObjAddr: 0xEBC, symBinAddr: 0x88FC, symSize: 0x1FC }
  - { offset: 0x2175E, size: 0x8, addend: 0x0, symName: __RNvMsb_NtCsgvCG6cIdDjn_13crystal_topos15python_bindingsNtB5_12QuantumState17___pymethod_bell__, symObjAddr: 0x10B8, symBinAddr: 0x8AF8, symSize: 0x374 }
  - { offset: 0x21900, size: 0x8, addend: 0x0, symName: __RNvMsb_NtCsgvCG6cIdDjn_13crystal_topos15python_bindingsNtB5_12QuantumState17___pymethod_prob__, symObjAddr: 0x142C, symBinAddr: 0x8E6C, symSize: 0x330 }
  - { offset: 0x21A9A, size: 0x8, addend: 0x0, symName: __RNvMsb_NtCsgvCG6cIdDjn_13crystal_topos15python_bindingsNtB5_12QuantumState17___pymethod_weak__, symObjAddr: 0x175C, symBinAddr: 0x919C, symSize: 0x6C }
  - { offset: 0x21B2C, size: 0x8, addend: 0x0, symName: __RNvMsb_NtCsgvCG6cIdDjn_13crystal_topos15python_bindingsNtB5_12QuantumState18___pymethod_mixed__, symObjAddr: 0x17C8, symBinAddr: 0x9208, symSize: 0x6C }
  - { offset: 0x21BBE, size: 0x8, addend: 0x0, symName: __RNvMsb_NtCsgvCG6cIdDjn_13crystal_topos15python_bindingsNtB5_12QuantumState18___pymethod_probs__, symObjAddr: 0x1834, symBinAddr: 0x9274, symSize: 0x1FC }
  - { offset: 0x21C9C, size: 0x8, addend: 0x0, symName: __RNvMsb_NtCsgvCG6cIdDjn_13crystal_topos15python_bindingsNtB5_12QuantumState19___pymethod_colour__, symObjAddr: 0x1A30, symBinAddr: 0x9470, symSize: 0x6C }
  - { offset: 0x21D2E, size: 0x8, addend: 0x0, symName: __RNvMsb_NtCsgvCG6cIdDjn_13crystal_topos15python_bindingsNtB5_12QuantumState19___pymethod_create__, symObjAddr: 0x1A9C, symBinAddr: 0x94DC, symSize: 0x1FC }
  - { offset: 0x21E0C, size: 0x8, addend: 0x0, symName: __RNvMsb_NtCsgvCG6cIdDjn_13crystal_topos15python_bindingsNtB5_12QuantumState19___pymethod_evolve__, symObjAddr: 0x1C98, symBinAddr: 0x96D8, symSize: 0x38C }
  - { offset: 0x21F9E, size: 0x8, addend: 0x0, symName: __RNvMsb_NtCsgvCG6cIdDjn_13crystal_topos15python_bindingsNtB5_12QuantumState19___pymethod_grover__, symObjAddr: 0x2024, symBinAddr: 0x9A64, symSize: 0x38C }
  - { offset: 0x22130, size: 0x8, addend: 0x0, symName: __RNvMsb_NtCsgvCG6cIdDjn_13crystal_topos15python_bindingsNtB5_12QuantumState20___pymethod_entropy__, symObjAddr: 0x23B0, symBinAddr: 0x9DF0, symSize: 0x1B0 }
  - { offset: 0x2221E, size: 0x8, addend: 0x0, symName: __RNvMsb_NtCsgvCG6cIdDjn_13crystal_topos15python_bindingsNtB5_12QuantumState20___pymethod_singlet__, symObjAddr: 0x2560, symBinAddr: 0x9FA0, symSize: 0x6C }
  - { offset: 0x222B0, size: 0x8, addend: 0x0, symName: __RNvMsb_NtCsgvCG6cIdDjn_13crystal_topos15python_bindingsNtB5_12QuantumState21___pymethod___repr____, symObjAddr: 0x25CC, symBinAddr: 0xA00C, symSize: 0x178 }
  - { offset: 0x22369, size: 0x8, addend: 0x0, symName: __RNvMsb_NtCsgvCG6cIdDjn_13crystal_topos15python_bindingsNtB5_12QuantumState21___pymethod_hadamard__, symObjAddr: 0x2744, symBinAddr: 0xA184, symSize: 0x1FC }
  - { offset: 0x22447, size: 0x8, addend: 0x0, symName: __RNvMsb_NtCsgvCG6cIdDjn_13crystal_topos15python_bindingsNtB5_12QuantumState21___pymethod_ppt_test__, symObjAddr: 0x2940, symBinAddr: 0xA380, symSize: 0x1B0 }
  - { offset: 0x22535, size: 0x8, addend: 0x0, symName: __RNvMsb_NtCsgvCG6cIdDjn_13crystal_topos15python_bindingsNtB5_12QuantumState23___pymethod_annihilate__, symObjAddr: 0x2AF0, symBinAddr: 0xA530, symSize: 0x1FC }
  - { offset: 0x22613, size: 0x8, addend: 0x0, symName: __RNvMsb_NtCsgvCG6cIdDjn_13crystal_topos15python_bindingsNtB5_12QuantumState24___pymethod_concurrence__, symObjAddr: 0x2CEC, symBinAddr: 0xA72C, symSize: 0x1B0 }
  - { offset: 0x22701, size: 0x8, addend: 0x0, symName: __RNvMsb_NtCsgvCG6cIdDjn_13crystal_topos15python_bindingsNtB5_12QuantumState25___pymethod_sector_probs__, symObjAddr: 0x2E9C, symBinAddr: 0xA8DC, symSize: 0x1FC }
  - { offset: 0x227DF, size: 0x8, addend: 0x0, symName: __RNvMsb_NtCsgvCG6cIdDjn_13crystal_topos15python_bindingsNtB5_12QuantumState26___pymethod_max_entangled__, symObjAddr: 0x3098, symBinAddr: 0xAAD8, symSize: 0x6C }
  - { offset: 0x22871, size: 0x8, addend: 0x0, symName: __RNvMsb_NtCsgvCG6cIdDjn_13crystal_topos15python_bindingsNtB5_12QuantumState26___pymethod_superposition__, symObjAddr: 0x3104, symBinAddr: 0xAB44, symSize: 0x6C }
  - { offset: 0x22903, size: 0x8, addend: 0x0, symName: __RNvMsb_NtCsgvCG6cIdDjn_13crystal_topos15python_bindingsNtB5_12QuantumState33___pymethod_entanglement_entropy__, symObjAddr: 0x3170, symBinAddr: 0xABB0, symSize: 0x1B0 }
  - { offset: 0x22D1A, size: 0x8, addend: 0x0, symName: __RNvNtCsgh2hkQkDkI2_8pyo3_ffi10boolobject7Py_TrueCsgvCG6cIdDjn_13crystal_topos, symObjAddr: 0x0, symBinAddr: 0xC95C, symSize: 0xC }
  - { offset: 0x22D31, size: 0x8, addend: 0x0, symName: __RNvNtCsgh2hkQkDkI2_8pyo3_ffi10boolobject7Py_TrueCsgvCG6cIdDjn_13crystal_topos, symObjAddr: 0x0, symBinAddr: 0xC95C, symSize: 0xC }
  - { offset: 0x22D4E, size: 0x8, addend: 0x0, symName: __RNvNtCsgh2hkQkDkI2_8pyo3_ffi10boolobject8Py_FalseCsgvCG6cIdDjn_13crystal_topos, symObjAddr: 0xC, symBinAddr: 0xC968, symSize: 0xC }
  - { offset: 0x22E35, size: 0x8, addend: 0x0, symName: __RNvNtCsgh2hkQkDkI2_8pyo3_ffi6object18PyObject_TypeCheckCsgvCG6cIdDjn_13crystal_topos, symObjAddr: 0x0, symBinAddr: 0xC974, symSize: 0x74 }
  - { offset: 0x22E6A, size: 0x8, addend: 0x0, symName: __RNvNtCsgh2hkQkDkI2_8pyo3_ffi6object18PyObject_TypeCheckCsgvCG6cIdDjn_13crystal_topos, symObjAddr: 0x0, symBinAddr: 0xC974, symSize: 0x74 }
  - { offset: 0x22EA7, size: 0x8, addend: 0x0, symName: __RNvNtCsgh2hkQkDkI2_8pyo3_ffi6object7Py_TYPECsgvCG6cIdDjn_13crystal_topos, symObjAddr: 0x74, symBinAddr: 0xC9E8, symSize: 0x74 }
  - { offset: 0x22F3F, size: 0x8, addend: 0x0, symName: __RNvXNtCs7Qj1RmEtpUo_4pyo311ffi_ptr_extONtNtCsgh2hkQkDkI2_8pyo3_ffi6object8PyObjectNtB2_9FfiPtrExt12assume_ownedCsgvCG6cIdDjn_13crystal_topos, symObjAddr: 0xE8, symBinAddr: 0xCA5C, symSize: 0x24 }
  - { offset: 0x22F84, size: 0x8, addend: 0x0, symName: __RNvXNtCs7Qj1RmEtpUo_4pyo311ffi_ptr_extONtNtCsgh2hkQkDkI2_8pyo3_ffi6object8PyObjectNtB2_9FfiPtrExt15assume_borrowedCsgvCG6cIdDjn_13crystal_topos, symObjAddr: 0x10C, symBinAddr: 0xCA80, symSize: 0x24 }
  - { offset: 0x22FC9, size: 0x8, addend: 0x0, symName: __RNvXNtCs7Qj1RmEtpUo_4pyo311ffi_ptr_extONtNtCsgh2hkQkDkI2_8pyo3_ffi6object8PyObjectNtB2_9FfiPtrExt22assume_borrowed_or_optCsgvCG6cIdDjn_13crystal_topos, symObjAddr: 0x130, symBinAddr: 0xCAA4, symSize: 0x24 }
  - { offset: 0x2300E, size: 0x8, addend: 0x0, symName: __RNvXNtCs7Qj1RmEtpUo_4pyo311ffi_ptr_extONtNtCsgh2hkQkDkI2_8pyo3_ffi6object8PyObjectNtB2_9FfiPtrExt25assume_borrowed_uncheckedCsgvCG6cIdDjn_13crystal_topos, symObjAddr: 0x154, symBinAddr: 0xCAC8, symSize: 0x24 }
  - { offset: 0x233B5, size: 0x8, addend: 0x0, symName: __RINvMNtCs7dfkhshTrE4_4core6resultINtB3_6ResultIBw_uNtNtCs7Qj1RmEtpUo_4pyo33err5PyErrEINtNtCs2iVXuAemrgm_5alloc5boxed3BoxDNtNtB5_3any3AnyNtNtB5_6marker4SendEL_EE14unwrap_or_elseNCINvNtNtBR_5impl_10trampoline21trampoline_unraisableNCNvB2T_7dealloc0Es_0ECsgvCG6cIdDjn_13crystal_topos, symObjAddr: 0x0, symBinAddr: 0xCAEC, symSize: 0x74 }
  - { offset: 0x2438A, size: 0x8, addend: 0x0, symName: __RNvXsp_NtCs7dfkhshTrE4_4core6resultINtB5_6ResultINtNtCs2iVXuAemrgm_5alloc6borrow3CowNtNtNtB7_3ffi5c_str4CStrENtNtCs7Qj1RmEtpUo_4pyo33err5PyErrENtNtNtB7_3ops9try_trait3Try6branchCsgvCG6cIdDjn_13crystal_topos, symObjAddr: 0x784, symBinAddr: 0xD270, symSize: 0x94 }
  - { offset: 0x24407, size: 0x8, addend: 0x0, symName: __RNvXsp_NtCs7dfkhshTrE4_4core6resultINtB5_6ResultINtNtCs7Qj1RmEtpUo_4pyo36pycell5PyRefNtNtCsgvCG6cIdDjn_13crystal_topos15python_bindings12QuantumStateENtNtBP_3err5PyErrENtNtNtB7_3ops9try_trait3Try6branchB1p_, symObjAddr: 0x818, symBinAddr: 0xD304, symSize: 0x80 }
  - { offset: 0x24485, size: 0x8, addend: 0x0, symName: __RNvXsp_NtCs7dfkhshTrE4_4core6resultINtB5_6ResultONtNtCsgh2hkQkDkI2_8pyo3_ffi6object8PyObjectNtNtCs7Qj1RmEtpUo_4pyo33err5PyErrENtNtNtB7_3ops9try_trait3Try6branchCsgvCG6cIdDjn_13crystal_topos, symObjAddr: 0x898, symBinAddr: 0xD384, symSize: 0x80 }
  - { offset: 0x24503, size: 0x8, addend: 0x0, symName: __RNvXsp_NtCs7dfkhshTrE4_4core6resultINtB5_6ResultRINtNtCs7Qj1RmEtpUo_4pyo38instance5BoundNtNtCsgvCG6cIdDjn_13crystal_topos15python_bindings12QuantumStateENtNtBQ_3err13DowncastErrorENtNtNtB7_3ops9try_trait3Try6branchB1s_, symObjAddr: 0x918, symBinAddr: 0xD404, symSize: 0x88 }
  - { offset: 0x24581, size: 0x8, addend: 0x0, symName: __RNvXsp_NtCs7dfkhshTrE4_4core6resultINtB5_6ResultRINtNtCs7Qj1RmEtpUo_4pyo38instance5BoundNtNtNtBQ_5types10typeobject6PyTypeENtNtBQ_3err5PyErrENtNtNtB7_3ops9try_trait3Try6branchCsgvCG6cIdDjn_13crystal_topos, symObjAddr: 0x9A0, symBinAddr: 0xD48C, symSize: 0x80 }
  - { offset: 0x245FF, size: 0x8, addend: 0x0, symName: __RNvXsp_NtCs7dfkhshTrE4_4core6resultINtB5_6ResultRNtNtCsgvCG6cIdDjn_13crystal_topos15python_bindings12QuantumStateNtNtCs7Qj1RmEtpUo_4pyo33err5PyErrENtNtNtB7_3ops9try_trait3Try6branchBP_, symObjAddr: 0xA20, symBinAddr: 0xD50C, symSize: 0x80 }
  - { offset: 0x2467D, size: 0x8, addend: 0x0, symName: __RNvXsp_NtCs7dfkhshTrE4_4core6resultINtB5_6ResultRNtNtNtB7_3ffi5c_str4CStrNtNtCs7Qj1RmEtpUo_4pyo33err5PyErrENtNtNtB7_3ops9try_trait3Try6branchCsgvCG6cIdDjn_13crystal_topos, symObjAddr: 0xAA0, symBinAddr: 0xD58C, symSize: 0x8C }
  - { offset: 0x246FB, size: 0x8, addend: 0x0, symName: __RNvXsp_NtCs7dfkhshTrE4_4core6resultINtB5_6ResultTuuENtNtCs7Qj1RmEtpUo_4pyo33err5PyErrENtNtNtB7_3ops9try_trait3Try6branchCsgvCG6cIdDjn_13crystal_topos, symObjAddr: 0xB2C, symBinAddr: 0xD618, symSize: 0x70 }
  - { offset: 0x2477F, size: 0x8, addend: 0x0, symName: __RNvXsq_NtCs7dfkhshTrE4_4core6resultINtB5_6ResultINtNtCs7Qj1RmEtpUo_4pyo36pycell5PyRefNtNtCsgvCG6cIdDjn_13crystal_topos15python_bindings12QuantumStateENtNtBP_3err5PyErrEINtNtNtB7_3ops9try_trait12FromResidualIBy_NtNtB7_7convert10InfallibleNtB2q_13DowncastErrorEE13from_residualB1p_, symObjAddr: 0xB9C, symBinAddr: 0xD688, symSize: 0x58 }
  - { offset: 0x247E7, size: 0x8, addend: 0x0, symName: __RNvXsq_NtCs7dfkhshTrE4_4core6resultINtB5_6ResultINtNtCs7Qj1RmEtpUo_4pyo38instance5BoundNtNtCsgvCG6cIdDjn_13crystal_topos15python_bindings12QuantumStateENtNtBP_3err5PyErrEINtNtNtB7_3ops9try_trait12FromResidualIBy_NtNtB7_7convert10InfallibleB2q_EE13from_residualB1r_, symObjAddr: 0xBF4, symBinAddr: 0xD6E0, symSize: 0x48 }
  - { offset: 0x2486C, size: 0x8, addend: 0x0, symName: __RNvXsq_NtCs7dfkhshTrE4_4core6resultINtB5_6ResultONtNtCsgh2hkQkDkI2_8pyo3_ffi6object8PyObjectNtNtCs7Qj1RmEtpUo_4pyo33err5PyErrEINtNtNtB7_3ops9try_trait12FromResidualIBy_NtNtB7_7convert10InfallibleB1s_EE13from_residualCsgvCG6cIdDjn_13crystal_topos, symObjAddr: 0xC3C, symBinAddr: 0xD728, symSize: 0x48 }
  - { offset: 0x248F1, size: 0x8, addend: 0x0, symName: __RNvXsq_NtCs7dfkhshTrE4_4core6resultINtB5_6ResultRINtNtCs2iVXuAemrgm_5alloc6borrow3CowNtNtNtB7_3ffi5c_str4CStrENtNtCs7Qj1RmEtpUo_4pyo33err5PyErrEINtNtNtB7_3ops9try_trait12FromResidualIBy_NtNtB7_7convert10InfallibleB1K_EE13from_residualCsgvCG6cIdDjn_13crystal_topos, symObjAddr: 0xC84, symBinAddr: 0xD770, symSize: 0x48 }
  - { offset: 0x24976, size: 0x8, addend: 0x0, symName: __RNvXsq_NtCs7dfkhshTrE4_4core6resultINtB5_6ResultRNtNtCsgvCG6cIdDjn_13crystal_topos15python_bindings12QuantumStateNtNtCs7Qj1RmEtpUo_4pyo33err5PyErrEINtNtNtB7_3ops9try_trait12FromResidualIBy_NtNtB7_7convert10InfallibleB1N_EE13from_residualBP_, symObjAddr: 0xCCC, symBinAddr: 0xD7B8, symSize: 0x48 }
  - { offset: 0x249FB, size: 0x8, addend: 0x0, symName: __RNvXsq_NtCs7dfkhshTrE4_4core6resultINtB5_6ResultTuuENtNtCs7Qj1RmEtpUo_4pyo33err5PyErrEINtNtNtB7_3ops9try_trait12FromResidualIBy_NtNtB7_7convert10InfallibleBO_EE13from_residualCsgvCG6cIdDjn_13crystal_topos, symObjAddr: 0xD14, symBinAddr: 0xD800, symSize: 0x48 }
  - { offset: 0x25A43, size: 0x8, addend: 0x0, symName: __RINvMNtCs7dfkhshTrE4_4core6resultINtB3_6ResultIBw_uNtNtCs7Qj1RmEtpUo_4pyo33err5PyErrEINtNtCs2iVXuAemrgm_5alloc5boxed3BoxDNtNtB5_3any3AnyNtNtB5_6marker4SendEL_EE14unwrap_or_elseNCINvNtNtBR_5impl_10trampoline21trampoline_unraisableNCNvB2T_7dealloc0Es_0ECsgvCG6cIdDjn_13crystal_topos, symObjAddr: 0x0, symBinAddr: 0xCAEC, symSize: 0x74 }
  - { offset: 0x25D87, size: 0x8, addend: 0x0, symName: __RINvMNtCs7dfkhshTrE4_4core6resultINtB3_6ResultINtNtCs2iVXuAemrgm_5alloc3vec3VecdENtNtB5_7convert10InfallibleE7map_errNtNtCs7Qj1RmEtpUo_4pyo33err5PyErrNvYB1h_INtB1j_4IntoB1R_E4intoECsgvCG6cIdDjn_13crystal_topos, symObjAddr: 0x74, symBinAddr: 0xCB60, symSize: 0x48 }
  - { offset: 0x25E4F, size: 0x8, addend: 0x0, symName: __RINvMNtCs7dfkhshTrE4_4core6resultINtB3_6ResultINtNtCs2iVXuAemrgm_5alloc3vec3VecdENtNtCs7Qj1RmEtpUo_4pyo33err5PyErrE3mapONtNtCsgh2hkQkDkI2_8pyo3_ffi6object8PyObjectNCINvNtNtB1l_5impl_4wrap19map_result_into_ptrBI_E0ECsgvCG6cIdDjn_13crystal_topos, symObjAddr: 0xBC, symBinAddr: 0xCBA8, symSize: 0xA8 }
  - { offset: 0x25F57, size: 0x8, addend: 0x0, symName: __RINvMNtCs7dfkhshTrE4_4core6resultINtB3_6ResultINtNtCs7Qj1RmEtpUo_4pyo36pycell5PyRefNtNtCsgvCG6cIdDjn_13crystal_topos15python_bindings12QuantumStateENtBL_13PyBorrowErrorE7map_errNtNtBN_3err5PyErrNvYB2m_INtNtB5_7convert4IntoB2P_E4intoEB1n_, symObjAddr: 0x164, symBinAddr: 0xCC50, symSize: 0x78 }
  - { offset: 0x25FE9, size: 0x8, addend: 0x0, symName: __RINvMNtCs7dfkhshTrE4_4core6resultINtB3_6ResultINtNtCs7Qj1RmEtpUo_4pyo38instance2PyNtNtNtBN_5types6module8PyModuleENtNtBN_3err5PyErrE3mapONtNtCsgh2hkQkDkI2_8pyo3_ffi6object8PyObjectNCNCNvNtNtBN_5impl_10trampoline11module_init00ECsgvCG6cIdDjn_13crystal_topos, symObjAddr: 0x1DC, symBinAddr: 0xCCC8, symSize: 0x80 }
  - { offset: 0x26094, size: 0x8, addend: 0x0, symName: __RINvMNtCs7dfkhshTrE4_4core6resultINtB3_6ResultINtNtCs7Qj1RmEtpUo_4pyo38instance5BoundNtNtCsgvCG6cIdDjn_13crystal_topos15python_bindings12QuantumStateENtNtBN_3err5PyErrE3mapINtBL_2PyB1l_ENvMs7_BL_BI_6unbindEB1p_, symObjAddr: 0x25C, symBinAddr: 0xCD48, symSize: 0x80 }
  - { offset: 0x26127, size: 0x8, addend: 0x0, symName: __RINvMNtCs7dfkhshTrE4_4core6resultINtB3_6ResultNtNtCsgvCG6cIdDjn_13crystal_topos15python_bindings12QuantumStateNtNtB5_7convert10InfallibleE7map_errNtNtCs7Qj1RmEtpUo_4pyo33err5PyErrNvYB1K_INtB1M_4IntoB2k_E4intoEBM_, symObjAddr: 0x2DC, symBinAddr: 0xCDC8, symSize: 0x48 }
  - { offset: 0x2619D, size: 0x8, addend: 0x0, symName: __RINvMNtCs7dfkhshTrE4_4core6resultINtB3_6ResultNtNtCsgvCG6cIdDjn_13crystal_topos15python_bindings12QuantumStateNtNtCs7Qj1RmEtpUo_4pyo33err5PyErrE3mapONtNtCsgh2hkQkDkI2_8pyo3_ffi6object8PyObjectNCINvNtNtB1O_5impl_4wrap19map_result_into_ptrBI_E0EBM_, symObjAddr: 0x324, symBinAddr: 0xCE10, symSize: 0xA8 }
  - { offset: 0x262A1, size: 0x8, addend: 0x0, symName: __RINvMNtCs7dfkhshTrE4_4core6resultINtB3_6ResultRINtNtCs2iVXuAemrgm_5alloc6borrow3CowNtNtNtB5_3ffi5c_str4CStrENtNtCs7Qj1RmEtpUo_4pyo33err5PyErrE3mapRB1j_NvYBJ_NtNtNtB5_3ops5deref5Deref5derefECsgvCG6cIdDjn_13crystal_topos, symObjAddr: 0x3CC, symBinAddr: 0xCEB8, symSize: 0x84 }
  - { offset: 0x26341, size: 0x8, addend: 0x0, symName: __RINvMNtCs7dfkhshTrE4_4core6resultINtB3_6ResultRINtNtCs7Qj1RmEtpUo_4pyo38instance5BoundNtNtNtBO_5types10typeobject6PyTypeENtNtBO_3err5PyErrE14unwrap_or_elseNCNvMs_NtNtNtBO_5impl_7pyclass16lazy_type_objectINtB2A_14LazyTypeObjectNtNtCsgvCG6cIdDjn_13crystal_topos15python_bindings12QuantumStateE11get_or_init0EB3G_, symObjAddr: 0x450, symBinAddr: 0xCF3C, symSize: 0x7C }
  - { offset: 0x263B4, size: 0x8, addend: 0x0, symName: __RINvMNtCs7dfkhshTrE4_4core6resultINtB3_6ResultbNtNtB5_7convert10InfallibleE7map_errNtNtCs7Qj1RmEtpUo_4pyo33err5PyErrNvYBJ_INtBL_4IntoB1j_E4intoECsgvCG6cIdDjn_13crystal_topos, symObjAddr: 0x4CC, symBinAddr: 0xCFB8, symSize: 0x3C }
  - { offset: 0x26428, size: 0x8, addend: 0x0, symName: __RINvMNtCs7dfkhshTrE4_4core6resultINtB3_6ResultbNtNtCs7Qj1RmEtpUo_4pyo33err5PyErrE3mapONtNtCsgh2hkQkDkI2_8pyo3_ffi6object8PyObjectNCINvNtNtBN_5impl_4wrap19map_result_into_ptrbE0ECsgvCG6cIdDjn_13crystal_topos, symObjAddr: 0x508, symBinAddr: 0xCFF4, symSize: 0x98 }
  - { offset: 0x264BB, size: 0x8, addend: 0x0, symName: __RINvMNtCs7dfkhshTrE4_4core6resultINtB3_6ResultdNtNtB5_7convert10InfallibleE7map_errNtNtCs7Qj1RmEtpUo_4pyo33err5PyErrNvYBJ_INtBL_4IntoB1j_E4intoECsgvCG6cIdDjn_13crystal_topos, symObjAddr: 0x5A0, symBinAddr: 0xD08C, symSize: 0x30 }
  - { offset: 0x2652F, size: 0x8, addend: 0x0, symName: __RINvMNtCs7dfkhshTrE4_4core6resultINtB3_6ResultdNtNtCs7Qj1RmEtpUo_4pyo33err5PyErrE3mapONtNtCsgh2hkQkDkI2_8pyo3_ffi6object8PyObjectNCINvNtNtBN_5impl_4wrap19map_result_into_ptrdE0ECsgvCG6cIdDjn_13crystal_topos, symObjAddr: 0x5D0, symBinAddr: 0xD0BC, symSize: 0x8C }
  - { offset: 0x265C2, size: 0x8, addend: 0x0, symName: __RINvMNtCs7dfkhshTrE4_4core6resultINtB3_6ResultjNtNtB5_7convert10InfallibleE7map_errNtNtCs7Qj1RmEtpUo_4pyo33err5PyErrNvYBJ_INtBL_4IntoB1j_E4intoECsgvCG6cIdDjn_13crystal_topos, symObjAddr: 0x65C, symBinAddr: 0xD148, symSize: 0x30 }
  - { offset: 0x26636, size: 0x8, addend: 0x0, symName: __RINvMNtCs7dfkhshTrE4_4core6resultINtB3_6ResultjNtNtCs7Qj1RmEtpUo_4pyo33err5PyErrE3mapONtNtCsgh2hkQkDkI2_8pyo3_ffi6object8PyObjectNCINvNtNtBN_5impl_4wrap19map_result_into_ptrjE0ECsgvCG6cIdDjn_13crystal_topos, symObjAddr: 0x68C, symBinAddr: 0xD178, symSize: 0x8C }
  - { offset: 0x266D6, size: 0x8, addend: 0x0, symName: __RINvMNtCs7dfkhshTrE4_4core6resultINtB3_6ResultuNtNtCs7Qj1RmEtpUo_4pyo36pycell13PyBorrowErrorE3mapINtBL_5PyRefNtNtCsgvCG6cIdDjn_13crystal_topos15python_bindings12QuantumStateENCNvMs0_BL_B1x_10try_borrow0EB1N_, symObjAddr: 0x718, symBinAddr: 0xD204, symSize: 0x4C }
  - { offset: 0x2679A, size: 0x8, addend: 0x0, symName: __RNvMNtCs7dfkhshTrE4_4core6resultINtB2_6ResultuNtNtCs7Qj1RmEtpUo_4pyo33err5PyErrE6is_errCsgvCG6cIdDjn_13crystal_topos, symObjAddr: 0x764, symBinAddr: 0xD250, symSize: 0x20 }
  - { offset: 0x26843, size: 0x8, addend: 0x0, symName: __RNvMs_NtCs7Qj1RmEtpUo_4pyo38instanceINtB4_5BoundNtNtNtB6_5types3any5PyAnyE14from_owned_ptrCsgvCG6cIdDjn_13crystal_topos, symObjAddr: 0x0, symBinAddr: 0xD848, symSize: 0x2C }
  - { offset: 0x26A5D, size: 0x8, addend: 0x0, symName: __RNvXs_NtNtCs7Qj1RmEtpUo_4pyo35types10typeobjectINtNtB8_8instance5BoundNtB4_6PyTypeENtB4_13PyTypeMethods11as_type_ptrCsgvCG6cIdDjn_13crystal_topos, symObjAddr: 0xB8, symBinAddr: 0xD900, symSize: 0x24 }
  - { offset: 0x26E33, size: 0x8, addend: 0x0, symName: __RNvMs_NtCs7Qj1RmEtpUo_4pyo38instanceINtB4_5BoundNtNtNtB6_5types3any5PyAnyE14from_owned_ptrCsgvCG6cIdDjn_13crystal_topos, symObjAddr: 0x0, symBinAddr: 0xD848, symSize: 0x2C }
  - { offset: 0x26E82, size: 0x8, addend: 0x0, symName: __RNvMsa_NtCs7Qj1RmEtpUo_4pyo38instanceINtB5_8BorrowedNtNtNtB7_5types3any5PyAnyE15from_ptr_or_optCsgvCG6cIdDjn_13crystal_topos, symObjAddr: 0x2C, symBinAddr: 0xD874, symSize: 0x2C }
  - { offset: 0x26EC0, size: 0x8, addend: 0x0, symName: __RNvMsa_NtCs7Qj1RmEtpUo_4pyo38instanceINtB5_8BorrowedNtNtNtB7_5types3any5PyAnyE18from_ptr_uncheckedCsgvCG6cIdDjn_13crystal_topos, symObjAddr: 0x58, symBinAddr: 0xD8A0, symSize: 0x2C }
  - { offset: 0x26EFE, size: 0x8, addend: 0x0, symName: __RNvMsa_NtCs7Qj1RmEtpUo_4pyo38instanceINtB5_8BorrowedNtNtNtB7_5types3any5PyAnyE8from_ptrCsgvCG6cIdDjn_13crystal_topos, symObjAddr: 0x84, symBinAddr: 0xD8CC, symSize: 0x34 }
  - { offset: 0x26F67, size: 0x8, addend: 0x0, symName: __RINvNtNtCs7Qj1RmEtpUo_4pyo35impl_4wrap19map_result_into_ptrINtNtCs2iVXuAemrgm_5alloc3vec3VecdEECsgvCG6cIdDjn_13crystal_topos, symObjAddr: 0x0, symBinAddr: 0xD924, symSize: 0x38 }
  - { offset: 0x27008, size: 0x8, addend: 0x0, symName: __RINvNtNtCs7Qj1RmEtpUo_4pyo35impl_4wrap19map_result_into_ptrINtNtCs2iVXuAemrgm_5alloc3vec3VecdEECsgvCG6cIdDjn_13crystal_topos, symObjAddr: 0x0, symBinAddr: 0xD924, symSize: 0x38 }
  - { offset: 0x27057, size: 0x8, addend: 0x0, symName: __RINvNtNtCs7Qj1RmEtpUo_4pyo35impl_4wrap19map_result_into_ptrNtNtCsgvCG6cIdDjn_13crystal_topos15python_bindings12QuantumStateEBZ_, symObjAddr: 0x38, symBinAddr: 0xD95C, symSize: 0x38 }
  - { offset: 0x270A6, size: 0x8, addend: 0x0, symName: __RINvNtNtCs7Qj1RmEtpUo_4pyo35impl_4wrap19map_result_into_ptrbECsgvCG6cIdDjn_13crystal_topos, symObjAddr: 0x70, symBinAddr: 0xD994, symSize: 0x38 }
  - { offset: 0x270F5, size: 0x8, addend: 0x0, symName: __RINvNtNtCs7Qj1RmEtpUo_4pyo35impl_4wrap19map_result_into_ptrdECsgvCG6cIdDjn_13crystal_topos, symObjAddr: 0xA8, symBinAddr: 0xD9CC, symSize: 0x38 }
  - { offset: 0x27144, size: 0x8, addend: 0x0, symName: __RINvNtNtCs7Qj1RmEtpUo_4pyo35impl_4wrap19map_result_into_ptrjECsgvCG6cIdDjn_13crystal_topos, symObjAddr: 0xE0, symBinAddr: 0xDA04, symSize: 0x38 }
  - { offset: 0x27198, size: 0x8, addend: 0x0, symName: __RNCINvNtNtCs7Qj1RmEtpUo_4pyo35impl_4wrap19map_result_into_ptrINtNtCs2iVXuAemrgm_5alloc3vec3VecdEE0CsgvCG6cIdDjn_13crystal_topos, symObjAddr: 0x118, symBinAddr: 0xDA3C, symSize: 0x38 }
  - { offset: 0x271E7, size: 0x8, addend: 0x0, symName: __RNCINvNtNtCs7Qj1RmEtpUo_4pyo35impl_4wrap19map_result_into_ptrNtNtCsgvCG6cIdDjn_13crystal_topos15python_bindings12QuantumStateE0B11_, symObjAddr: 0x150, symBinAddr: 0xDA74, symSize: 0x38 }
  - { offset: 0x27236, size: 0x8, addend: 0x0, symName: __RNCINvNtNtCs7Qj1RmEtpUo_4pyo35impl_4wrap19map_result_into_ptrbE0CsgvCG6cIdDjn_13crystal_topos, symObjAddr: 0x188, symBinAddr: 0xDAAC, symSize: 0x30 }
  - { offset: 0x27284, size: 0x8, addend: 0x0, symName: __RNCINvNtNtCs7Qj1RmEtpUo_4pyo35impl_4wrap19map_result_into_ptrdE0CsgvCG6cIdDjn_13crystal_topos, symObjAddr: 0x1B8, symBinAddr: 0xDADC, symSize: 0x28 }
  - { offset: 0x272D2, size: 0x8, addend: 0x0, symName: __RNCINvNtNtCs7Qj1RmEtpUo_4pyo35impl_4wrap19map_result_into_ptrjE0CsgvCG6cIdDjn_13crystal_topos, symObjAddr: 0x1E0, symBinAddr: 0xDB04, symSize: 0x30 }
  - { offset: 0x27385, size: 0x8, addend: 0x0, symName: __RNvXs0_NtNtCs7Qj1RmEtpUo_4pyo35impl_4wrapbINtB5_6OkWrapbE4wrapCsgvCG6cIdDjn_13crystal_topos, symObjAddr: 0x210, symBinAddr: 0xDB34, symSize: 0x10 }
  - { offset: 0x273BA, size: 0x8, addend: 0x0, symName: __RNvXs0_NtNtCs7Qj1RmEtpUo_4pyo35impl_4wrapdINtB5_6OkWrapdE4wrapCsgvCG6cIdDjn_13crystal_topos, symObjAddr: 0x220, symBinAddr: 0xDB44, symSize: 0x10 }
  - { offset: 0x273EF, size: 0x8, addend: 0x0, symName: __RNvXs0_NtNtCs7Qj1RmEtpUo_4pyo35impl_4wrapjINtB5_6OkWrapjE4wrapCsgvCG6cIdDjn_13crystal_topos, symObjAddr: 0x230, symBinAddr: 0xDB54, symSize: 0x10 }
  - { offset: 0x27E82, size: 0x8, addend: 0x0, symName: __RNvXs9_NtNtCs7Qj1RmEtpUo_4pyo35types5tupleNtB5_21BorrowedTupleIteratorNtNtNtNtCs7dfkhshTrE4_4core4iter6traits8iterator8Iterator4nextCsgvCG6cIdDjn_13crystal_topos, symObjAddr: 0x0, symBinAddr: 0xDB64, symSize: 0x9C }
  - { offset: 0x27F28, size: 0x8, addend: 0x0, symName: __RNvXs9_NtNtCs7Qj1RmEtpUo_4pyo35types5tupleNtB5_21BorrowedTupleIteratorNtNtNtNtCs7dfkhshTrE4_4core4iter6traits8iterator8Iterator4nextCsgvCG6cIdDjn_13crystal_topos, symObjAddr: 0x0, symBinAddr: 0xDB64, symSize: 0x9C }
  - { offset: 0x28324, size: 0x8, addend: 0x0, symName: __RNvNvNtCs7dfkhshTrE4_4core4hint16assert_unchecked18precondition_checkCsgvCG6cIdDjn_13crystal_topos, symObjAddr: 0x0, symBinAddr: 0xDC00, symSize: 0x58 }
  - { offset: 0x28340, size: 0x8, addend: 0x0, symName: __RNvNvNtCs7dfkhshTrE4_4core4hint16assert_unchecked18precondition_checkCsgvCG6cIdDjn_13crystal_topos, symObjAddr: 0x0, symBinAddr: 0xDC00, symSize: 0x58 }
  - { offset: 0x2838B, size: 0x8, addend: 0x0, symName: __RNvNvNtCs7dfkhshTrE4_4core4hint21unreachable_unchecked18precondition_checkCsgvCG6cIdDjn_13crystal_topos, symObjAddr: 0x58, symBinAddr: 0xDC58, symSize: 0x3C }
  - { offset: 0x2841F, size: 0x8, addend: 0x0, symName: __RNCNvXs0_NtNtNtCs7Qj1RmEtpUo_4pyo311conversions3std3vecINtNtCs2iVXuAemrgm_5alloc3vec3VecdEINtNtBd_10conversion6IntoPyINtNtBd_8instance2PyNtNtNtBd_5types3any5PyAnyEE7into_py0CsgvCG6cIdDjn_13crystal_topos, symObjAddr: 0x0, symBinAddr: 0xDC94, symSize: 0x24 }
  - { offset: 0x284CF, size: 0x8, addend: 0x0, symName: __RNCNvXs0_NtNtNtCs7Qj1RmEtpUo_4pyo311conversions3std3vecINtNtCs2iVXuAemrgm_5alloc3vec3VecdEINtNtBd_10conversion6IntoPyINtNtBd_8instance2PyNtNtNtBd_5types3any5PyAnyEE7into_py0CsgvCG6cIdDjn_13crystal_topos, symObjAddr: 0x0, symBinAddr: 0xDC94, symSize: 0x24 }
  - { offset: 0x28767, size: 0x8, addend: 0x0, symName: __RINvNtNtCs7Qj1RmEtpUo_4pyo35impl_10trampoline10trampolineNCNvB2_11module_init0ONtNtCsgh2hkQkDkI2_8pyo3_ffi6object8PyObjectECsgvCG6cIdDjn_13crystal_topos, symObjAddr: 0x0, symBinAddr: 0xDCB8, symSize: 0x14C }
  - { offset: 0x28808, size: 0x8, addend: 0x0, symName: __RINvNtNtCs7Qj1RmEtpUo_4pyo35impl_10trampoline10trampolineNCNvB2_11module_init0ONtNtCsgh2hkQkDkI2_8pyo3_ffi6object8PyObjectECsgvCG6cIdDjn_13crystal_topos, symObjAddr: 0x0, symBinAddr: 0xDCB8, symSize: 0x14C }
  - { offset: 0x288AA, size: 0x8, addend: 0x0, symName: __RINvNtNtCs7Qj1RmEtpUo_4pyo35impl_10trampoline10trampolineNCNvB2_23cfunction_with_keywords0ONtNtCsgh2hkQkDkI2_8pyo3_ffi6object8PyObjectECsgvCG6cIdDjn_13crystal_topos, symObjAddr: 0x14C, symBinAddr: 0xDE04, symSize: 0x15C }
  - { offset: 0x2894D, size: 0x8, addend: 0x0, symName: __RINvNtNtCs7Qj1RmEtpUo_4pyo35impl_10trampoline10trampolineNCNvB2_6noargs0ONtNtCsgh2hkQkDkI2_8pyo3_ffi6object8PyObjectECsgvCG6cIdDjn_13crystal_topos, symObjAddr: 0x2A8, symBinAddr: 0xDF60, symSize: 0x158 }
  - { offset: 0x289F0, size: 0x8, addend: 0x0, symName: __RINvNtNtCs7Qj1RmEtpUo_4pyo35impl_10trampoline10trampolineNCNvB2_8reprfunc0ONtNtCsgh2hkQkDkI2_8pyo3_ffi6object8PyObjectECsgvCG6cIdDjn_13crystal_topos, symObjAddr: 0x400, symBinAddr: 0xE0B8, symSize: 0x158 }
  - { offset: 0x28A93, size: 0x8, addend: 0x0, symName: __RINvNtNtCs7Qj1RmEtpUo_4pyo35impl_10trampoline21trampoline_unraisableNCNvB2_7dealloc0ECsgvCG6cIdDjn_13crystal_topos, symObjAddr: 0x558, symBinAddr: 0xE210, symSize: 0x20C }
  - { offset: 0x28B36, size: 0x8, addend: 0x0, symName: __RNCINvNtNtCs7Qj1RmEtpUo_4pyo35impl_10trampoline10trampolineNCNvB4_11module_init0ONtNtCsgh2hkQkDkI2_8pyo3_ffi6object8PyObjectE0CsgvCG6cIdDjn_13crystal_topos, symObjAddr: 0x764, symBinAddr: 0xE41C, symSize: 0x24 }
  - { offset: 0x28B84, size: 0x8, addend: 0x0, symName: __RNCINvNtNtCs7Qj1RmEtpUo_4pyo35impl_10trampoline10trampolineNCNvB4_23cfunction_with_keywords0ONtNtCsgh2hkQkDkI2_8pyo3_ffi6object8PyObjectE0CsgvCG6cIdDjn_13crystal_topos, symObjAddr: 0x788, symBinAddr: 0xE440, symSize: 0x34 }
  - { offset: 0x28BD3, size: 0x8, addend: 0x0, symName: __RNCINvNtNtCs7Qj1RmEtpUo_4pyo35impl_10trampoline10trampolineNCNvB4_6noargs0ONtNtCsgh2hkQkDkI2_8pyo3_ffi6object8PyObjectE0CsgvCG6cIdDjn_13crystal_topos, symObjAddr: 0x7BC, symBinAddr: 0xE474, symSize: 0x2C }
  - { offset: 0x28C21, size: 0x8, addend: 0x0, symName: __RNCINvNtNtCs7Qj1RmEtpUo_4pyo35impl_10trampoline10trampolineNCNvB4_8reprfunc0ONtNtCsgh2hkQkDkI2_8pyo3_ffi6object8PyObjectE0CsgvCG6cIdDjn_13crystal_topos, symObjAddr: 0x7E8, symBinAddr: 0xE4A0, symSize: 0x2C }
  - { offset: 0x28C75, size: 0x8, addend: 0x0, symName: __RNCINvNtNtCs7Qj1RmEtpUo_4pyo35impl_10trampoline21trampoline_unraisableNCNvB4_7dealloc0E0CsgvCG6cIdDjn_13crystal_topos, symObjAddr: 0x814, symBinAddr: 0xE4CC, symSize: 0x2C }
  - { offset: 0x28CBA, size: 0x8, addend: 0x0, symName: __RNCINvNtNtCs7Qj1RmEtpUo_4pyo35impl_10trampoline21trampoline_unraisableNCNvB4_7dealloc0Es_0CsgvCG6cIdDjn_13crystal_topos, symObjAddr: 0x840, symBinAddr: 0xE4F8, symSize: 0x50 }
  - { offset: 0x28D0B, size: 0x8, addend: 0x0, symName: __RNCNCNvNtNtCs7Qj1RmEtpUo_4pyo35impl_10trampoline11module_init00CsgvCG6cIdDjn_13crystal_topos, symObjAddr: 0x890, symBinAddr: 0xE548, symSize: 0x24 }
  - { offset: 0x28D49, size: 0x8, addend: 0x0, symName: __RNCNvNtNtCs7Qj1RmEtpUo_4pyo35impl_10trampoline11module_init0CsgvCG6cIdDjn_13crystal_topos, symObjAddr: 0x8B4, symBinAddr: 0xE56C, symSize: 0x40 }
  - { offset: 0x28DA9, size: 0x8, addend: 0x0, symName: __RNCNvNtNtCs7Qj1RmEtpUo_4pyo35impl_10trampoline23cfunction_with_keywords0CsgvCG6cIdDjn_13crystal_topos, symObjAddr: 0x8F4, symBinAddr: 0xE5AC, symSize: 0x40 }
  - { offset: 0x28E5A, size: 0x8, addend: 0x0, symName: __RNCNvNtNtCs7Qj1RmEtpUo_4pyo35impl_10trampoline6noargs0CsgvCG6cIdDjn_13crystal_topos, symObjAddr: 0x934, symBinAddr: 0xE5EC, symSize: 0x34 }
  - { offset: 0x28ED7, size: 0x8, addend: 0x0, symName: __RNCNvNtNtCs7Qj1RmEtpUo_4pyo35impl_10trampoline7dealloc0CsgvCG6cIdDjn_13crystal_topos, symObjAddr: 0x968, symBinAddr: 0xE620, symSize: 0x40 }
  - { offset: 0x28F54, size: 0x8, addend: 0x0, symName: __RNCNvNtNtCs7Qj1RmEtpUo_4pyo35impl_10trampoline8reprfunc0CsgvCG6cIdDjn_13crystal_topos, symObjAddr: 0x9A8, symBinAddr: 0xE660, symSize: 0x34 }
  - { offset: 0x29678, size: 0x8, addend: 0x0, symName: __RNvMs2_NtCs7Qj1RmEtpUo_4pyo33errNtB5_5PyErr22write_unraisable_boundCsgvCG6cIdDjn_13crystal_topos, symObjAddr: 0x0, symBinAddr: 0xE694, symSize: 0x4C }
  - { offset: 0x29BFE, size: 0x8, addend: 0x0, symName: __RNvMs2_NtCs7Qj1RmEtpUo_4pyo33errNtB5_5PyErr22write_unraisable_boundCsgvCG6cIdDjn_13crystal_topos, symObjAddr: 0x0, symBinAddr: 0xE694, symSize: 0x4C }
  - { offset: 0x29C68, size: 0x8, addend: 0x0, symName: __RNvMs2_NtCs7Qj1RmEtpUo_4pyo33errNtB5_5PyErr7restoreCsgvCG6cIdDjn_13crystal_topos, symObjAddr: 0x4C, symBinAddr: 0xE6E0, symSize: 0x68 }
  - { offset: 0x29CE3, size: 0x8, addend: 0x0, symName: __RNvMs9_NtNtCs7Qj1RmEtpUo_4pyo36pycell5impl_INtB5_13PyClassObjectNtNtCsgvCG6cIdDjn_13crystal_topos15python_bindings12QuantumStateE7get_ptrB14_, symObjAddr: 0x0, symBinAddr: 0xE748, symSize: 0x24 }
  - { offset: 0x2A0FF, size: 0x8, addend: 0x0, symName: __RNvXs4_NtNtCs7Qj1RmEtpUo_4pyo36pycell5impl_NtB5_12MutableClassINtB5_16GetBorrowCheckerNtNtCsgvCG6cIdDjn_13crystal_topos15python_bindings12QuantumStateE14borrow_checkerB1q_, symObjAddr: 0x48, symBinAddr: 0xE790, symSize: 0x14 }
  - { offset: 0x2A13A, size: 0x8, addend: 0x0, symName: __RNvXs8_NtNtCs7Qj1RmEtpUo_4pyo36pycell5impl_INtB5_17PyClassObjectBaseNtNtCsgh2hkQkDkI2_8pyo3_ffi6object8PyObjectEINtB5_19PyClassObjectLayoutNtNtNtB9_5types3any5PyAnyE10tp_deallocCsgvCG6cIdDjn_13crystal_topos, symObjAddr: 0x5C, symBinAddr: 0xE7A4, symSize: 0x170 }
  - { offset: 0x2A210, size: 0x8, addend: 0x0, symName: __RNvXs8_NtNtCs7Qj1RmEtpUo_4pyo36pycell5impl_INtB5_17PyClassObjectBaseNtNtCsgh2hkQkDkI2_8pyo3_ffi6object8PyObjectEINtB5_19PyClassObjectLayoutNtNtNtB9_5types3any5PyAnyE17ensure_threadsafeCsgvCG6cIdDjn_13crystal_topos, symObjAddr: 0x1CC, symBinAddr: 0xE914, symSize: 0x10 }
  - { offset: 0x2A250, size: 0x8, addend: 0x0, symName: __RNvXsd_NtNtCs7Qj1RmEtpUo_4pyo36pycell5impl_INtB5_13PyClassObjectNtNtCsgvCG6cIdDjn_13crystal_topos15python_bindings12QuantumStateEINtB5_19PyClassObjectLayoutB10_E10tp_deallocB14_, symObjAddr: 0x1DC, symBinAddr: 0xE924, symSize: 0xB4 }
  - { offset: 0x2A2B4, size: 0x8, addend: 0x0, symName: __RNvXsd_NtNtCs7Qj1RmEtpUo_4pyo36pycell5impl_INtB5_13PyClassObjectNtNtCsgvCG6cIdDjn_13crystal_topos15python_bindings12QuantumStateEINtB5_19PyClassObjectLayoutB10_E17ensure_threadsafeB14_, symObjAddr: 0x290, symBinAddr: 0xE9D8, symSize: 0x30 }
  - { offset: 0x2A5C0, size: 0x8, addend: 0x0, symName: __RNvMs9_NtNtCs7Qj1RmEtpUo_4pyo36pycell5impl_INtB5_13PyClassObjectNtNtCsgvCG6cIdDjn_13crystal_topos15python_bindings12QuantumStateE7get_ptrB14_, symObjAddr: 0x0, symBinAddr: 0xE748, symSize: 0x24 }
  - { offset: 0x2A5F9, size: 0x8, addend: 0x0, symName: __RNvMsa_NtNtCs7Qj1RmEtpUo_4pyo36pycell5impl_INtB5_13PyClassObjectNtNtCsgvCG6cIdDjn_13crystal_topos15python_bindings12QuantumStateE14borrow_checkerB14_, symObjAddr: 0x24, symBinAddr: 0xE76C, symSize: 0x24 }
  - { offset: 0x2A6D0, size: 0x8, addend: 0x0, symName: __RINvNvNtCskXqYSXpV4rx_3std9panicking12catch_unwind7do_callNCINvNtNtCs7Qj1RmEtpUo_4pyo35impl_10trampoline10trampolineNCNvBZ_11module_init0ONtNtCsgh2hkQkDkI2_8pyo3_ffi6object8PyObjectE0INtNtCs7dfkhshTrE4_4core6result6ResultB2b_NtNtB13_3err5PyErrEECsgvCG6cIdDjn_13crystal_topos, symObjAddr: 0x0, symBinAddr: 0xEA08, symSize: 0x70 }
  - { offset: 0x2B241, size: 0x8, addend: 0x0, symName: __RINvNvNtCskXqYSXpV4rx_3std9panicking12catch_unwind7do_callNCINvNtNtCs7Qj1RmEtpUo_4pyo35impl_10trampoline10trampolineNCNvBZ_11module_init0ONtNtCsgh2hkQkDkI2_8pyo3_ffi6object8PyObjectE0INtNtCs7dfkhshTrE4_4core6result6ResultB2b_NtNtB13_3err5PyErrEECsgvCG6cIdDjn_13crystal_topos, symObjAddr: 0x0, symBinAddr: 0xEA08, symSize: 0x70 }
  - { offset: 0x2B33B, size: 0x8, addend: 0x0, symName: __RINvNvNtCskXqYSXpV4rx_3std9panicking12catch_unwind7do_callNCINvNtNtCs7Qj1RmEtpUo_4pyo35impl_10trampoline10trampolineNCNvBZ_23cfunction_with_keywords0ONtNtCsgh2hkQkDkI2_8pyo3_ffi6object8PyObjectE0INtNtCs7dfkhshTrE4_4core6result6ResultB2n_NtNtB13_3err5PyErrEECsgvCG6cIdDjn_13crystal_topos, symObjAddr: 0x70, symBinAddr: 0xEA78, symSize: 0x80 }
  - { offset: 0x2B436, size: 0x8, addend: 0x0, symName: __RINvNvNtCskXqYSXpV4rx_3std9panicking12catch_unwind7do_callNCINvNtNtCs7Qj1RmEtpUo_4pyo35impl_10trampoline10trampolineNCNvBZ_6noargs0ONtNtCsgh2hkQkDkI2_8pyo3_ffi6object8PyObjectE0INtNtCs7dfkhshTrE4_4core6result6ResultB25_NtNtB13_3err5PyErrEECsgvCG6cIdDjn_13crystal_topos, symObjAddr: 0xF0, symBinAddr: 0xEAF8, symSize: 0x7C }
  - { offset: 0x2B530, size: 0x8, addend: 0x0, symName: __RINvNvNtCskXqYSXpV4rx_3std9panicking12catch_unwind7do_callNCINvNtNtCs7Qj1RmEtpUo_4pyo35impl_10trampoline10trampolineNCNvBZ_8reprfunc0ONtNtCsgh2hkQkDkI2_8pyo3_ffi6object8PyObjectE0INtNtCs7dfkhshTrE4_4core6result6ResultB27_NtNtB13_3err5PyErrEECsgvCG6cIdDjn_13crystal_topos, symObjAddr: 0x16C, symBinAddr: 0xEB74, symSize: 0x7C }
  - { offset: 0x2B62A, size: 0x8, addend: 0x0, symName: __RINvNvNtCskXqYSXpV4rx_3std9panicking12catch_unwind7do_callNCINvNtNtCs7Qj1RmEtpUo_4pyo35impl_10trampoline21trampoline_unraisableNCNvBZ_7dealloc0E0INtNtCs7dfkhshTrE4_4core6result6ResultuNtNtB13_3err5PyErrEECsgvCG6cIdDjn_13crystal_topos, symObjAddr: 0x1E8, symBinAddr: 0xEBF0, symSize: 0x7C }
  - { offset: 0x2B724, size: 0x8, addend: 0x0, symName: __RINvNvNtCskXqYSXpV4rx_3std9panicking12catch_unwind8do_catchNCINvNtNtCs7Qj1RmEtpUo_4pyo35impl_10trampoline10trampolineNCNvB10_11module_init0ONtNtCsgh2hkQkDkI2_8pyo3_ffi6object8PyObjectE0INtNtCs7dfkhshTrE4_4core6result6ResultB2d_NtNtB14_3err5PyErrEECsgvCG6cIdDjn_13crystal_topos, symObjAddr: 0x264, symBinAddr: 0xEC6C, symSize: 0x70 }
  - { offset: 0x2B7B9, size: 0x8, addend: 0x0, symName: __RINvNvNtCskXqYSXpV4rx_3std9panicking12catch_unwind8do_catchNCINvNtNtCs7Qj1RmEtpUo_4pyo35impl_10trampoline10trampolineNCNvB10_23cfunction_with_keywords0ONtNtCsgh2hkQkDkI2_8pyo3_ffi6object8PyObjectE0INtNtCs7dfkhshTrE4_4core6result6ResultB2p_NtNtB14_3err5PyErrEECsgvCG6cIdDjn_13crystal_topos, symObjAddr: 0x2D4, symBinAddr: 0xECDC, symSize: 0x70 }
  - { offset: 0x2B84E, size: 0x8, addend: 0x0, symName: __RINvNvNtCskXqYSXpV4rx_3std9panicking12catch_unwind8do_catchNCINvNtNtCs7Qj1RmEtpUo_4pyo35impl_10trampoline10trampolineNCNvB10_6noargs0ONtNtCsgh2hkQkDkI2_8pyo3_ffi6object8PyObjectE0INtNtCs7dfkhshTrE4_4core6result6ResultB27_NtNtB14_3err5PyErrEECsgvCG6cIdDjn_13crystal_topos, symObjAddr: 0x344, symBinAddr: 0xED4C, symSize: 0x70 }
  - { offset: 0x2B8E3, size: 0x8, addend: 0x0, symName: __RINvNvNtCskXqYSXpV4rx_3std9panicking12catch_unwind8do_catchNCINvNtNtCs7Qj1RmEtpUo_4pyo35impl_10trampoline10trampolineNCNvB10_8reprfunc0ONtNtCsgh2hkQkDkI2_8pyo3_ffi6object8PyObjectE0INtNtCs7dfkhshTrE4_4core6result6ResultB29_NtNtB14_3err5PyErrEECsgvCG6cIdDjn_13crystal_topos, symObjAddr: 0x3B4, symBinAddr: 0xEDBC, symSize: 0x70 }
  - { offset: 0x2B978, size: 0x8, addend: 0x0, symName: __RINvNvNtCskXqYSXpV4rx_3std9panicking12catch_unwind8do_catchNCINvNtNtCs7Qj1RmEtpUo_4pyo35impl_10trampoline21trampoline_unraisableNCNvB10_7dealloc0E0INtNtCs7dfkhshTrE4_4core6result6ResultuNtNtB14_3err5PyErrEECsgvCG6cIdDjn_13crystal_topos, symObjAddr: 0x424, symBinAddr: 0xEE2C, symSize: 0x70 }
  - { offset: 0x2BE8C, size: 0x8, addend: 0x0, symName: __RINvNtCs7dfkhshTrE4_4core3ptr13drop_in_placeINtNtB4_4cell10UnsafeCellNtNtCsgvCG6cIdDjn_13crystal_topos15python_bindings12QuantumStateEEB19_, symObjAddr: 0x90, symBinAddr: 0xEE9C, symSize: 0x24 }
  - { offset: 0x2BEBB, size: 0x8, addend: 0x0, symName: __RINvNtCs7dfkhshTrE4_4core3ptr13drop_in_placeINtNtB4_6option6OptionINtNtCs2iVXuAemrgm_5alloc6borrow3CowNtNtNtB4_3ffi5c_str4CStrEEECsgvCG6cIdDjn_13crystal_topos, symObjAddr: 0xD8, symBinAddr: 0xEEC0, symSize: 0x44 }
  - { offset: 0x2BEEA, size: 0x8, addend: 0x0, symName: __RINvNtCs7dfkhshTrE4_4core3ptr13drop_in_placeINtNtB4_6option6OptionINtNtCs7Qj1RmEtpUo_4pyo36pycell5PyRefNtNtCsgvCG6cIdDjn_13crystal_topos15python_bindings12QuantumStateEEEB1H_, symObjAddr: 0x11C, symBinAddr: 0xEF04, symSize: 0x44 }
  - { offset: 0x2BF19, size: 0x8, addend: 0x0, symName: __RINvNtCs7dfkhshTrE4_4core3ptr13drop_in_placeINtNtB4_6result6ResultONtNtCsgh2hkQkDkI2_8pyo3_ffi6object8PyObjectNtNtCs7Qj1RmEtpUo_4pyo33err5PyErrEECsgvCG6cIdDjn_13crystal_topos, symObjAddr: 0x160, symBinAddr: 0xEF48, symSize: 0x40 }
  - { offset: 0x2BF48, size: 0x8, addend: 0x0, symName: __RINvNtCs7dfkhshTrE4_4core3ptr13drop_in_placeINtNtB4_6result6ResultuINtNtCs2iVXuAemrgm_5alloc6borrow3CowNtNtNtB4_3ffi5c_str4CStrEEECsgvCG6cIdDjn_13crystal_topos, symObjAddr: 0x1A0, symBinAddr: 0xEF88, symSize: 0x44 }
  - { offset: 0x2BF77, size: 0x8, addend: 0x0, symName: __RINvNtCs7dfkhshTrE4_4core3ptr13drop_in_placeINtNtCs2iVXuAemrgm_5alloc3vec3VecNtNtCsgvCG6cIdDjn_13crystal_topos4base2CxEEB1h_, symObjAddr: 0x1E4, symBinAddr: 0xEFCC, symSize: 0x5C }
  - { offset: 0x2BFA6, size: 0x8, addend: 0x0, symName: __RINvNtCs7dfkhshTrE4_4core3ptr13drop_in_placeINtNtCs2iVXuAemrgm_5alloc3vec3VecdEECsgvCG6cIdDjn_13crystal_topos, symObjAddr: 0x240, symBinAddr: 0xF028, symSize: 0x5C }
  - { offset: 0x2BFD5, size: 0x8, addend: 0x0, symName: __RINvNtCs7dfkhshTrE4_4core3ptr13drop_in_placeINtNtCs2iVXuAemrgm_5alloc6borrow3CowNtNtNtB4_3ffi5c_str4CStrEECsgvCG6cIdDjn_13crystal_topos, symObjAddr: 0x29C, symBinAddr: 0xF084, symSize: 0x40 }
  - { offset: 0x2C004, size: 0x8, addend: 0x0, symName: __RINvNtCs7dfkhshTrE4_4core3ptr13drop_in_placeINtNtCs2iVXuAemrgm_5alloc7raw_vec6RawVecNtNtCsgvCG6cIdDjn_13crystal_topos4base2CxEEB1o_, symObjAddr: 0x2DC, symBinAddr: 0xF0C4, symSize: 0x24 }
  - { offset: 0x2C033, size: 0x8, addend: 0x0, symName: __RINvNtCs7dfkhshTrE4_4core3ptr13drop_in_placeINtNtCs2iVXuAemrgm_5alloc7raw_vec6RawVecdEECsgvCG6cIdDjn_13crystal_topos, symObjAddr: 0x300, symBinAddr: 0xF0E8, symSize: 0x24 }
  - { offset: 0x2C062, size: 0x8, addend: 0x0, symName: __RINvNtCs7dfkhshTrE4_4core3ptr13drop_in_placeINtNtCs7Qj1RmEtpUo_4pyo312pyclass_init18PyClassInitializerNtNtCsgvCG6cIdDjn_13crystal_topos15python_bindings12QuantumStateEEB1G_, symObjAddr: 0x324, symBinAddr: 0xF10C, symSize: 0x24 }
  - { offset: 0x2C091, size: 0x8, addend: 0x0, symName: __RINvNtCs7dfkhshTrE4_4core3ptr13drop_in_placeINtNtCs7Qj1RmEtpUo_4pyo312pyclass_init22PyClassInitializerImplNtNtCsgvCG6cIdDjn_13crystal_topos15python_bindings12QuantumStateEEB1K_, symObjAddr: 0x348, symBinAddr: 0xF130, symSize: 0x58 }
  - { offset: 0x2C0C0, size: 0x8, addend: 0x0, symName: __RINvNtCs7dfkhshTrE4_4core3ptr13drop_in_placeINtNtCs7Qj1RmEtpUo_4pyo36pycell5PyRefNtNtCsgvCG6cIdDjn_13crystal_topos15python_bindings12QuantumStateEEB1l_, symObjAddr: 0x430, symBinAddr: 0xF188, symSize: 0x5C }
  - { offset: 0x2C0EF, size: 0x8, addend: 0x0, symName: __RINvNtCs7dfkhshTrE4_4core3ptr13drop_in_placeINtNtCs7Qj1RmEtpUo_4pyo38instance2PyNtNtCsgvCG6cIdDjn_13crystal_topos15python_bindings12QuantumStateEEB1k_, symObjAddr: 0x48C, symBinAddr: 0xF1E4, symSize: 0x2C }
  - { offset: 0x2C11E, size: 0x8, addend: 0x0, symName: __RINvNtCs7dfkhshTrE4_4core3ptr13drop_in_placeINtNtCs7Qj1RmEtpUo_4pyo38instance5BoundNtNtCsgvCG6cIdDjn_13crystal_topos15python_bindings12QuantumStateEEB1n_, symObjAddr: 0x4B8, symBinAddr: 0xF210, symSize: 0x24 }
  - { offset: 0x2C14D, size: 0x8, addend: 0x0, symName: __RINvNtCs7dfkhshTrE4_4core3ptr13drop_in_placeINtNtNtCs2iVXuAemrgm_5alloc3vec9into_iter8IntoIterdEECsgvCG6cIdDjn_13crystal_topos, symObjAddr: 0x4DC, symBinAddr: 0xF234, symSize: 0x24 }
  - { offset: 0x2C17C, size: 0x8, addend: 0x0, symName: __RINvNtCs7dfkhshTrE4_4core3ptr13drop_in_placeINtNtNtNtB4_4iter8adapters3map3MapINtNtNtCs2iVXuAemrgm_5alloc3vec9into_iter8IntoIterdENCNvXs0_NtNtNtCs7Qj1RmEtpUo_4pyo311conversions3std3vecINtB1j_3VecdEINtNtB2i_10conversion6IntoPyINtNtB2i_8instance2PyNtNtNtB2i_5types3any5PyAnyEE7into_py0EECsgvCG6cIdDjn_13crystal_topos, symObjAddr: 0x500, symBinAddr: 0xF258, symSize: 0x24 }
  - { offset: 0x2C1AB, size: 0x8, addend: 0x0, symName: __RINvNtCs7dfkhshTrE4_4core3ptr13drop_in_placeINtNvXse_NtNtCs2iVXuAemrgm_5alloc3vec9into_iterINtBP_8IntoIterppENtNtNtB4_3ops4drop4Drop4drop9DropGuarddNtNtBT_5alloc6GlobalEECsgvCG6cIdDjn_13crystal_topos, symObjAddr: 0x548, symBinAddr: 0xF27C, symSize: 0x24 }
  - { offset: 0x2C1DA, size: 0x8, addend: 0x0, symName: __RINvNtCs7dfkhshTrE4_4core3ptr13drop_in_placeNCINvMsj_NtCs2iVXuAemrgm_5alloc3vecINtBP_3VecdE14extend_trustedINtNtNtNtB4_4iter8adapters3map3MapINtNtNtB4_3ops5range5RangejENCNvNtCsgvCG6cIdDjn_13crystal_topos7measure12sector_probss_0EE0EB2N_, symObjAddr: 0x56C, symBinAddr: 0xF2A0, symSize: 0x24 }
  - { offset: 0x2C209, size: 0x8, addend: 0x0, symName: __RINvNtCs7dfkhshTrE4_4core3ptr13drop_in_placeNCINvMsj_NtCs2iVXuAemrgm_5alloc3vecINtBP_3VecdE14extend_trustedINtNtNtNtB4_4iter8adapters3map3MapINtNtNtB4_5slice4iter4IterNtNtCsgvCG6cIdDjn_13crystal_topos4base2CxENCNvNtB2J_7measure10born_probs0EE0EB2J_, symObjAddr: 0x590, symBinAddr: 0xF2C4, symSize: 0x24 }
  - { offset: 0x2C238, size: 0x8, addend: 0x0, symName: __RINvNtCs7dfkhshTrE4_4core3ptr13drop_in_placeNCINvMsj_NtCs2iVXuAemrgm_5alloc3vecINtBP_3VecdE14extend_trustedINtNtNtNtB4_4iter8adapters3map3MapINtNtNtB4_5slice4iter4IterNtNtCsgvCG6cIdDjn_13crystal_topos4base2CxENCNvNtB2J_7measure12sector_probs0EE0EB2J_, symObjAddr: 0x5B4, symBinAddr: 0xF2E8, symSize: 0x24 }
  - { offset: 0x2C267, size: 0x8, addend: 0x0, symName: __RINvNtCs7dfkhshTrE4_4core3ptr13drop_in_placeNCINvNtNtNtB4_4iter8adapters3map8map_foldRNtNtCsgvCG6cIdDjn_13crystal_topos4base2CxduNCNvNtB1q_7measure10born_probs0NCINvNvNtNtNtBP_6traits8iterator8Iterator8for_each4calldNCINvMsj_NtCs2iVXuAemrgm_5alloc3vecINtB3B_3VecdE14extend_trustedINtBL_3MapINtNtNtB4_5slice4iter4IterB1m_EB23_EE0E0E0EB1q_, symObjAddr: 0x5D8, symBinAddr: 0xF30C, symSize: 0x24 }
  - { offset: 0x2C296, size: 0x8, addend: 0x0, symName: __RINvNtCs7dfkhshTrE4_4core3ptr13drop_in_placeNCINvNtNtNtB4_4iter8adapters3map8map_foldRNtNtCsgvCG6cIdDjn_13crystal_topos4base2CxduNCNvNtB1q_7measure12sector_probs0NCINvNvNtNtNtBP_6traits8iterator8Iterator8for_each4calldNCINvMsj_NtCs2iVXuAemrgm_5alloc3vecINtB3D_3VecdE14extend_trustedINtBL_3MapINtNtNtB4_5slice4iter4IterB1m_EB23_EE0E0E0EB1q_, symObjAddr: 0x5FC, symBinAddr: 0xF330, symSize: 0x24 }
  - { offset: 0x2C2C5, size: 0x8, addend: 0x0, symName: __RINvNtCs7dfkhshTrE4_4core3ptr13drop_in_placeNCINvNtNtNtB4_4iter8adapters3map8map_foldjduNCNvNtCsgvCG6cIdDjn_13crystal_topos7measure12sector_probss_0NCINvNvNtNtNtBP_6traits8iterator8Iterator8for_each4calldNCINvMsj_NtCs2iVXuAemrgm_5alloc3vecINtB3p_3VecdE14extend_trustedINtBL_3MapINtNtNtB4_3ops5range5RangejEB1o_EE0E0E0EB1u_, symObjAddr: 0x620, symBinAddr: 0xF354, symSize: 0x24 }
  - { offset: 0x2C2F4, size: 0x8, addend: 0x0, symName: __RINvNtCs7dfkhshTrE4_4core3ptr13drop_in_placeNCINvNvNtNtNtNtB4_4iter6traits8iterator8Iterator8for_each4calldNCINvMsj_NtCs2iVXuAemrgm_5alloc3vecINtB1Q_3VecdE14extend_trustedINtNtNtBT_8adapters3map3MapINtNtNtB4_3ops5range5RangejENCNvNtCsgvCG6cIdDjn_13crystal_topos7measure12sector_probss_0EE0E0EB3I_, symObjAddr: 0x644, symBinAddr: 0xF378, symSize: 0x24 }
  - { offset: 0x2C323, size: 0x8, addend: 0x0, symName: __RINvNtCs7dfkhshTrE4_4core3ptr13drop_in_placeNCINvNvNtNtNtNtB4_4iter6traits8iterator8Iterator8for_each4calldNCINvMsj_NtCs2iVXuAemrgm_5alloc3vecINtB1Q_3VecdE14extend_trustedINtNtNtBT_8adapters3map3MapINtNtNtB4_5slice4iter4IterNtNtCsgvCG6cIdDjn_13crystal_topos4base2CxENCNvNtB3E_7measure10born_probs0EE0E0EB3E_, symObjAddr: 0x668, symBinAddr: 0xF39C, symSize: 0x24 }
  - { offset: 0x2C352, size: 0x8, addend: 0x0, symName: __RINvNtCs7dfkhshTrE4_4core3ptr13drop_in_placeNCINvNvNtNtNtNtB4_4iter6traits8iterator8Iterator8for_each4calldNCINvMsj_NtCs2iVXuAemrgm_5alloc3vecINtB1Q_3VecdE14extend_trustedINtNtNtBT_8adapters3map3MapINtNtNtB4_5slice4iter4IterNtNtCsgvCG6cIdDjn_13crystal_topos4base2CxENCNvNtB3E_7measure12sector_probs0EE0E0EB3E_, symObjAddr: 0x68C, symBinAddr: 0xF3C0, symSize: 0x24 }
  - { offset: 0x2C381, size: 0x8, addend: 0x0, symName: __RINvNtCs7dfkhshTrE4_4core3ptr13drop_in_placeNtNtCsgvCG6cIdDjn_13crystal_topos15python_bindings12QuantumStateEBK_, symObjAddr: 0x6B0, symBinAddr: 0xF3E4, symSize: 0x24 }
  - { offset: 0x2C3B0, size: 0x8, addend: 0x0, symName: __RINvNtCs7dfkhshTrE4_4core3ptr13drop_in_placeNtNtCsgvCG6cIdDjn_13crystal_topos4base3MatEBK_, symObjAddr: 0x6D4, symBinAddr: 0xF408, symSize: 0x24 }
  - { offset: 0x2C3DF, size: 0x8, addend: 0x0, symName: __RINvNtCs7dfkhshTrE4_4core3ptr13drop_in_placeNtNtCsgvCG6cIdDjn_13crystal_topos4base4Vec_EBK_, symObjAddr: 0x6F8, symBinAddr: 0xF42C, symSize: 0x24 }
  - { offset: 0x2C40E, size: 0x8, addend: 0x0, symName: __RINvNtCs7dfkhshTrE4_4core3ptr13drop_in_placeNtNtNtCs2iVXuAemrgm_5alloc3vec15set_len_on_drop12SetLenOnDropECsgvCG6cIdDjn_13crystal_topos, symObjAddr: 0x71C, symBinAddr: 0xF450, symSize: 0x24 }
  - { offset: 0x2C63F, size: 0x8, addend: 0x0, symName: __RNvYNCNvNtNtCsgvCG6cIdDjn_13crystal_topos15python_bindings13crystal_topos11___pyo3_init0INtNtNtCs7dfkhshTrE4_4core3ops8function6FnOnceTNtNtCs7Qj1RmEtpUo_4pyo36marker6PythonEE9call_onceBa_, symObjAddr: 0x9E4, symBinAddr: 0xF694, symSize: 0x3C }
  - { offset: 0x2C683, size: 0x8, addend: 0x0, symName: __RNvYNvMs7_NtCs7Qj1RmEtpUo_4pyo38instanceINtB8_5BoundNtNtCsgvCG6cIdDjn_13crystal_topos15python_bindings12QuantumStateE6unbindINtNtNtCs7dfkhshTrE4_4core3ops8function6FnOnceTBC_EE9call_onceBS_, symObjAddr: 0xA20, symBinAddr: 0xF6D0, symSize: 0x24 }
  - { offset: 0x2C6C7, size: 0x8, addend: 0x0, symName: __RNvYNvYINtNtCs2iVXuAemrgm_5alloc6borrow3CowNtNtNtCs7dfkhshTrE4_4core3ffi5c_str4CStrENtNtNtBL_3ops5deref5Deref5derefINtNtB1o_8function6FnOnceTRB5_EE9call_onceCsgvCG6cIdDjn_13crystal_topos, symObjAddr: 0xA44, symBinAddr: 0xF6F4, symSize: 0x24 }
  - { offset: 0x2C70B, size: 0x8, addend: 0x0, symName: __RNvYNvYNtNtCs7Qj1RmEtpUo_4pyo36pycell13PyBorrowErrorINtNtCs7dfkhshTrE4_4core7convert4IntoNtNtB9_3err5PyErrE4intoINtNtNtBT_3ops8function6FnOnceTB5_EE9call_onceCsgvCG6cIdDjn_13crystal_topos, symObjAddr: 0xA68, symBinAddr: 0xF718, symSize: 0x24 }
  - { offset: 0x2CDF5, size: 0x8, addend: 0x0, symName: __RNvXs1_NtCs2iVXuAemrgm_5alloc7raw_vecINtB5_6RawVecNtNtCsgvCG6cIdDjn_13crystal_topos4base2CxENtNtNtCs7dfkhshTrE4_4core3ops4drop4Drop4dropBQ_, symObjAddr: 0x830, symBinAddr: 0xF4E0, symSize: 0x34 }
  - { offset: 0x2CE31, size: 0x8, addend: 0x0, symName: __RNvXs1_NtCs2iVXuAemrgm_5alloc7raw_vecINtB5_6RawVecdENtNtNtCs7dfkhshTrE4_4core3ops4drop4Drop4dropCsgvCG6cIdDjn_13crystal_topos, symObjAddr: 0x864, symBinAddr: 0xF514, symSize: 0x30 }
  - { offset: 0x2CEF1, size: 0x8, addend: 0x0, symName: __RNvXNvXse_NtNtCs2iVXuAemrgm_5alloc3vec9into_iterINtB8_8IntoIterppENtNtNtCs7dfkhshTrE4_4core3ops4drop4Drop4dropINtB2_9DropGuarddNtNtBc_5alloc6GlobalEB12_4dropCsgvCG6cIdDjn_13crystal_topos, symObjAddr: 0x7C4, symBinAddr: 0xF474, symSize: 0x6C }
  - { offset: 0x2D05D, size: 0x8, addend: 0x0, symName: __RNvXse_NtNtCs2iVXuAemrgm_5alloc3vec9into_iterINtB5_8IntoIterdENtNtNtCs7dfkhshTrE4_4core3ops4drop4Drop4dropCsgvCG6cIdDjn_13crystal_topos, symObjAddr: 0x938, symBinAddr: 0xF5E8, symSize: 0x64 }
  - { offset: 0x2D11E, size: 0x8, addend: 0x0, symName: __RNvXs_NtNtCs2iVXuAemrgm_5alloc3vec15set_len_on_dropNtB4_12SetLenOnDropNtNtNtCs7dfkhshTrE4_4core3ops4drop4Drop4dropCsgvCG6cIdDjn_13crystal_topos, symObjAddr: 0x918, symBinAddr: 0xF5C8, symSize: 0x20 }
  - { offset: 0x2D1C9, size: 0x8, addend: 0x0, symName: __RNvXso_NtCs2iVXuAemrgm_5alloc3vecINtB5_3VecNtNtCsgvCG6cIdDjn_13crystal_topos4base2CxENtNtNtCs7dfkhshTrE4_4core3ops4drop4Drop4dropBJ_, symObjAddr: 0x99C, symBinAddr: 0xF64C, symSize: 0x24 }
  - { offset: 0x2D279, size: 0x8, addend: 0x0, symName: __RNvXso_NtCs2iVXuAemrgm_5alloc3vecINtB5_3VecdENtNtNtCs7dfkhshTrE4_4core3ops4drop4Drop4dropCsgvCG6cIdDjn_13crystal_topos, symObjAddr: 0x9C0, symBinAddr: 0xF670, symSize: 0x24 }
  - { offset: 0x2D539, size: 0x8, addend: 0x0, symName: __RNvXs3_NtCs7Qj1RmEtpUo_4pyo36pycellINtB5_5PyRefNtNtCsgvCG6cIdDjn_13crystal_topos15python_bindings12QuantumStateENtNtNtCs7dfkhshTrE4_4core3ops4drop4Drop4dropBN_, symObjAddr: 0x894, symBinAddr: 0xF544, symSize: 0x2C }
  - { offset: 0x2D5AB, size: 0x8, addend: 0x0, symName: __RNvXs6_NtCs7Qj1RmEtpUo_4pyo38instanceINtB5_5BoundNtNtCsgvCG6cIdDjn_13crystal_topos15python_bindings12QuantumStateENtNtNtCs7dfkhshTrE4_4core3ops4drop4Drop4dropBP_, symObjAddr: 0x8C0, symBinAddr: 0xF570, symSize: 0x30 }
  - { offset: 0x2D602, size: 0x8, addend: 0x0, symName: __RNvXsA_NtCs7Qj1RmEtpUo_4pyo38instanceINtB5_2PyNtNtCsgvCG6cIdDjn_13crystal_topos15python_bindings12QuantumStateENtNtNtCs7dfkhshTrE4_4core3ops4drop4Drop4dropBM_, symObjAddr: 0x8F0, symBinAddr: 0xF5A0, symSize: 0x28 }
  - { offset: 0x2DFA4, size: 0x8, addend: 0x0, symName: __RNvXNtNtNtCs7dfkhshTrE4_4core4iter6traits7collectINtNtNtB6_8adapters4take4TakeQDNtNtB4_10exact_size17ExactSizeIteratorp4ItemINtNtCs7Qj1RmEtpUo_4pyo38instance2PyNtNtNtB23_5types3any5PyAnyEEL_ENtB2_12IntoIterator9into_iterCsgvCG6cIdDjn_13crystal_topos, symObjAddr: 0x0, symBinAddr: 0xF73C, symSize: 0x18 }
  - { offset: 0x2E04F, size: 0x8, addend: 0x0, symName: __RNvXNtNtNtCs7dfkhshTrE4_4core4iter6traits7collectINtNtNtB6_8adapters4take4TakeQDNtNtB4_10exact_size17ExactSizeIteratorp4ItemINtNtCs7Qj1RmEtpUo_4pyo38instance2PyNtNtNtB23_5types3any5PyAnyEEL_ENtB2_12IntoIterator9into_iterCsgvCG6cIdDjn_13crystal_topos, symObjAddr: 0x0, symBinAddr: 0xF73C, symSize: 0x18 }
  - { offset: 0x2E092, size: 0x8, addend: 0x0, symName: __RNvYINtNtNtNtCs7dfkhshTrE4_4core4iter8adapters4take4TakeNtNtNtCs7Qj1RmEtpUo_4pyo35types5tuple21BorrowedTupleIteratorENtNtNtB9_6traits8iterator8Iterator9enumerateCsgvCG6cIdDjn_13crystal_topos, symObjAddr: 0xC8, symBinAddr: 0xF804, symSize: 0x18 }
  - { offset: 0x2E0C3, size: 0x8, addend: 0x0, symName: __RNvYINtNtNtNtCs7dfkhshTrE4_4core4iter8adapters4take4TakeNtNtNtCs7Qj1RmEtpUo_4pyo35types5tuple21BorrowedTupleIteratorENtNtNtB9_6traits8iterator8Iterator9enumerateCsgvCG6cIdDjn_13crystal_topos, symObjAddr: 0xC8, symBinAddr: 0xF804, symSize: 0x18 }
  - { offset: 0x2E0F0, size: 0x8, addend: 0x0, symName: __RNvXs_NtNtNtCs7dfkhshTrE4_4core4iter8adapters4takeINtB4_4TakeNtNtNtCs7Qj1RmEtpUo_4pyo35types5tuple21BorrowedTupleIteratorENtNtNtB8_6traits8iterator8Iterator4nextCsgvCG6cIdDjn_13crystal_topos, symObjAddr: 0x18, symBinAddr: 0xF754, symSize: 0x58 }
  - { offset: 0x2E125, size: 0x8, addend: 0x0, symName: __RNvXs_NtNtNtCs7dfkhshTrE4_4core4iter8adapters4takeINtB4_4TakeQDNtNtNtB8_6traits10exact_size17ExactSizeIteratorp4ItemINtNtCs7Qj1RmEtpUo_4pyo38instance2PyNtNtNtB1V_5types3any5PyAnyEEL_ENtNtB13_8iterator8Iterator4nextCsgvCG6cIdDjn_13crystal_topos, symObjAddr: 0x70, symBinAddr: 0xF7AC, symSize: 0x58 }
  - { offset: 0x2E687, size: 0x8, addend: 0x0, symName: __RNvXNtNtNtCs7dfkhshTrE4_4core4iter6traits7collectNtNtNtNtCs7Qj1RmEtpUo_4pyo35types4dict13borrowed_iter16BorrowedDictIterNtB2_12IntoIterator9into_iterCsgvCG6cIdDjn_13crystal_topos, symObjAddr: 0x0, symBinAddr: 0xF81C, symSize: 0x18 }
  - { offset: 0x2E732, size: 0x8, addend: 0x0, symName: __RNvXNtNtNtCs7dfkhshTrE4_4core4iter6traits7collectNtNtNtNtCs7Qj1RmEtpUo_4pyo35types4dict13borrowed_iter16BorrowedDictIterNtB2_12IntoIterator9into_iterCsgvCG6cIdDjn_13crystal_topos, symObjAddr: 0x0, symBinAddr: 0xF81C, symSize: 0x18 }
  - { offset: 0x2EA21, size: 0x8, addend: 0x0, symName: __RNvNtNtCs7Qj1RmEtpUo_4pyo35types4list13new_from_iterCsgvCG6cIdDjn_13crystal_topos, symObjAddr: 0x0, symBinAddr: 0xF834, symSize: 0x280 }
  - { offset: 0x2EC19, size: 0x8, addend: 0x0, symName: __RNvNtNtCs7Qj1RmEtpUo_4pyo35types4list13new_from_iterCsgvCG6cIdDjn_13crystal_topos, symObjAddr: 0x0, symBinAddr: 0xF834, symSize: 0x280 }
  - { offset: 0x2EF65, size: 0x8, addend: 0x0, symName: __RINvMs2_NtCs7dfkhshTrE4_4core3fmtNtB6_9Arguments3newKj24_Kj1_ECsgvCG6cIdDjn_13crystal_topos, symObjAddr: 0x0, symBinAddr: 0xFAB4, symSize: 0x1C }
  - { offset: 0x2F0BC, size: 0x8, addend: 0x0, symName: __RNvXs1g_NtCs7dfkhshTrE4_4core3fmtRiNtB6_5Debug3fmtCsgvCG6cIdDjn_13crystal_topos, symObjAddr: 0x38, symBinAddr: 0xFAEC, symSize: 0x30 }
  - { offset: 0x2F314, size: 0x8, addend: 0x0, symName: __RINvMs2_NtCs7dfkhshTrE4_4core3fmtNtB6_9Arguments3newKj24_Kj1_ECsgvCG6cIdDjn_13crystal_topos, symObjAddr: 0x0, symBinAddr: 0xFAB4, symSize: 0x1C }
  - { offset: 0x2F37A, size: 0x8, addend: 0x0, symName: __RINvMs2_NtCs7dfkhshTrE4_4core3fmtNtB6_9Arguments3newKj28_Kj2_ECsgvCG6cIdDjn_13crystal_topos, symObjAddr: 0x1C, symBinAddr: 0xFAD0, symSize: 0x1C }
  - { offset: 0x2F3EB, size: 0x8, addend: 0x0, symName: __RNvXs7_NtNtCs7Qj1RmEtpUo_4pyo38internal8get_slotINtB5_4SlotKl4a_ENtB5_11GetSlotImpl8get_slotCsgvCG6cIdDjn_13crystal_topos, symObjAddr: 0x0, symBinAddr: 0xFB1C, symSize: 0x7C }
  - { offset: 0x2F49E, size: 0x8, addend: 0x0, symName: __RNvXs7_NtNtCs7Qj1RmEtpUo_4pyo38internal8get_slotINtB5_4SlotKl4a_ENtB5_11GetSlotImpl8get_slotCsgvCG6cIdDjn_13crystal_topos, symObjAddr: 0x0, symBinAddr: 0xFB1C, symSize: 0x7C }
  - { offset: 0x2F577, size: 0x8, addend: 0x0, symName: __RNCNvXs1_NtNtCs7Qj1RmEtpUo_4pyo35types3anyNtB7_5PyAnyNtNtBb_11type_object10PyTypeInfo15type_object_raw0CsgvCG6cIdDjn_13crystal_topos, symObjAddr: 0x0, symBinAddr: 0xFB98, symSize: 0x18 }
  - { offset: 0x2F622, size: 0x8, addend: 0x0, symName: __RNCNvXs1_NtNtCs7Qj1RmEtpUo_4pyo35types3anyNtB7_5PyAnyNtNtBb_11type_object10PyTypeInfo15type_object_raw0CsgvCG6cIdDjn_13crystal_topos, symObjAddr: 0x0, symBinAddr: 0xFB98, symSize: 0x18 }
  - { offset: 0x2F6AC, size: 0x8, addend: 0x0, symName: __RNvYNtNtNtCs7Qj1RmEtpUo_4pyo35types3any5PyAnyNtNtB8_11type_object10PyTypeInfo17type_object_boundCsgvCG6cIdDjn_13crystal_topos, symObjAddr: 0x18, symBinAddr: 0xFBB0, symSize: 0x30 }
  - { offset: 0x2F963, size: 0x8, addend: 0x0, symName: __RNvXs2_NtCs7Qj1RmEtpUo_4pyo38callbackNtNtCs2iVXuAemrgm_5alloc6string6StringINtB5_20IntoPyCallbackOutputONtNtCsgh2hkQkDkI2_8pyo3_ffi6object8PyObjectE7convertCsgvCG6cIdDjn_13crystal_topos, symObjAddr: 0x0, symBinAddr: 0xFBE0, symSize: 0x48 }
  - { offset: 0x2FA04, size: 0x8, addend: 0x0, symName: __RNvXs2_NtCs7Qj1RmEtpUo_4pyo38callbackNtNtCs2iVXuAemrgm_5alloc6string6StringINtB5_20IntoPyCallbackOutputONtNtCsgh2hkQkDkI2_8pyo3_ffi6object8PyObjectE7convertCsgvCG6cIdDjn_13crystal_topos, symObjAddr: 0x0, symBinAddr: 0xFBE0, symSize: 0x48 }
  - { offset: 0x2FFE6, size: 0x8, addend: 0x0, symName: __RNvXs1_NtNtCs7Qj1RmEtpUo_4pyo35types3anyNtB5_5PyAnyNtNtB9_11type_object10PyTypeInfo15type_object_rawCsgvCG6cIdDjn_13crystal_topos, symObjAddr: 0x0, symBinAddr: 0xFC28, symSize: 0x24 }
  - { offset: 0x3004D, size: 0x8, addend: 0x0, symName: __RNvXs1_NtNtCs7Qj1RmEtpUo_4pyo35types3anyNtB5_5PyAnyNtNtB9_11type_object10PyTypeInfo15type_object_rawCsgvCG6cIdDjn_13crystal_topos, symObjAddr: 0x0, symBinAddr: 0xFC28, symSize: 0x24 }
  - { offset: 0x301C9, size: 0x8, addend: 0x0, symName: __RINvXs2J_NtNtCs7dfkhshTrE4_4core5slice4iterINtB7_4IterNtNtCsgvCG6cIdDjn_13crystal_topos4base2CxENtNtNtNtBb_4iter6traits8iterator8Iterator4foldBQ_NCNvNtBU_10algorithms11grover_step0EBU_, symObjAddr: 0x0, symBinAddr: 0xFC4C, symSize: 0x234 }
  - { offset: 0x30A61, size: 0x8, addend: 0x0, symName: __RINvXs2J_NtNtCs7dfkhshTrE4_4core5slice4iterINtB7_4IterNtNtCsgvCG6cIdDjn_13crystal_topos4base2CxENtNtNtNtBb_4iter6traits8iterator8Iterator4foldBQ_NCNvNtBU_10algorithms11grover_step0EBU_, symObjAddr: 0x0, symBinAddr: 0xFC4C, symSize: 0x234 }
  - { offset: 0x30C6A, size: 0x8, addend: 0x0, symName: __RINvXs2J_NtNtCs7dfkhshTrE4_4core5slice4iterINtB7_4IterNtNtCsgvCG6cIdDjn_13crystal_topos4base2CxENtNtNtNtBb_4iter6traits8iterator8Iterator4folddNCINvNtNtB1C_8adapters3map8map_foldRBQ_ddNCNvMs3_BS_NtBS_4Vec_4norm0NCINvXs26_NtB1A_5accumdNtB3x_3Sum3sumINtB2m_3MapBF_B2W_EE0E0EBU_, symObjAddr: 0x234, symBinAddr: 0xFE80, symSize: 0x1D8 }
  - { offset: 0x30E70, size: 0x8, addend: 0x0, symName: __RINvXs2J_NtNtCs7dfkhshTrE4_4core5slice4iterINtB7_4IterNtNtCsgvCG6cIdDjn_13crystal_topos4base2CxENtNtNtNtBb_4iter6traits8iterator8Iterator4folduNCINvNtNtB1C_8adapters3map8map_foldRBQ_duNCNvNtBU_7measure10born_probs0NCINvNvB1w_8for_each4calldNCINvMsj_NtCs2iVXuAemrgm_5alloc3vecINtB3Z_3VecdE14extend_trustedINtB2m_3MapBF_B2W_EE0E0E0EBU_, symObjAddr: 0x40C, symBinAddr: 0x10058, symSize: 0x1C8 }
  - { offset: 0x31070, size: 0x8, addend: 0x0, symName: __RINvXs2J_NtNtCs7dfkhshTrE4_4core5slice4iterINtB7_4IterNtNtCsgvCG6cIdDjn_13crystal_topos4base2CxENtNtNtNtBb_4iter6traits8iterator8Iterator4folduNCINvNtNtB1C_8adapters3map8map_foldRBQ_duNCNvNtBU_7measure12sector_probs0NCINvNvB1w_8for_each4calldNCINvMsj_NtCs2iVXuAemrgm_5alloc3vecINtB41_3VecdE14extend_trustedINtB2m_3MapBF_B2W_EE0E0E0EBU_, symObjAddr: 0x5D4, symBinAddr: 0x10220, symSize: 0x1C8 }
  - { offset: 0x312BF, size: 0x8, addend: 0x0, symName: __RINvXs2J_NtNtCs7dfkhshTrE4_4core5slice4iterINtB7_4IterNtNtNtCs7Qj1RmEtpUo_4pyo35impl_16extract_argument31KeywordOnlyParameterDescriptionENtNtNtNtBb_4iter6traits8iterator8Iterator8positionNCNvMs3_BS_NtBS_19FunctionDescription38find_keyword_parameter_in_keyword_only0ECsgvCG6cIdDjn_13crystal_topos, symObjAddr: 0x79C, symBinAddr: 0x103E8, symSize: 0x1B8 }
  - { offset: 0x31519, size: 0x8, addend: 0x0, symName: __RINvXs2J_NtNtCs7dfkhshTrE4_4core5slice4iterINtB7_4IterReENtNtNtNtBb_4iter6traits8iterator8Iterator8positionNCNvMs3_NtNtCs7Qj1RmEtpUo_4pyo35impl_16extract_argumentNtB1P_19FunctionDescription36find_keyword_parameter_in_positional0ECsgvCG6cIdDjn_13crystal_topos, symObjAddr: 0x954, symBinAddr: 0x105A0, symSize: 0x1B8 }
  - { offset: 0x31724, size: 0x8, addend: 0x0, symName: __RNvXs2J_NtNtCs7dfkhshTrE4_4core5slice4iterINtB6_4IterNtNtCsgvCG6cIdDjn_13crystal_topos4base2CxENtNtNtNtBa_4iter6traits8iterator8Iterator4nextBT_, symObjAddr: 0xBB0, symBinAddr: 0x107FC, symSize: 0x84 }
  - { offset: 0x317DA, size: 0x8, addend: 0x0, symName: __RNvXs2J_NtNtCs7dfkhshTrE4_4core5slice4iterINtB6_4IterNtNtCsgvCG6cIdDjn_13crystal_topos4base2CxENtNtNtNtBa_4iter6traits8iterator8Iterator9size_hintBT_, symObjAddr: 0xC34, symBinAddr: 0x10880, symSize: 0xB4 }
  - { offset: 0x319CD, size: 0x8, addend: 0x0, symName: __RNvXs2R_NtNtCs7dfkhshTrE4_4core5slice4iterINtB6_7IterMutNtNtCsgvCG6cIdDjn_13crystal_topos4base2CxENtNtNtNtBa_4iter6traits8iterator8Iterator4nextBW_, symObjAddr: 0xCE8, symBinAddr: 0x10934, symSize: 0x84 }
  - { offset: 0x31D40, size: 0x8, addend: 0x0, symName: __RINvYINtNtNtCs7dfkhshTrE4_4core5slice4iter4IterNtNtCsgvCG6cIdDjn_13crystal_topos4base2CxENtNtNtNtBa_4iter6traits8iterator8Iterator3mapdNCNvMs3_BL_NtBL_4Vec_4norm0EBN_, symObjAddr: 0xB0C, symBinAddr: 0x10758, symSize: 0x1C }
  - { offset: 0x31D98, size: 0x8, addend: 0x0, symName: __RINvYINtNtNtCs7dfkhshTrE4_4core5slice4iter4IterNtNtCsgvCG6cIdDjn_13crystal_topos4base2CxENtNtNtNtBa_4iter6traits8iterator8Iterator3mapdNCNvNtBN_7measure10born_probs0EBN_, symObjAddr: 0xB28, symBinAddr: 0x10774, symSize: 0x1C }
  - { offset: 0x31DF0, size: 0x8, addend: 0x0, symName: __RINvYINtNtNtCs7dfkhshTrE4_4core5slice4iter4IterNtNtCsgvCG6cIdDjn_13crystal_topos4base2CxENtNtNtNtBa_4iter6traits8iterator8Iterator3mapdNCNvNtBN_7measure12sector_probs0EBN_, symObjAddr: 0xB44, symBinAddr: 0x10790, symSize: 0x1C }
  - { offset: 0x3248D, size: 0x8, addend: 0x0, symName: __RNvMs4_NtNtCs7dfkhshTrE4_4core5slice4iterINtB5_4IterNtNtCsgvCG6cIdDjn_13crystal_topos4base2CxE3newBS_, symObjAddr: 0xB60, symBinAddr: 0x107AC, symSize: 0x50 }
  - { offset: 0x32730, size: 0x8, addend: 0x0, symName: __RINvNtNtCs7Qj1RmEtpUo_4pyo35impl_7pyclass10tp_deallocNtNtCsgvCG6cIdDjn_13crystal_topos15python_bindings12QuantumStateEBT_, symObjAddr: 0x0, symBinAddr: 0x109B8, symSize: 0x34 }
  - { offset: 0x32978, size: 0x8, addend: 0x0, symName: __RINvNtNtCs7Qj1RmEtpUo_4pyo35impl_7pyclass10tp_deallocNtNtCsgvCG6cIdDjn_13crystal_topos15python_bindings12QuantumStateEBT_, symObjAddr: 0x0, symBinAddr: 0x109B8, symSize: 0x34 }
  - { offset: 0x329AB, size: 0x8, addend: 0x0, symName: __RINvNtNtCs7Qj1RmEtpUo_4pyo35impl_7pyclass18tp_dealloc_with_gcNtNtCsgvCG6cIdDjn_13crystal_topos15python_bindings12QuantumStateEB11_, symObjAddr: 0x34, symBinAddr: 0x109EC, symSize: 0x4C }
  - { offset: 0x32A34, size: 0x8, addend: 0x0, symName: __RNvXsa_NtNtCs7Qj1RmEtpUo_4pyo35impl_7pyclassRINtB5_20PyClassImplCollectorNtNtCsgvCG6cIdDjn_13crystal_topos15python_bindings12QuantumStateEINtB5_23PyClassNewTextSignatureB19_E18new_text_signatureB1d_, symObjAddr: 0x84, symBinAddr: 0x10A3C, symSize: 0x14 }
  - { offset: 0x32A71, size: 0x8, addend: 0x0, symName: __RNvXsb_NtNtCs7Qj1RmEtpUo_4pyo35impl_7pyclassINtB5_15SendablePyClassNtNtCsgvCG6cIdDjn_13crystal_topos15python_bindings12QuantumStateEINtB5_20PyClassThreadCheckerB13_E3newB17_, symObjAddr: 0x98, symBinAddr: 0x10A50, symSize: 0x4 }
  - { offset: 0x32A95, size: 0x8, addend: 0x0, symName: __RNvXsb_NtNtCs7Qj1RmEtpUo_4pyo35impl_7pyclassINtB5_15SendablePyClassNtNtCsgvCG6cIdDjn_13crystal_topos15python_bindings12QuantumStateEINtB5_20PyClassThreadCheckerB13_E6ensureB17_, symObjAddr: 0x9C, symBinAddr: 0x10A54, symSize: 0x10 }
  - { offset: 0x32AC8, size: 0x8, addend: 0x0, symName: __RNvXsb_NtNtCs7Qj1RmEtpUo_4pyo35impl_7pyclassINtB5_15SendablePyClassNtNtCsgvCG6cIdDjn_13crystal_topos15python_bindings12QuantumStateEINtB5_20PyClassThreadCheckerB13_E8can_dropB17_, symObjAddr: 0xAC, symBinAddr: 0x10A64, symSize: 0x18 }
  - { offset: 0x32B20, size: 0x8, addend: 0x0, symName: __RNvYNtNtNtCs7Qj1RmEtpUo_4pyo35impl_7pyclass16PyClassDummySlotNtB4_11PyClassDict10clear_dictCsgvCG6cIdDjn_13crystal_topos, symObjAddr: 0xC4, symBinAddr: 0x10A7C, symSize: 0x10 }
  - { offset: 0x32B70, size: 0x8, addend: 0x0, symName: __RNvYNtNtNtCs7Qj1RmEtpUo_4pyo35impl_7pyclass16PyClassDummySlotNtB4_14PyClassWeakRef14clear_weakrefsCsgvCG6cIdDjn_13crystal_topos, symObjAddr: 0xD4, symBinAddr: 0x10A8C, symSize: 0x14 }
  - { offset: 0x32DFF, size: 0x8, addend: 0x0, symName: __RNvMs2_NtNtCs7Qj1RmEtpUo_4pyo35impl_7pyclassINtB5_20PyClassImplCollectorNtNtCsgvCG6cIdDjn_13crystal_topos15python_bindings12QuantumStateE3newB1c_, symObjAddr: 0x80, symBinAddr: 0x10A38, symSize: 0x4 }
  - { offset: 0x32ECE, size: 0x8, addend: 0x0, symName: __RNvNvNtCs7dfkhshTrE4_4core3ptr19copy_nonoverlapping18precondition_checkCsgvCG6cIdDjn_13crystal_topos, symObjAddr: 0x0, symBinAddr: 0x10AA0, symSize: 0x168 }
  - { offset: 0x32FB6, size: 0x8, addend: 0x0, symName: __RNvNvNtCs7dfkhshTrE4_4core3ptr19copy_nonoverlapping18precondition_checkCsgvCG6cIdDjn_13crystal_topos, symObjAddr: 0x0, symBinAddr: 0x10AA0, symSize: 0x168 }
  - { offset: 0x331E8, size: 0x8, addend: 0x0, symName: __RNvXs0_NtNtNtCs7Qj1RmEtpUo_4pyo311conversions3std6stringReINtNtBb_10conversion6IntoPyINtNtBb_8instance2PyNtNtNtBb_5types6string8PyStringEE7into_pyCsgvCG6cIdDjn_13crystal_topos, symObjAddr: 0x0, symBinAddr: 0x10C08, symSize: 0x34 }
  - { offset: 0x33293, size: 0x8, addend: 0x0, symName: __RNvXs0_NtNtNtCs7Qj1RmEtpUo_4pyo311conversions3std6stringReINtNtBb_10conversion6IntoPyINtNtBb_8instance2PyNtNtNtBb_5types6string8PyStringEE7into_pyCsgvCG6cIdDjn_13crystal_topos, symObjAddr: 0x0, symBinAddr: 0x10C08, symSize: 0x34 }
  - { offset: 0x33536, size: 0x8, addend: 0x0, symName: __RNvNtNtCs7Qj1RmEtpUo_4pyo35impl_10trampoline11module_initCsgvCG6cIdDjn_13crystal_topos, symObjAddr: 0x0, symBinAddr: 0x10C3C, symSize: 0x28 }
  - { offset: 0x335D7, size: 0x8, addend: 0x0, symName: __RNvNtNtCs7Qj1RmEtpUo_4pyo35impl_10trampoline11module_initCsgvCG6cIdDjn_13crystal_topos, symObjAddr: 0x0, symBinAddr: 0x10C3C, symSize: 0x28 }
  - { offset: 0x33603, size: 0x8, addend: 0x0, symName: __RNvNtNtCs7Qj1RmEtpUo_4pyo35impl_10trampoline23cfunction_with_keywordsCsgvCG6cIdDjn_13crystal_topos, symObjAddr: 0x28, symBinAddr: 0x10C64, symSize: 0x50 }
  - { offset: 0x33659, size: 0x8, addend: 0x0, symName: __RNvNtNtCs7Qj1RmEtpUo_4pyo35impl_10trampoline6noargsCsgvCG6cIdDjn_13crystal_topos, symObjAddr: 0x78, symBinAddr: 0x10CB4, symSize: 0x64 }
  - { offset: 0x336A1, size: 0x8, addend: 0x0, symName: __RNvNtNtCs7Qj1RmEtpUo_4pyo35impl_10trampoline7deallocCsgvCG6cIdDjn_13crystal_topos, symObjAddr: 0xDC, symBinAddr: 0x10D18, symSize: 0x34 }
  - { offset: 0x336D7, size: 0x8, addend: 0x0, symName: __RNvNtNtCs7Qj1RmEtpUo_4pyo35impl_10trampoline8reprfuncCsgvCG6cIdDjn_13crystal_topos, symObjAddr: 0x110, symBinAddr: 0x10D4C, symSize: 0x30 }
  - { offset: 0x33C85, size: 0x8, addend: 0x0, symName: __RINvMNtCs7dfkhshTrE4_4core6optionINtB3_6OptionINtNtCs7Qj1RmEtpUo_4pyo38instance8BorrowedNtNtNtBN_5types3any5PyAnyEE3mapIBJ_NtNtB1s_4dict6PyDictENCINvMs3_NtNtBN_5impl_16extract_argumentNtB2r_19FunctionDescription28extract_arguments_tuple_dictNtB2r_9NoVarargsNtB2r_13NoVarkeywordsE0ECsgvCG6cIdDjn_13crystal_topos, symObjAddr: 0x0, symBinAddr: 0x10D7C, symSize: 0x50 }
  - { offset: 0x3499C, size: 0x8, addend: 0x0, symName: __RINvMNtCs7dfkhshTrE4_4core6optionINtB3_6OptionINtNtCs7Qj1RmEtpUo_4pyo38instance8BorrowedNtNtNtBN_5types3any5PyAnyEE3mapIBJ_NtNtB1s_4dict6PyDictENCINvMs3_NtNtBN_5impl_16extract_argumentNtB2r_19FunctionDescription28extract_arguments_tuple_dictNtB2r_9NoVarargsNtB2r_13NoVarkeywordsE0ECsgvCG6cIdDjn_13crystal_topos, symObjAddr: 0x0, symBinAddr: 0x10D7C, symSize: 0x50 }
  - { offset: 0x34A14, size: 0x8, addend: 0x0, symName: __RINvMNtCs7dfkhshTrE4_4core6optionINtB3_6OptionINtNtNtB5_3ptr8non_null7NonNullNtNtCsgh2hkQkDkI2_8pyo3_ffi6object8PyObjectEE3mapINtNtCs7Qj1RmEtpUo_4pyo38instance8BorrowedNtNtNtB25_5types3any5PyAnyENCNvMsa_B23_B20_15from_ptr_or_opt0ECsgvCG6cIdDjn_13crystal_topos, symObjAddr: 0x50, symBinAddr: 0x10DCC, symSize: 0x5C }
  - { offset: 0x34AF9, size: 0x8, addend: 0x0, symName: __RNvMNtCs7dfkhshTrE4_4core6optionINtB2_6OptionFUKCONtNtB4_3ffi6c_voidEuE6expectCsgvCG6cIdDjn_13crystal_topos, symObjAddr: 0xAC, symBinAddr: 0x10E28, symSize: 0x5C }
  - { offset: 0x34CEB, size: 0x8, addend: 0x0, symName: __RNvMNtCs7dfkhshTrE4_4core6optionINtB2_6OptionINtNtCs2iVXuAemrgm_5alloc6borrow3CowNtNtNtB4_3ffi5c_str4CStrEE6as_refCsgvCG6cIdDjn_13crystal_topos, symObjAddr: 0x108, symBinAddr: 0x10E84, symSize: 0x4C }
  - { offset: 0x34D3C, size: 0x8, addend: 0x0, symName: __RNvMNtCs7dfkhshTrE4_4core6optionINtB2_6OptionINtNtCs2iVXuAemrgm_5alloc6borrow3CowNtNtNtB4_3ffi5c_str4CStrEE7is_someCsgvCG6cIdDjn_13crystal_topos, symObjAddr: 0x154, symBinAddr: 0x10ED0, symSize: 0x28 }
  - { offset: 0x34E49, size: 0x8, addend: 0x0, symName: __RNvMNtCs7dfkhshTrE4_4core6optionINtB2_6OptionINtNtCs7Qj1RmEtpUo_4pyo36pycell5PyRefNtNtCsgvCG6cIdDjn_13crystal_topos15python_bindings12QuantumStateEE6insertB1m_, symObjAddr: 0x17C, symBinAddr: 0x10EF8, symSize: 0xA8 }
  - { offset: 0x34F08, size: 0x8, addend: 0x0, symName: __RNvMNtCs7dfkhshTrE4_4core6optionINtB2_6OptionINtNtCs7Qj1RmEtpUo_4pyo38instance2PyNtNtNtBM_5types3any5PyAnyEE7is_noneCsgvCG6cIdDjn_13crystal_topos, symObjAddr: 0x224, symBinAddr: 0x10FA0, symSize: 0x28 }
  - { offset: 0x34F5F, size: 0x8, addend: 0x0, symName: __RNvMNtCs7dfkhshTrE4_4core6optionINtB2_6OptionINtNtCs7Qj1RmEtpUo_4pyo38instance8BorrowedNtNtNtBM_5types3any5PyAnyEE7is_someCsgvCG6cIdDjn_13crystal_topos, symObjAddr: 0x24C, symBinAddr: 0x10FC8, symSize: 0x28 }
  - { offset: 0x34F98, size: 0x8, addend: 0x0, symName: __RNvMNtCs7dfkhshTrE4_4core6optionINtB2_6OptionINtNtCs7Qj1RmEtpUo_4pyo38instance8BorrowedNtNtNtBM_5types3any5PyAnyEE7replaceCsgvCG6cIdDjn_13crystal_topos, symObjAddr: 0x274, symBinAddr: 0x10FF0, symSize: 0x28 }
  - { offset: 0x350AB, size: 0x8, addend: 0x0, symName: __RNvMNtCs7dfkhshTrE4_4core6optionINtB2_6OptionINtNtCs7Qj1RmEtpUo_4pyo38instance8BorrowedNtNtNtBM_5types3any5PyAnyEE8as_derefCsgvCG6cIdDjn_13crystal_topos, symObjAddr: 0x29C, symBinAddr: 0x11018, symSize: 0x6C }
  - { offset: 0x35172, size: 0x8, addend: 0x0, symName: __RNvMs3_NtCs2iVXuAemrgm_5alloc7raw_vecINtB5_6RawVecReE8grow_oneCsgvCG6cIdDjn_13crystal_topos, symObjAddr: 0x0, symBinAddr: 0x11084, symSize: 0x88 }
  - { offset: 0x356E0, size: 0x8, addend: 0x0, symName: __RNvMs3_NtCs2iVXuAemrgm_5alloc7raw_vecINtB5_6RawVecReE8grow_oneCsgvCG6cIdDjn_13crystal_topos, symObjAddr: 0x0, symBinAddr: 0x11084, symSize: 0x88 }
  - { offset: 0x35769, size: 0x8, addend: 0x0, symName: __RNvXs2_NtCs2iVXuAemrgm_5alloc5allocNtB5_6GlobalNtNtCs7dfkhshTrE4_4core5clone5Clone5cloneCsgvCG6cIdDjn_13crystal_topos, symObjAddr: 0x0, symBinAddr: 0x1110C, symSize: 0x10 }
  - { offset: 0x35785, size: 0x8, addend: 0x0, symName: __RNvXs2_NtCs2iVXuAemrgm_5alloc5allocNtB5_6GlobalNtNtCs7dfkhshTrE4_4core5clone5Clone5cloneCsgvCG6cIdDjn_13crystal_topos, symObjAddr: 0x0, symBinAddr: 0x1110C, symSize: 0x10 }
  - { offset: 0x357E3, size: 0x8, addend: 0x0, symName: __RNvMNtCskXqYSXpV4rx_3std3f64d2lnCsgvCG6cIdDjn_13crystal_topos, symObjAddr: 0x0, symBinAddr: 0x1111C, symSize: 0x28 }
  - { offset: 0x357FF, size: 0x8, addend: 0x0, symName: __RNvMNtCskXqYSXpV4rx_3std3f64d2lnCsgvCG6cIdDjn_13crystal_topos, symObjAddr: 0x0, symBinAddr: 0x1111C, symSize: 0x28 }
  - { offset: 0x3582D, size: 0x8, addend: 0x0, symName: __RNvMNtCskXqYSXpV4rx_3std3f64d3cosCsgvCG6cIdDjn_13crystal_topos, symObjAddr: 0x28, symBinAddr: 0x11144, symSize: 0x28 }
  - { offset: 0x3585B, size: 0x8, addend: 0x0, symName: __RNvMNtCskXqYSXpV4rx_3std3f64d3expCsgvCG6cIdDjn_13crystal_topos, symObjAddr: 0x50, symBinAddr: 0x1116C, symSize: 0x28 }
  - { offset: 0x35889, size: 0x8, addend: 0x0, symName: __RNvMNtCskXqYSXpV4rx_3std3f64d3sinCsgvCG6cIdDjn_13crystal_topos, symObjAddr: 0x78, symBinAddr: 0x11194, symSize: 0x28 }
  - { offset: 0x358B7, size: 0x8, addend: 0x0, symName: __RNvMNtCskXqYSXpV4rx_3std3f64d4sqrtCsgvCG6cIdDjn_13crystal_topos, symObjAddr: 0xA0, symBinAddr: 0x111BC, symSize: 0x1C }
  - { offset: 0x3595B, size: 0x8, addend: 0x0, symName: __RNvMs7_NtCs7dfkhshTrE4_4core4cellINtB5_4CellNtNtNtCs7Qj1RmEtpUo_4pyo36pycell5impl_10BorrowFlagE3newCsgvCG6cIdDjn_13crystal_topos, symObjAddr: 0x0, symBinAddr: 0x111D8, symSize: 0x10 }
  - { offset: 0x359FD, size: 0x8, addend: 0x0, symName: __RNvMs7_NtCs7dfkhshTrE4_4core4cellINtB5_4CellNtNtNtCs7Qj1RmEtpUo_4pyo36pycell5impl_10BorrowFlagE3newCsgvCG6cIdDjn_13crystal_topos, symObjAddr: 0x0, symBinAddr: 0x111D8, symSize: 0x10 }
  - { offset: 0x35A47, size: 0x8, addend: 0x0, symName: __RNvXs0_NtNtCs7dfkhshTrE4_4core5slice5indexjINtB5_10SliceIndexSNtNtCsgvCG6cIdDjn_13crystal_topos4base2CxE5indexB12_, symObjAddr: 0x0, symBinAddr: 0x111E8, symSize: 0x5C }
  - { offset: 0x35A68, size: 0x8, addend: 0x0, symName: __RNvXs0_NtNtCs7dfkhshTrE4_4core5slice5indexjINtB5_10SliceIndexSNtNtCsgvCG6cIdDjn_13crystal_topos4base2CxE5indexB12_, symObjAddr: 0x0, symBinAddr: 0x111E8, symSize: 0x5C }
  - { offset: 0x35AAE, size: 0x8, addend: 0x0, symName: __RNvXs0_NtNtCs7dfkhshTrE4_4core5slice5indexjINtB5_10SliceIndexSNtNtCsgvCG6cIdDjn_13crystal_topos4base2CxE9index_mutB12_, symObjAddr: 0x5C, symBinAddr: 0x11244, symSize: 0x5C }
  - { offset: 0x35BB0, size: 0x8, addend: 0x0, symName: __RNvNtCsgvCG6cIdDjn_13crystal_topos8entangle10bell_state, symObjAddr: 0x0, symBinAddr: 0x112A0, symSize: 0x204 }
  - { offset: 0x35BC7, size: 0x8, addend: 0x0, symName: __RNvNtCsgvCG6cIdDjn_13crystal_topos8entangle10bell_state, symObjAddr: 0x0, symBinAddr: 0x112A0, symSize: 0x204 }
  - { offset: 0x35C33, size: 0x8, addend: 0x0, symName: __RNvNtCsgvCG6cIdDjn_13crystal_topos8entangle11concurrence, symObjAddr: 0x204, symBinAddr: 0x114A4, symSize: 0x1A8 }
  - { offset: 0x35CF1, size: 0x8, addend: 0x0, symName: __RNvNtCsgvCG6cIdDjn_13crystal_topos8entangle13ent_formation, symObjAddr: 0x3AC, symBinAddr: 0x1164C, symSize: 0x70 }
  - { offset: 0x35D1D, size: 0x8, addend: 0x0, symName: __RNvNtCsgvCG6cIdDjn_13crystal_topos8entangle13max_entangled, symObjAddr: 0x41C, symBinAddr: 0x116BC, symSize: 0x1C8 }
  - { offset: 0x35D90, size: 0x8, addend: 0x0, symName: __RNvNtCsgvCG6cIdDjn_13crystal_topos8entangle13partial_trace, symObjAddr: 0x5E4, symBinAddr: 0x11884, symSize: 0x558 }
  - { offset: 0x35EF8, size: 0x8, addend: 0x0, symName: __RNvNtCsgvCG6cIdDjn_13crystal_topos8entangle19von_neumann_entropy, symObjAddr: 0xB3C, symBinAddr: 0x11DDC, symSize: 0xC0 }
  - { offset: 0x35F78, size: 0x8, addend: 0x0, symName: __RNvNtCsgvCG6cIdDjn_13crystal_topos8entangle8ppt_test, symObjAddr: 0xBFC, symBinAddr: 0x11E9C, symSize: 0x210 }
  - { offset: 0x3629F, size: 0x8, addend: 0x0, symName: __RNvXsa_NtCsgvCG6cIdDjn_13crystal_topos15python_bindingsINtNtNtCs7Qj1RmEtpUo_4pyo35impl_7pyclass20PyClassImplCollectorNtB5_12QuantumStateEINtBU_9PyMethodsB1R_E10py_methods, symObjAddr: 0x0, symBinAddr: 0x120AC, symSize: 0x14 }
  - { offset: 0x3673F, size: 0x8, addend: 0x0, symName: __RNvXsa_NtCsgvCG6cIdDjn_13crystal_topos15python_bindingsINtNtNtCs7Qj1RmEtpUo_4pyo35impl_7pyclass20PyClassImplCollectorNtB5_12QuantumStateEINtBU_9PyMethodsB1R_E10py_methods, symObjAddr: 0x0, symBinAddr: 0x120AC, symSize: 0x14 }
  - { offset: 0x36F65, size: 0x8, addend: 0x0, symName: __RNvXs3_NtNtCs7Qj1RmEtpUo_4pyo36pycell5impl_NtB5_13BorrowCheckerNtB5_20PyClassBorrowChecker3newCsgvCG6cIdDjn_13crystal_topos, symObjAddr: 0x0, symBinAddr: 0x120C0, symSize: 0x18 }
  - { offset: 0x36F86, size: 0x8, addend: 0x0, symName: __RNvXs3_NtNtCs7Qj1RmEtpUo_4pyo36pycell5impl_NtB5_13BorrowCheckerNtB5_20PyClassBorrowChecker3newCsgvCG6cIdDjn_13crystal_topos, symObjAddr: 0x0, symBinAddr: 0x120C0, symSize: 0x18 }
  - { offset: 0x3703E, size: 0x8, addend: 0x0, symName: __RNvNvMs9_NtCs7dfkhshTrE4_4core3numj13unchecked_add18precondition_checkCsgvCG6cIdDjn_13crystal_topos, symObjAddr: 0x0, symBinAddr: 0x120D8, symSize: 0x64 }
  - { offset: 0x37089, size: 0x8, addend: 0x0, symName: __RNvNvMs9_NtCs7dfkhshTrE4_4core3numj13unchecked_add18precondition_checkCsgvCG6cIdDjn_13crystal_topos, symObjAddr: 0x0, symBinAddr: 0x120D8, symSize: 0x64 }
  - { offset: 0x3717E, size: 0x8, addend: 0x0, symName: __RNvMs_NtNtCs7dfkhshTrE4_4core3mem13manually_dropINtB4_12ManuallyDropINtNtB8_4cell10UnsafeCellNtNtCsgvCG6cIdDjn_13crystal_topos15python_bindings12QuantumStateEE4dropB1x_, symObjAddr: 0x0, symBinAddr: 0x1213C, symSize: 0x20 }
  - { offset: 0x3740B, size: 0x8, addend: 0x0, symName: __RNvMs_NtNtCs7dfkhshTrE4_4core3mem13manually_dropINtB4_12ManuallyDropINtNtB8_4cell10UnsafeCellNtNtCsgvCG6cIdDjn_13crystal_topos15python_bindings12QuantumStateEE4dropB1x_, symObjAddr: 0x0, symBinAddr: 0x1213C, symSize: 0x20 }
  - { offset: 0x37455, size: 0x8, addend: 0x0, symName: __RNCNvNtCsgvCG6cIdDjn_13crystal_topos10algorithms11grover_step0B5_, symObjAddr: 0x0, symBinAddr: 0x1215C, symSize: 0x40 }
  - { offset: 0x37471, size: 0x8, addend: 0x0, symName: __RNCNvNtCsgvCG6cIdDjn_13crystal_topos10algorithms11grover_step0B5_, symObjAddr: 0x0, symBinAddr: 0x1215C, symSize: 0x40 }
  - { offset: 0x3753E, size: 0x8, addend: 0x0, symName: __RNvMs3_NtNtCs7Qj1RmEtpUo_4pyo35impl_16extract_argumentNtB5_19FunctionDescription36find_keyword_parameter_in_positionalCsgvCG6cIdDjn_13crystal_topos, symObjAddr: 0x0, symBinAddr: 0x1219C, symSize: 0x5C }
  - { offset: 0x376C2, size: 0x8, addend: 0x0, symName: __RNvNtNtCs7Qj1RmEtpUo_4pyo35impl_16extract_argument24unwrap_required_argumentCsgvCG6cIdDjn_13crystal_topos, symObjAddr: 0x394, symBinAddr: 0x12530, symSize: 0x58 }
  - { offset: 0x376F3, size: 0x8, addend: 0x0, symName: __RNvXs4_NtNtCs7Qj1RmEtpUo_4pyo35impl_16extract_argumentNtB5_9NoVarargsNtB5_14VarargsHandler20handle_varargs_tupleCsgvCG6cIdDjn_13crystal_topos, symObjAddr: 0x3EC, symBinAddr: 0x12588, symSize: 0x94 }
  - { offset: 0x37772, size: 0x8, addend: 0x0, symName: __RNvXs6_NtNtCs7Qj1RmEtpUo_4pyo35impl_16extract_argumentNtB5_13NoVarkeywordsNtB5_18VarkeywordsHandler17handle_varkeywordCsgvCG6cIdDjn_13crystal_topos, symObjAddr: 0x480, symBinAddr: 0x1261C, symSize: 0x60 }
  - { offset: 0x3818E, size: 0x8, addend: 0x0, symName: __RNvMs3_NtNtCs7Qj1RmEtpUo_4pyo35impl_16extract_argumentNtB5_19FunctionDescription36find_keyword_parameter_in_positionalCsgvCG6cIdDjn_13crystal_topos, symObjAddr: 0x0, symBinAddr: 0x1219C, symSize: 0x5C }
  - { offset: 0x381C0, size: 0x8, addend: 0x0, symName: __RNvMs3_NtNtCs7Qj1RmEtpUo_4pyo35impl_16extract_argumentNtB5_19FunctionDescription38find_keyword_parameter_in_keyword_onlyCsgvCG6cIdDjn_13crystal_topos, symObjAddr: 0x5C, symBinAddr: 0x121F8, symSize: 0x5C }
  - { offset: 0x382EF, size: 0x8, addend: 0x0, symName: __RNvMs3_NtNtCs7Qj1RmEtpUo_4pyo35impl_16extract_argumentNtB5_19FunctionDescription44ensure_no_missing_required_keyword_argumentsCsgvCG6cIdDjn_13crystal_topos, symObjAddr: 0xB8, symBinAddr: 0x12254, symSize: 0x150 }
  - { offset: 0x383BB, size: 0x8, addend: 0x0, symName: __RNvMs3_NtNtCs7Qj1RmEtpUo_4pyo35impl_16extract_argumentNtB5_19FunctionDescription47ensure_no_missing_required_positional_argumentsCsgvCG6cIdDjn_13crystal_topos, symObjAddr: 0x208, symBinAddr: 0x123A4, symSize: 0x18C }
  - { offset: 0x38550, size: 0x8, addend: 0x0, symName: __RNvNvMNtNtCs7dfkhshTrE4_4core3ptr9const_ptrPp20offset_from_unsigned18precondition_checkCsgvCG6cIdDjn_13crystal_topos, symObjAddr: 0x0, symBinAddr: 0x1267C, symSize: 0x60 }
  - { offset: 0x38576, size: 0x8, addend: 0x0, symName: __RNvNvMNtNtCs7dfkhshTrE4_4core3ptr9const_ptrPp20offset_from_unsigned18precondition_checkCsgvCG6cIdDjn_13crystal_topos, symObjAddr: 0x0, symBinAddr: 0x1267C, symSize: 0x60 }
  - { offset: 0x38635, size: 0x8, addend: 0x0, symName: __RINvMNtNtCs7Qj1RmEtpUo_4pyo38internal8get_slotINtNtB7_8instance5BoundNtNtNtB7_5types10typeobject6PyTypeE8get_slotKl30_EB7_, symObjAddr: 0x0, symBinAddr: 0x126F0, symSize: 0x28 }
  - { offset: 0x38691, size: 0x8, addend: 0x0, symName: __RNvXsB_NtCs2iVXuAemrgm_5alloc6stringINtNtCs7Qj1RmEtpUo_4pyo38instance5BoundNtNtNtBD_5types6string8PyStringENtB5_8ToString9to_stringBD_, symObjAddr: 0x782C, symBinAddr: 0x15924, symSize: 0x24 }
  - { offset: 0x386CE, size: 0x8, addend: 0x0, symName: __RNvXsC_NtCs2iVXuAemrgm_5alloc6stringINtNtCs7Qj1RmEtpUo_4pyo38instance5BoundNtNtNtBD_5types6string8PyStringENtB5_12SpecToString14spec_to_stringBD_, symObjAddr: 0x7850, symBinAddr: 0x15948, symSize: 0xF4 }
  - { offset: 0x3A04B, size: 0x8, addend: 0x0, symName: __RNvXs1_NtCs7dfkhshTrE4_4core7convertINtNtCs7Qj1RmEtpUo_4pyo38instance2PyNtNtNtBD_5types5tuple7PyTupleEINtB5_4IntoIBz_NtNtB1c_3any5PyAnyEE4intoBD_, symObjAddr: 0x69A0, symBinAddr: 0x151F0, symSize: 0x24 }
  - { offset: 0x3A08B, size: 0x8, addend: 0x0, symName: __RNvXs1_NtCs7dfkhshTrE4_4core7convertINtNtCs7Qj1RmEtpUo_4pyo38instance5BoundNtNtBD_10exceptions15PyBaseExceptionEINtB5_4IntoINtBB_2PyB1b_EE4intoBD_, symObjAddr: 0x69C4, symBinAddr: 0x15214, symSize: 0x24 }
  - { offset: 0x3A0CB, size: 0x8, addend: 0x0, symName: __RNvXs1_NtCs7dfkhshTrE4_4core7convertINtNtCs7Qj1RmEtpUo_4pyo38instance5BoundNtNtNtBD_5types10typeobject6PyTypeEINtB5_4IntoINtBB_2PyB1b_EE4intoBD_, symObjAddr: 0x69E8, symBinAddr: 0x15238, symSize: 0x24 }
  - { offset: 0x3A10B, size: 0x8, addend: 0x0, symName: __RNvXs1_NtCs7dfkhshTrE4_4core7convertINtNtCs7Qj1RmEtpUo_4pyo38instance5BoundNtNtNtBD_5types10typeobject6PyTypeEINtB5_4IntoINtBB_2PyNtNtB1f_3any5PyAnyEE4intoBD_, symObjAddr: 0x6A0C, symBinAddr: 0x1525C, symSize: 0x24 }
  - { offset: 0x3A14B, size: 0x8, addend: 0x0, symName: __RNvXs1_NtCs7dfkhshTrE4_4core7convertINtNtCs7Qj1RmEtpUo_4pyo38instance5BoundNtNtNtBD_5types5float7PyFloatEINtB5_4IntoINtBB_2PyNtNtB1f_3any5PyAnyEE4intoBD_, symObjAddr: 0x6A78, symBinAddr: 0x15280, symSize: 0x24 }
  - { offset: 0x3A18B, size: 0x8, addend: 0x0, symName: __RNvXs1_NtCs7dfkhshTrE4_4core7convertINtNtCs7Qj1RmEtpUo_4pyo38instance5BoundNtNtNtBD_5types6string8PyStringEINtB5_4IntoINtBB_2PyB1b_EE4intoBD_, symObjAddr: 0x6AC0, symBinAddr: 0x152A4, symSize: 0x24 }
  - { offset: 0x3A1CB, size: 0x8, addend: 0x0, symName: __RNvXs1_NtCs7dfkhshTrE4_4core7convertINtNtCs7Qj1RmEtpUo_4pyo38instance5BoundNtNtNtBD_5types6string8PyStringEINtB5_4IntoINtBB_2PyNtNtB1f_3any5PyAnyEE4intoBD_, symObjAddr: 0x6AE4, symBinAddr: 0x152C8, symSize: 0x24 }
  - { offset: 0x3A221, size: 0x8, addend: 0x0, symName: __RNvXs1g_NtCs7dfkhshTrE4_4core3fmtRINtNtCs7Qj1RmEtpUo_4pyo38instance5BoundNtNtNtBB_5types9traceback11PyTracebackENtB6_5Debug3fmtBB_, symObjAddr: 0x6BE8, symBinAddr: 0x152EC, symSize: 0x30 }
  - { offset: 0x3A26D, size: 0x8, addend: 0x0, symName: __RNvXs1i_NtCs7dfkhshTrE4_4core3fmtRINtNtCs7Qj1RmEtpUo_4pyo38instance5BoundNtNtBB_10exceptions15PyBaseExceptionENtB6_7Display3fmtBB_, symObjAddr: 0x6C18, symBinAddr: 0x1531C, symSize: 0x30 }
  - { offset: 0x3A2B3, size: 0x8, addend: 0x0, symName: __RNvXs1i_NtCs7dfkhshTrE4_4core3fmtRINtNtCs7Qj1RmEtpUo_4pyo38instance5BoundNtNtNtBB_5types3any5PyAnyENtB6_7Display3fmtBB_, symObjAddr: 0x6C48, symBinAddr: 0x1534C, symSize: 0x30 }
  - { offset: 0x3A46C, size: 0x8, addend: 0x0, symName: __RNvXs_NtNtCs7dfkhshTrE4_4core5array4iterAINtNtCs7Qj1RmEtpUo_4pyo38instance2PyNtNtNtBI_5types3any5PyAnyEj1_NtNtNtNtB8_4iter6traits7collect12IntoIterator9into_iterBI_, symObjAddr: 0xA124, symBinAddr: 0x162F0, symSize: 0x68 }
  - { offset: 0x3B53B, size: 0x8, addend: 0x0, symName: __RNCNvMs_NtCs7Qj1RmEtpUo_4pyo38instanceINtB6_5BoundNtNtNtB8_5types3any5PyAnyE21from_owned_ptr_or_err0B8_, symObjAddr: 0x2BA4, symBinAddr: 0x131D4, symSize: 0x28 }
  - { offset: 0x3B599, size: 0x8, addend: 0x0, symName: __RNCNvMs_NtCs7Qj1RmEtpUo_4pyo38instanceINtB6_5BoundNtNtNtB8_5types3any5PyAnyE21from_owned_ptr_or_opt0B8_, symObjAddr: 0x2BCC, symBinAddr: 0x131FC, symSize: 0x28 }
  - { offset: 0x3B5FD, size: 0x8, addend: 0x0, symName: __RNCNvMsa_NtCs7Qj1RmEtpUo_4pyo38instanceINtB7_8BorrowedNtNtNtB9_5types3any5PyAnyE15from_ptr_or_err0B9_, symObjAddr: 0x2BF4, symBinAddr: 0x13224, symSize: 0x4C }
  - { offset: 0x3B637, size: 0x8, addend: 0x0, symName: __RNCNvMsa_NtCs7Qj1RmEtpUo_4pyo38instanceINtB7_8BorrowedNtNtNtB9_5types3any5PyAnyE15from_ptr_or_errs_0B9_, symObjAddr: 0x2C40, symBinAddr: 0x13270, symSize: 0x20 }
  - { offset: 0x3B6AC, size: 0x8, addend: 0x0, symName: __RNCNvMsa_NtCs7Qj1RmEtpUo_4pyo38instanceINtB7_8BorrowedNtNtNtB9_5types3any5PyAnyE8from_ptr0B9_, symObjAddr: 0x2C60, symBinAddr: 0x13290, symSize: 0x1C }
  - { offset: 0x3B705, size: 0x8, addend: 0x0, symName: __RNCNvMsn_NtCs7Qj1RmEtpUo_4pyo38instanceINtB7_2PyNtNtB9_10exceptions15PyBaseExceptionE21from_owned_ptr_or_opt0B9_, symObjAddr: 0x2C7C, symBinAddr: 0x132AC, symSize: 0x14 }
  - { offset: 0x3B747, size: 0x8, addend: 0x0, symName: __RNCNvMsn_NtCs7Qj1RmEtpUo_4pyo38instanceINtB7_2PyNtNtNtB9_5types3any5PyAnyE21from_owned_ptr_or_opt0B9_, symObjAddr: 0x2C90, symBinAddr: 0x132C0, symSize: 0x14 }
  - { offset: 0x3C45D, size: 0x8, addend: 0x0, symName: __RNvNtCs7Qj1RmEtpUo_4pyo38instance13python_format, symObjAddr: 0x59B4, symBinAddr: 0x14E0C, symSize: 0x2E8 }
  - { offset: 0x3C540, size: 0x8, addend: 0x0, symName: __RNvXs1_NtCs7Qj1RmEtpUo_4pyo38instanceINtB5_5BoundNtNtB7_10exceptions15PyBaseExceptionENtNtCs7dfkhshTrE4_4core3fmt5Debug3fmtB7_, symObjAddr: 0x685C, symBinAddr: 0x150F4, symSize: 0x54 }
  - { offset: 0x3C5A4, size: 0x8, addend: 0x0, symName: __RNvXs1_NtCs7Qj1RmEtpUo_4pyo38instanceINtB5_5BoundNtNtNtB7_5types10typeobject6PyTypeENtNtCs7dfkhshTrE4_4core3fmt5Debug3fmtB7_, symObjAddr: 0x68B0, symBinAddr: 0x15148, symSize: 0x54 }
  - { offset: 0x3C608, size: 0x8, addend: 0x0, symName: __RNvXs1_NtCs7Qj1RmEtpUo_4pyo38instanceINtB5_5BoundNtNtNtB7_5types9traceback11PyTracebackENtNtCs7dfkhshTrE4_4core3fmt5Debug3fmtB7_, symObjAddr: 0x6904, symBinAddr: 0x1519C, symSize: 0x54 }
  - { offset: 0x3C672, size: 0x8, addend: 0x0, symName: __RNvXs2_NtCs7Qj1RmEtpUo_4pyo38instanceINtB5_5BoundNtNtB7_10exceptions15PyBaseExceptionENtNtCs7dfkhshTrE4_4core3fmt7Display3fmtB7_, symObjAddr: 0x6C78, symBinAddr: 0x1537C, symSize: 0x54 }
  - { offset: 0x3C6D6, size: 0x8, addend: 0x0, symName: __RNvXs2_NtCs7Qj1RmEtpUo_4pyo38instanceINtB5_5BoundNtNtNtB7_5types3any5PyAnyENtNtCs7dfkhshTrE4_4core3fmt7Display3fmtB7_, symObjAddr: 0x6D20, symBinAddr: 0x153D0, symSize: 0x54 }
  - { offset: 0x3C73A, size: 0x8, addend: 0x0, symName: __RNvXs2_NtCs7Qj1RmEtpUo_4pyo38instanceINtB5_5BoundNtNtNtB7_5types6string8PyStringENtNtCs7dfkhshTrE4_4core3fmt7Display3fmtB7_, symObjAddr: 0x6D74, symBinAddr: 0x15424, symSize: 0x54 }
  - { offset: 0x3C7A4, size: 0x8, addend: 0x0, symName: __RNvXs3_NtCs7Qj1RmEtpUo_4pyo38instanceINtB5_5BoundNtNtB7_10exceptions15PyBaseExceptionENtNtNtCs7dfkhshTrE4_4core3ops5deref5Deref5derefB7_, symObjAddr: 0x6E10, symBinAddr: 0x1549C, symSize: 0x24 }
  - { offset: 0x3C7DB, size: 0x8, addend: 0x0, symName: __RNvXs3_NtCs7Qj1RmEtpUo_4pyo38instanceINtB5_5BoundNtNtNtB7_5types10typeobject6PyTypeENtNtNtCs7dfkhshTrE4_4core3ops5deref5Deref5derefB7_, symObjAddr: 0x6E34, symBinAddr: 0x154C0, symSize: 0x24 }
  - { offset: 0x3C812, size: 0x8, addend: 0x0, symName: __RNvXs3_NtCs7Qj1RmEtpUo_4pyo38instanceINtB5_5BoundNtNtNtB7_5types6module8PyModuleENtNtNtCs7dfkhshTrE4_4core3ops5deref5Deref5derefB7_, symObjAddr: 0x6EE8, symBinAddr: 0x154E4, symSize: 0x24 }
  - { offset: 0x3C849, size: 0x8, addend: 0x0, symName: __RNvXs3_NtCs7Qj1RmEtpUo_4pyo38instanceINtB5_5BoundNtNtNtB7_5types8function11PyCFunctionENtNtNtCs7dfkhshTrE4_4core3ops5deref5Deref5derefB7_, symObjAddr: 0x6F0C, symBinAddr: 0x15508, symSize: 0x24 }
  - { offset: 0x3C886, size: 0x8, addend: 0x0, symName: __RNvXs5_NtCs7Qj1RmEtpUo_4pyo38instanceINtB5_5BoundNtNtNtB7_5types10typeobject6PyTypeENtNtCs7dfkhshTrE4_4core5clone5Clone5cloneB7_, symObjAddr: 0x6FE8, symBinAddr: 0x15554, symSize: 0x34 }
  - { offset: 0x3C8BD, size: 0x8, addend: 0x0, symName: __RNvXs5_NtCs7Qj1RmEtpUo_4pyo38instanceINtB5_5BoundNtNtNtB7_5types3any5PyAnyENtNtCs7dfkhshTrE4_4core5clone5Clone5cloneB7_, symObjAddr: 0x701C, symBinAddr: 0x15588, symSize: 0x34 }
  - { offset: 0x3C8F4, size: 0x8, addend: 0x0, symName: __RNvXs5_NtCs7Qj1RmEtpUo_4pyo38instanceINtB5_5BoundNtNtNtB7_5types4list6PyListENtNtCs7dfkhshTrE4_4core5clone5Clone5cloneB7_, symObjAddr: 0x70B8, symBinAddr: 0x155BC, symSize: 0x34 }
  - { offset: 0x3C92B, size: 0x8, addend: 0x0, symName: __RNvXs5_NtCs7Qj1RmEtpUo_4pyo38instanceINtB5_5BoundNtNtNtB7_5types4none6PyNoneENtNtCs7dfkhshTrE4_4core5clone5Clone5cloneB7_, symObjAddr: 0x70EC, symBinAddr: 0x155F0, symSize: 0x34 }
  - { offset: 0x3C962, size: 0x8, addend: 0x0, symName: __RNvXs5_NtCs7Qj1RmEtpUo_4pyo38instanceINtB5_5BoundNtNtNtB7_5types6string8PyStringENtNtCs7dfkhshTrE4_4core5clone5Clone5cloneB7_, symObjAddr: 0x71BC, symBinAddr: 0x15624, symSize: 0x34 }
  - { offset: 0x3C99F, size: 0x8, addend: 0x0, symName: __RNvXs6_NtCs7Qj1RmEtpUo_4pyo38instanceINtB5_5BoundNtNtB7_10exceptions15PyBaseExceptionENtNtNtCs7dfkhshTrE4_4core3ops4drop4Drop4dropB7_, symObjAddr: 0x72D4, symBinAddr: 0x15658, symSize: 0x30 }
  - { offset: 0x3C9F0, size: 0x8, addend: 0x0, symName: __RNvXs6_NtCs7Qj1RmEtpUo_4pyo38instanceINtB5_5BoundNtNtNtB7_5types10typeobject6PyTypeENtNtNtCs7dfkhshTrE4_4core3ops4drop4Drop4dropB7_, symObjAddr: 0x7334, symBinAddr: 0x15688, symSize: 0x30 }
  - { offset: 0x3CA41, size: 0x8, addend: 0x0, symName: __RNvXs6_NtCs7Qj1RmEtpUo_4pyo38instanceINtB5_5BoundNtNtNtB7_5types3any5PyAnyENtNtNtCs7dfkhshTrE4_4core3ops4drop4Drop4dropB7_, symObjAddr: 0x7364, symBinAddr: 0x156B8, symSize: 0x30 }
  - { offset: 0x3CA92, size: 0x8, addend: 0x0, symName: __RNvXs6_NtCs7Qj1RmEtpUo_4pyo38instanceINtB5_5BoundNtNtNtB7_5types4list6PyListENtNtNtCs7dfkhshTrE4_4core3ops4drop4Drop4dropB7_, symObjAddr: 0x73F4, symBinAddr: 0x156E8, symSize: 0x30 }
  - { offset: 0x3CAE3, size: 0x8, addend: 0x0, symName: __RNvXs6_NtCs7Qj1RmEtpUo_4pyo38instanceINtB5_5BoundNtNtNtB7_5types5bytes7PyBytesENtNtNtCs7dfkhshTrE4_4core3ops4drop4Drop4dropB7_, symObjAddr: 0x7424, symBinAddr: 0x15718, symSize: 0x30 }
  - { offset: 0x3CB34, size: 0x8, addend: 0x0, symName: __RNvXs6_NtCs7Qj1RmEtpUo_4pyo38instanceINtB5_5BoundNtNtNtB7_5types5float7PyFloatENtNtNtCs7dfkhshTrE4_4core3ops4drop4Drop4dropB7_, symObjAddr: 0x7454, symBinAddr: 0x15748, symSize: 0x30 }
  - { offset: 0x3CB85, size: 0x8, addend: 0x0, symName: __RNvXs6_NtCs7Qj1RmEtpUo_4pyo38instanceINtB5_5BoundNtNtNtB7_5types6string8PyStringENtNtNtCs7dfkhshTrE4_4core3ops4drop4Drop4dropB7_, symObjAddr: 0x7514, symBinAddr: 0x15778, symSize: 0x30 }
  - { offset: 0x3CBD6, size: 0x8, addend: 0x0, symName: __RNvXs6_NtCs7Qj1RmEtpUo_4pyo38instanceINtB5_5BoundNtNtNtB7_5types8function11PyCFunctionENtNtNtCs7dfkhshTrE4_4core3ops4drop4Drop4dropB7_, symObjAddr: 0x7544, symBinAddr: 0x157A8, symSize: 0x30 }
  - { offset: 0x3CC27, size: 0x8, addend: 0x0, symName: __RNvXs6_NtCs7Qj1RmEtpUo_4pyo38instanceINtB5_5BoundNtNtNtB7_5types9traceback11PyTracebackENtNtNtCs7dfkhshTrE4_4core3ops4drop4Drop4dropB7_, symObjAddr: 0x7604, symBinAddr: 0x157D8, symSize: 0x30 }
  - { offset: 0x3CC7E, size: 0x8, addend: 0x0, symName: __RNvXs8_NtCs7Qj1RmEtpUo_4pyo38instanceINtB5_5BoundNtNtNtB7_5types10typeobject6PyTypeENtNtB7_10conversion11AsPyPointer6as_ptrB7_, symObjAddr: 0x76E8, symBinAddr: 0x15808, symSize: 0x2C }
  - { offset: 0x3CCBB, size: 0x8, addend: 0x0, symName: __RNvXsA_NtCs7Qj1RmEtpUo_4pyo38instanceINtB5_2PyNtNtB7_10exceptions15PyBaseExceptionENtNtNtCs7dfkhshTrE4_4core3ops4drop4Drop4dropB7_, symObjAddr: 0x7714, symBinAddr: 0x15834, symSize: 0x28 }
  - { offset: 0x3CCEE, size: 0x8, addend: 0x0, symName: __RNvXsA_NtCs7Qj1RmEtpUo_4pyo38instanceINtB5_2PyNtNtNtB7_5types10typeobject6PyTypeENtNtNtCs7dfkhshTrE4_4core3ops4drop4Drop4dropB7_, symObjAddr: 0x773C, symBinAddr: 0x1585C, symSize: 0x28 }
  - { offset: 0x3CD21, size: 0x8, addend: 0x0, symName: __RNvXsA_NtCs7Qj1RmEtpUo_4pyo38instanceINtB5_2PyNtNtNtB7_5types3any5PyAnyENtNtNtCs7dfkhshTrE4_4core3ops4drop4Drop4dropB7_, symObjAddr: 0x7764, symBinAddr: 0x15884, symSize: 0x28 }
  - { offset: 0x3CD54, size: 0x8, addend: 0x0, symName: __RNvXsA_NtCs7Qj1RmEtpUo_4pyo38instanceINtB5_2PyNtNtNtB7_5types5tuple7PyTupleENtNtNtCs7dfkhshTrE4_4core3ops4drop4Drop4dropB7_, symObjAddr: 0x77B4, symBinAddr: 0x158AC, symSize: 0x28 }
  - { offset: 0x3CD87, size: 0x8, addend: 0x0, symName: __RNvXsA_NtCs7Qj1RmEtpUo_4pyo38instanceINtB5_2PyNtNtNtB7_5types6module8PyModuleENtNtNtCs7dfkhshTrE4_4core3ops4drop4Drop4dropB7_, symObjAddr: 0x77DC, symBinAddr: 0x158D4, symSize: 0x28 }
  - { offset: 0x3CDBA, size: 0x8, addend: 0x0, symName: __RNvXsA_NtCs7Qj1RmEtpUo_4pyo38instanceINtB5_2PyNtNtNtB7_5types6string8PyStringENtNtNtCs7dfkhshTrE4_4core3ops4drop4Drop4dropB7_, symObjAddr: 0x7804, symBinAddr: 0x158FC, symSize: 0x28 }
  - { offset: 0x3CDF3, size: 0x8, addend: 0x0, symName: __RNvXsd_NtCs7Qj1RmEtpUo_4pyo38instanceINtB5_8BorrowedNtNtNtB7_5types10typeobject6PyTypeENtNtNtCs7dfkhshTrE4_4core3ops5deref5Deref5derefB7_, symObjAddr: 0xA4EC, symBinAddr: 0x16358, symSize: 0x74 }
  - { offset: 0x3CE2A, size: 0x8, addend: 0x0, symName: __RNvXsd_NtCs7Qj1RmEtpUo_4pyo38instanceINtB5_8BorrowedNtNtNtB7_5types3any5PyAnyENtNtNtCs7dfkhshTrE4_4core3ops5deref5Deref5derefB7_, symObjAddr: 0xA560, symBinAddr: 0x163CC, symSize: 0x74 }
  - { offset: 0x3CE61, size: 0x8, addend: 0x0, symName: __RNvXsd_NtCs7Qj1RmEtpUo_4pyo38instanceINtB5_8BorrowedNtNtNtB7_5types4dict6PyDictENtNtNtCs7dfkhshTrE4_4core3ops5deref5Deref5derefB7_, symObjAddr: 0xA5D4, symBinAddr: 0x16440, symSize: 0x74 }
  - { offset: 0x3CE98, size: 0x8, addend: 0x0, symName: __RNvXsd_NtCs7Qj1RmEtpUo_4pyo38instanceINtB5_8BorrowedNtNtNtB7_5types4none6PyNoneENtNtNtCs7dfkhshTrE4_4core3ops5deref5Deref5derefB7_, symObjAddr: 0xA648, symBinAddr: 0x164B4, symSize: 0x74 }
  - { offset: 0x3CECF, size: 0x8, addend: 0x0, symName: __RNvXsd_NtCs7Qj1RmEtpUo_4pyo38instanceINtB5_8BorrowedNtNtNtB7_5types5bytes7PyBytesENtNtNtCs7dfkhshTrE4_4core3ops5deref5Deref5derefB7_, symObjAddr: 0xA6BC, symBinAddr: 0x16528, symSize: 0x74 }
  - { offset: 0x3CF06, size: 0x8, addend: 0x0, symName: __RNvXsd_NtCs7Qj1RmEtpUo_4pyo38instanceINtB5_8BorrowedNtNtNtB7_5types5tuple7PyTupleENtNtNtCs7dfkhshTrE4_4core3ops5deref5Deref5derefB7_, symObjAddr: 0xA730, symBinAddr: 0x1659C, symSize: 0x74 }
  - { offset: 0x3CF3D, size: 0x8, addend: 0x0, symName: __RNvXsd_NtCs7Qj1RmEtpUo_4pyo38instanceINtB5_8BorrowedNtNtNtB7_5types6string8PyStringENtNtNtCs7dfkhshTrE4_4core3ops5deref5Deref5derefB7_, symObjAddr: 0xA818, symBinAddr: 0x16610, symSize: 0x74 }
  - { offset: 0x3CF7A, size: 0x8, addend: 0x0, symName: __RNvXsh_NtCs7Qj1RmEtpUo_4pyo38instanceINtB5_8BorrowedNtNtNtB7_5types4none6PyNoneEINtNtB7_10conversion6IntoPyINtB5_2PyNtNtBS_3any5PyAnyEE7into_pyB7_, symObjAddr: 0xA9C0, symBinAddr: 0x16684, symSize: 0x28 }
  - { offset: 0x3CFD2, size: 0x8, addend: 0x0, symName: __RNvXso_NtCs7Qj1RmEtpUo_4pyo38instanceINtB5_2PyNtNtNtB7_5types3any5PyAnyENtNtB7_10conversion10ToPyObject9to_objectB7_, symObjAddr: 0xAC70, symBinAddr: 0x166AC, symSize: 0x28 }
  - { offset: 0x3D02A, size: 0x8, addend: 0x0, symName: __RNvXsp_NtCs7Qj1RmEtpUo_4pyo38instanceINtB5_2PyNtNtNtB7_5types3any5PyAnyEINtNtB7_10conversion6IntoPyBz_E7into_pyB7_, symObjAddr: 0xACC0, symBinAddr: 0x166D4, symSize: 0x24 }
  - { offset: 0x3D082, size: 0x8, addend: 0x0, symName: __RNvXsr_NtCs7Qj1RmEtpUo_4pyo38instanceINtB5_5BoundNtNtNtB7_5types10typeobject6PyTypeENtNtB7_10conversion10ToPyObject9to_objectB7_, symObjAddr: 0xAE80, symBinAddr: 0x166F8, symSize: 0x28 }
  - { offset: 0x3D0D4, size: 0x8, addend: 0x0, symName: __RNvXsr_NtCs7Qj1RmEtpUo_4pyo38instanceINtB5_5BoundNtNtNtB7_5types4list6PyListENtNtB7_10conversion10ToPyObject9to_objectB7_, symObjAddr: 0xAED0, symBinAddr: 0x16720, symSize: 0x28 }
  - { offset: 0x3D126, size: 0x8, addend: 0x0, symName: __RNvXsr_NtCs7Qj1RmEtpUo_4pyo38instanceINtB5_5BoundNtNtNtB7_5types6string8PyStringENtNtB7_10conversion10ToPyObject9to_objectB7_, symObjAddr: 0xAF20, symBinAddr: 0x16748, symSize: 0x28 }
  - { offset: 0x3D17E, size: 0x8, addend: 0x0, symName: __RNvXss_NtCs7Qj1RmEtpUo_4pyo38instanceINtB5_5BoundNtNtNtB7_5types10typeobject6PyTypeEINtNtB7_10conversion6IntoPyINtB5_2PyNtNtBP_3any5PyAnyEE7into_pyB7_, symObjAddr: 0xAF48, symBinAddr: 0x16770, symSize: 0x28 }
  - { offset: 0x3D1D0, size: 0x8, addend: 0x0, symName: __RNvXss_NtCs7Qj1RmEtpUo_4pyo38instanceINtB5_5BoundNtNtNtB7_5types3any5PyAnyEINtNtB7_10conversion6IntoPyINtB5_2PyBL_EE7into_pyB7_, symObjAddr: 0xAF70, symBinAddr: 0x16798, symSize: 0x28 }
  - { offset: 0x3D222, size: 0x8, addend: 0x0, symName: __RNvXss_NtCs7Qj1RmEtpUo_4pyo38instanceINtB5_5BoundNtNtNtB7_5types4list6PyListEINtNtB7_10conversion6IntoPyINtB5_2PyNtNtBP_3any5PyAnyEE7into_pyB7_, symObjAddr: 0xAF98, symBinAddr: 0x167C0, symSize: 0x28 }
  - { offset: 0x3D274, size: 0x8, addend: 0x0, symName: __RNvXss_NtCs7Qj1RmEtpUo_4pyo38instanceINtB5_5BoundNtNtNtB7_5types4none6PyNoneEINtNtB7_10conversion6IntoPyINtB5_2PyNtNtBP_3any5PyAnyEE7into_pyB7_, symObjAddr: 0xAFC0, symBinAddr: 0x167E8, symSize: 0x28 }
  - { offset: 0x3D2C6, size: 0x8, addend: 0x0, symName: __RNvXss_NtCs7Qj1RmEtpUo_4pyo38instanceINtB5_5BoundNtNtNtB7_5types5float7PyFloatEINtNtB7_10conversion6IntoPyINtB5_2PyNtNtBP_3any5PyAnyEE7into_pyB7_, symObjAddr: 0xB010, symBinAddr: 0x16810, symSize: 0x28 }
  - { offset: 0x3D318, size: 0x8, addend: 0x0, symName: __RNvXss_NtCs7Qj1RmEtpUo_4pyo38instanceINtB5_5BoundNtNtNtB7_5types6string8PyStringEINtNtB7_10conversion6IntoPyINtB5_2PyNtNtBP_3any5PyAnyEE7into_pyB7_, symObjAddr: 0xB088, symBinAddr: 0x16838, symSize: 0x28 }
  - { offset: 0x3D36A, size: 0x8, addend: 0x0, symName: __RNvXss_NtCs7Qj1RmEtpUo_4pyo38instanceINtB5_5BoundNtNtNtB7_5types8function11PyCFunctionEINtNtB7_10conversion6IntoPyINtB5_2PyNtNtBP_3any5PyAnyEE7into_pyB7_, symObjAddr: 0xB0B0, symBinAddr: 0x16860, symSize: 0x28 }
  - { offset: 0x3D3C2, size: 0x8, addend: 0x0, symName: __RNvXst_NtCs7Qj1RmEtpUo_4pyo38instanceRINtB5_5BoundNtNtNtB7_5types10typeobject6PyTypeEINtNtB7_10conversion6IntoPyINtB5_2PyNtNtBQ_3any5PyAnyEE7into_pyB7_, symObjAddr: 0xB0D8, symBinAddr: 0x16888, symSize: 0x24 }
  - { offset: 0x3D41A, size: 0x8, addend: 0x0, symName: __RNvXsv_NtCs7Qj1RmEtpUo_4pyo38instanceINtB5_2PyNtNtNtB7_5types3any5PyAnyEINtNtCs7dfkhshTrE4_4core7convert4FromIBA_NtNtBM_5tuple7PyTupleEE4fromB7_, symObjAddr: 0xB18C, symBinAddr: 0x168AC, symSize: 0x24 }
  - { offset: 0x3D457, size: 0x8, addend: 0x0, symName: __RNvXsw_NtCs7Qj1RmEtpUo_4pyo38instanceINtB5_2PyNtNtNtB7_5types3any5PyAnyEINtNtCs7dfkhshTrE4_4core7convert4FromINtB5_5BoundNtNtBM_10typeobject6PyTypeEE4fromB7_, symObjAddr: 0xB1B0, symBinAddr: 0x168D0, symSize: 0x84 }
  - { offset: 0x3D4AC, size: 0x8, addend: 0x0, symName: __RNvXsw_NtCs7Qj1RmEtpUo_4pyo38instanceINtB5_2PyNtNtNtB7_5types3any5PyAnyEINtNtCs7dfkhshTrE4_4core7convert4FromINtB5_5BoundNtNtBM_5float7PyFloatEE4fromB7_, symObjAddr: 0xB2B8, symBinAddr: 0x16954, symSize: 0x84 }
  - { offset: 0x3D501, size: 0x8, addend: 0x0, symName: __RNvXsw_NtCs7Qj1RmEtpUo_4pyo38instanceINtB5_2PyNtNtNtB7_5types3any5PyAnyEINtNtCs7dfkhshTrE4_4core7convert4FromINtB5_5BoundNtNtBM_6string8PyStringEE4fromB7_, symObjAddr: 0xB3C0, symBinAddr: 0x169D8, symSize: 0x84 }
  - { offset: 0x3D55C, size: 0x8, addend: 0x0, symName: __RNvXsx_NtCs7Qj1RmEtpUo_4pyo38instanceINtB5_2PyNtNtB7_10exceptions15PyBaseExceptionEINtNtCs7dfkhshTrE4_4core7convert4FromINtB5_5BoundBI_EE4fromB7_, symObjAddr: 0xB444, symBinAddr: 0x16A5C, symSize: 0x24 }
  - { offset: 0x3D593, size: 0x8, addend: 0x0, symName: __RNvXsx_NtCs7Qj1RmEtpUo_4pyo38instanceINtB5_2PyNtNtNtB7_5types10typeobject6PyTypeEINtNtCs7dfkhshTrE4_4core7convert4FromINtB5_5BoundBI_EE4fromB7_, symObjAddr: 0xB468, symBinAddr: 0x16A80, symSize: 0x24 }
  - { offset: 0x3D5CA, size: 0x8, addend: 0x0, symName: __RNvXsx_NtCs7Qj1RmEtpUo_4pyo38instanceINtB5_2PyNtNtNtB7_5types6string8PyStringEINtNtCs7dfkhshTrE4_4core7convert4FromINtB5_5BoundBI_EE4fromB7_, symObjAddr: 0xB4B0, symBinAddr: 0x16AA4, symSize: 0x24 }
  - { offset: 0x3D627, size: 0x8, addend: 0x0, symName: __RNvXs_NtNtCs7Qj1RmEtpUo_4pyo35types10typeobjectINtNtB8_8instance5BoundNtB4_6PyTypeENtB4_13PyTypeMethods11as_type_ptrB8_, symObjAddr: 0x7E6C, symBinAddr: 0x15AF4, symSize: 0x24 }
  - { offset: 0x3D653, size: 0x8, addend: 0x0, symName: __RNvXs_NtNtCs7Qj1RmEtpUo_4pyo35types10typeobjectINtNtB8_8instance5BoundNtB4_6PyTypeENtB4_13PyTypeMethods4name, symObjAddr: 0x8150, symBinAddr: 0x15B18, symSize: 0xC8 }
  - { offset: 0x3D6BA, size: 0x8, addend: 0x0, symName: __RNvXs_NtNtCs7Qj1RmEtpUo_4pyo35types10typeobjectINtNtB8_8instance5BoundNtB4_6PyTypeENtB4_13PyTypeMethods8qualname, symObjAddr: 0x8454, symBinAddr: 0x15BE0, symSize: 0xC8 }
  - { offset: 0x3D742, size: 0x8, addend: 0x0, symName: __RINvXs_NtNtCs7Qj1RmEtpUo_4pyo35types3anyINtNtB9_8instance5BoundNtB5_5PyAnyENtB5_12PyAnyMethods13downcast_intoNtNtB7_4list6PyListEB9_, symObjAddr: 0xCFC, symBinAddr: 0x127AC, symSize: 0xE8 }
  - { offset: 0x3D779, size: 0x8, addend: 0x0, symName: __RINvXs_NtNtCs7Qj1RmEtpUo_4pyo35types3anyINtNtB9_8instance5BoundNtB5_5PyAnyENtB5_12PyAnyMethods13downcast_intoNtNtB7_6string8PyStringEB9_, symObjAddr: 0xECC, symBinAddr: 0x12894, symSize: 0xE8 }
  - { offset: 0x3D7B0, size: 0x8, addend: 0x0, symName: __RINvXs_NtNtCs7Qj1RmEtpUo_4pyo35types3anyINtNtB9_8instance5BoundNtB5_5PyAnyENtB5_12PyAnyMethods13downcast_intoNtNtB9_10exceptions15PyBaseExceptionEB9_, symObjAddr: 0xFB4, symBinAddr: 0x1297C, symSize: 0xE8 }
  - { offset: 0x3D7E7, size: 0x8, addend: 0x0, symName: __RINvXs_NtNtCs7Qj1RmEtpUo_4pyo35types3anyINtNtB9_8instance5BoundNtB5_5PyAnyENtB5_12PyAnyMethods18downcast_uncheckedNtNtB7_3num6PyLongEB9_, symObjAddr: 0x11F8, symBinAddr: 0x12A64, symSize: 0x74 }
  - { offset: 0x3D81E, size: 0x8, addend: 0x0, symName: __RINvXs_NtNtCs7Qj1RmEtpUo_4pyo35types3anyINtNtB9_8instance5BoundNtB5_5PyAnyENtB5_12PyAnyMethods23downcast_into_uncheckedNtNtB7_10typeobject6PyTypeEB9_, symObjAddr: 0x1560, symBinAddr: 0x12AD8, symSize: 0x14 }
  - { offset: 0x3D855, size: 0x8, addend: 0x0, symName: __RINvXs_NtNtCs7Qj1RmEtpUo_4pyo35types3anyINtNtB9_8instance5BoundNtB5_5PyAnyENtB5_12PyAnyMethods23downcast_into_uncheckedNtNtB7_4list6PyListEB9_, symObjAddr: 0x159C, symBinAddr: 0x12AEC, symSize: 0x14 }
  - { offset: 0x3D88C, size: 0x8, addend: 0x0, symName: __RINvXs_NtNtCs7Qj1RmEtpUo_4pyo35types3anyINtNtB9_8instance5BoundNtB5_5PyAnyENtB5_12PyAnyMethods23downcast_into_uncheckedNtNtB7_5bytes7PyBytesEB9_, symObjAddr: 0x15B0, symBinAddr: 0x12B00, symSize: 0x14 }
  - { offset: 0x3D8C3, size: 0x8, addend: 0x0, symName: __RINvXs_NtNtCs7Qj1RmEtpUo_4pyo35types3anyINtNtB9_8instance5BoundNtB5_5PyAnyENtB5_12PyAnyMethods23downcast_into_uncheckedNtNtB7_5float7PyFloatEB9_, symObjAddr: 0x15C4, symBinAddr: 0x12B14, symSize: 0x14 }
  - { offset: 0x3D8FA, size: 0x8, addend: 0x0, symName: __RINvXs_NtNtCs7Qj1RmEtpUo_4pyo35types3anyINtNtB9_8instance5BoundNtB5_5PyAnyENtB5_12PyAnyMethods23downcast_into_uncheckedNtNtB7_6string8PyStringEB9_, symObjAddr: 0x1614, symBinAddr: 0x12B28, symSize: 0x14 }
  - { offset: 0x3D931, size: 0x8, addend: 0x0, symName: __RINvXs_NtNtCs7Qj1RmEtpUo_4pyo35types3anyINtNtB9_8instance5BoundNtB5_5PyAnyENtB5_12PyAnyMethods23downcast_into_uncheckedNtNtB7_8function11PyCFunctionEB9_, symObjAddr: 0x1664, symBinAddr: 0x12B3C, symSize: 0x14 }
  - { offset: 0x3D968, size: 0x8, addend: 0x0, symName: __RINvXs_NtNtCs7Qj1RmEtpUo_4pyo35types3anyINtNtB9_8instance5BoundNtB5_5PyAnyENtB5_12PyAnyMethods23downcast_into_uncheckedNtNtB7_9traceback11PyTracebackEB9_, symObjAddr: 0x16C8, symBinAddr: 0x12B50, symSize: 0x14 }
  - { offset: 0x3D99F, size: 0x8, addend: 0x0, symName: __RINvXs_NtNtCs7Qj1RmEtpUo_4pyo35types3anyINtNtB9_8instance5BoundNtB5_5PyAnyENtB5_12PyAnyMethods23downcast_into_uncheckedNtNtB9_10exceptions15PyBaseExceptionEB9_, symObjAddr: 0x16DC, symBinAddr: 0x12B64, symSize: 0x14 }
  - { offset: 0x3D9D6, size: 0x8, addend: 0x0, symName: __RINvXs_NtNtCs7Qj1RmEtpUo_4pyo35types3anyINtNtB9_8instance5BoundNtB5_5PyAnyENtB5_12PyAnyMethods2isIBD_NtNtB7_10typeobject6PyTypeEEB9_, symObjAddr: 0x172C, symBinAddr: 0x12B78, symSize: 0x4C }
  - { offset: 0x3DA1C, size: 0x8, addend: 0x0, symName: __RINvXs_NtNtCs7Qj1RmEtpUo_4pyo35types3anyINtNtB9_8instance5BoundNtB5_5PyAnyENtB5_12PyAnyMethods7extractdEB9_, symObjAddr: 0x1C70, symBinAddr: 0x12BC4, symSize: 0x30 }
  - { offset: 0x3DA53, size: 0x8, addend: 0x0, symName: __RINvXs_NtNtCs7Qj1RmEtpUo_4pyo35types3anyINtNtB9_8instance5BoundNtB5_5PyAnyENtB5_12PyAnyMethods7extractjEB9_, symObjAddr: 0x1D00, symBinAddr: 0x12BF4, symSize: 0x30 }
  - { offset: 0x3DA8A, size: 0x8, addend: 0x0, symName: __RINvXs_NtNtCs7Qj1RmEtpUo_4pyo35types3anyINtNtB9_8instance5BoundNtB5_5PyAnyENtB5_12PyAnyMethods7extractyEB9_, symObjAddr: 0x1E80, symBinAddr: 0x12C24, symSize: 0x30 }
  - { offset: 0x3DAC1, size: 0x8, addend: 0x0, symName: __RINvXs_NtNtCs7Qj1RmEtpUo_4pyo35types3anyINtNtB9_8instance5BoundNtB5_5PyAnyENtB5_12PyAnyMethods7getattrRIBD_NtNtB7_6string8PyStringEEB9_, symObjAddr: 0x1FAC, symBinAddr: 0x12C54, symSize: 0xE4 }
  - { offset: 0x3DB1D, size: 0x8, addend: 0x0, symName: __RINvXs_NtNtCs7Qj1RmEtpUo_4pyo35types3anyINtNtB9_8instance5BoundNtB5_5PyAnyENtB5_12PyAnyMethods7setattrIBD_NtNtB7_6string8PyStringEINtBF_2PyBZ_EEB9_, symObjAddr: 0x2180, symBinAddr: 0x12D38, symSize: 0x140 }
  - { offset: 0x3DB91, size: 0x8, addend: 0x0, symName: __RINvXs_NtNtCs7Qj1RmEtpUo_4pyo35types3anyINtNtB9_8instance5BoundNtB5_5PyAnyENtB5_12PyAnyMethods7setattrRIBD_NtNtB7_6string8PyStringERIBD_NtNtB7_4list6PyListEEB9_, symObjAddr: 0x22C0, symBinAddr: 0x12E78, symSize: 0x11C }
  - { offset: 0x3DC06, size: 0x8, addend: 0x0, symName: __RINvXs_NtNtCs7Qj1RmEtpUo_4pyo35types3anyINtNtB9_8instance5BoundNtB5_5PyAnyENtB5_12PyAnyMethods8downcastNtNtB7_3num6PyLongEB9_, symObjAddr: 0x2460, symBinAddr: 0x12F94, symSize: 0x84 }
  - { offset: 0x3DC3D, size: 0x8, addend: 0x0, symName: __RNvXs_NtNtCs7Qj1RmEtpUo_4pyo35types3anyINtNtB8_8instance5BoundNtB4_5PyAnyENtB4_12PyAnyMethods3str, symObjAddr: 0x8764, symBinAddr: 0x15CA8, symSize: 0x5C }
  - { offset: 0x3DC6B, size: 0x8, addend: 0x0, symName: __RNvXs_NtNtCs7Qj1RmEtpUo_4pyo35types3anyINtNtB8_8instance5BoundNtB4_5PyAnyENtB4_12PyAnyMethods4repr, symObjAddr: 0x88A0, symBinAddr: 0x15D04, symSize: 0x5C }
  - { offset: 0x3DC99, size: 0x8, addend: 0x0, symName: __RNvXs_NtNtCs7Qj1RmEtpUo_4pyo35types3anyINtNtB8_8instance5BoundNtB4_5PyAnyENtB4_12PyAnyMethods8get_type, symObjAddr: 0x89B0, symBinAddr: 0x15D60, symSize: 0x38 }
  - { offset: 0x3DCE8, size: 0x8, addend: 0x0, symName: __RNvXs2_NtNtCs7Qj1RmEtpUo_4pyo35types6stringINtNtB9_8instance5BoundNtB5_8PyStringEINtNtB9_10conversion6IntoPyINtBI_2PyB12_EE7into_py, symObjAddr: 0x6DC8, symBinAddr: 0x15478, symSize: 0x24 }
  - { offset: 0x3DD37, size: 0x8, addend: 0x0, symName: __RNvXs3_NtNtCs7Qj1RmEtpUo_4pyo35types6stringRINtNtB9_8instance5BoundNtB5_8PyStringEINtNtB9_10conversion6IntoPyINtBJ_2PyB13_EE7into_py, symObjAddr: 0x6F78, symBinAddr: 0x1552C, symSize: 0x28 }
  - { offset: 0x3DD86, size: 0x8, addend: 0x0, symName: __RNvXs_NtNtCs7Qj1RmEtpUo_4pyo35types6stringINtNtB8_8instance5BoundNtB4_8PyStringENtB4_15PyStringMethods15to_string_lossy, symObjAddr: 0x9B38, symBinAddr: 0x16290, symSize: 0x30 }
  - { offset: 0x3DDB4, size: 0x8, addend: 0x0, symName: __RNvXs_NtNtCs7Qj1RmEtpUo_4pyo35types6stringINtNtB8_8instance5BoundNtB4_8PyStringENtB4_15PyStringMethods6to_cow, symObjAddr: 0x9B68, symBinAddr: 0x162C0, symSize: 0x30 }
  - { offset: 0x3DE1E, size: 0x8, addend: 0x0, symName: __RNvXs_NtNtCs7Qj1RmEtpUo_4pyo35types5bytesINtNtB8_8instance5BoundNtB4_7PyBytesENtB4_14PyBytesMethods8as_bytesB8_, symObjAddr: 0x91CC, symBinAddr: 0x15D98, symSize: 0x28 }
  - { offset: 0x3DE71, size: 0x8, addend: 0x0, symName: __RINvXs_NtNtCs7Qj1RmEtpUo_4pyo35types4listINtNtB9_8instance5BoundNtB5_6PyListENtB5_13PyListMethods6appendRIBE_NtNtB7_6string8PyStringEEB9_, symObjAddr: 0x2774, symBinAddr: 0x13018, symSize: 0x80 }
  - { offset: 0x3DEF6, size: 0x8, addend: 0x0, symName: __RINvXs_NtNtCs7Qj1RmEtpUo_4pyo35types6moduleINtNtB9_8instance5BoundNtB5_8PyModuleENtB5_15PyModuleMethods3addIBG_NtNtB7_6string8PyStringEIBG_NtNtB7_8function11PyCFunctionEEB9_, symObjAddr: 0x2930, symBinAddr: 0x13098, symSize: 0x13C }
  - { offset: 0x3DF6A, size: 0x8, addend: 0x0, symName: __RNvXs_NtNtCs7Qj1RmEtpUo_4pyo35types6moduleINtNtB8_8instance5BoundNtB4_8PyModuleENtB4_15PyModuleMethods12add_function, symObjAddr: 0x947C, symBinAddr: 0x15DEC, symSize: 0x200 }
  - { offset: 0x3E01B, size: 0x8, addend: 0x0, symName: __RNvXs_NtNtCs7Qj1RmEtpUo_4pyo35types6moduleINtNtB8_8instance5BoundNtB4_8PyModuleENtB4_15PyModuleMethods4name, symObjAddr: 0x97DC, symBinAddr: 0x15FEC, symSize: 0x5C }
  - { offset: 0x3E049, size: 0x8, addend: 0x0, symName: __RNvXs_NtNtCs7Qj1RmEtpUo_4pyo35types6moduleINtNtB8_8instance5BoundNtB4_8PyModuleENtB4_15PyModuleMethods5index, symObjAddr: 0x9838, symBinAddr: 0x16048, symSize: 0x248 }
  - { offset: 0x3E1AC, size: 0x8, addend: 0x0, symName: __RNvXs_NtNtCs7Qj1RmEtpUo_4pyo35types5tupleINtNtB8_8instance5BoundNtB4_7PyTupleENtB4_14PyTupleMethods3len, symObjAddr: 0x92D8, symBinAddr: 0x15DC0, symSize: 0x2C }
  - { offset: 0x3E2FD, size: 0x8, addend: 0x0, symName: __RNvXs_NtNtCs7Qj1RmEtpUo_4pyo35impl_10pyfunctionRINtNtB8_8instance5BoundNtNtNtB8_5types6module8PyModuleEINtB4_17WrapPyFunctionArgIBL_NtNtB1b_8function11PyCFunctionEE15wrap_pyfunction, symObjAddr: 0x7DC8, symBinAddr: 0x15AB0, symSize: 0x44 }
  - { offset: 0x3E495, size: 0x8, addend: 0x0, symName: __RNvXs_NtNtCs7Qj1RmEtpUo_4pyo33err9err_stateINtNtB8_8instance2PyNtNtNtB8_5types3any5PyAnyENtB4_14PyErrArguments9argumentsB8_, symObjAddr: 0x7DA4, symBinAddr: 0x15A8C, symSize: 0x24 }
  - { offset: 0x3E54D, size: 0x8, addend: 0x0, symName: __RNvXs_NtCs7Qj1RmEtpUo_4pyo310conversionRINtNtB6_8instance5BoundNtNtNtB6_5types4list6PyListENtB4_10ToPyObject9to_objectB6_, symObjAddr: 0x7D54, symBinAddr: 0x15A3C, symSize: 0x28 }
  - { offset: 0x3E59F, size: 0x8, addend: 0x0, symName: __RNvXs_NtCs7Qj1RmEtpUo_4pyo310conversionRINtNtB6_8instance5BoundNtNtNtB6_5types6string8PyStringENtB4_10ToPyObject9to_objectB6_, symObjAddr: 0x7D7C, symBinAddr: 0x15A64, symSize: 0x28 }
  - { offset: 0x3E67B, size: 0x8, addend: 0x0, symName: __RINvMNtNtCs7Qj1RmEtpUo_4pyo38internal8get_slotINtNtB7_8instance5BoundNtNtNtB7_5types10typeobject6PyTypeE8get_slotKl30_EB7_, symObjAddr: 0x0, symBinAddr: 0x126F0, symSize: 0x28 }
  - { offset: 0x3E6E2, size: 0x8, addend: 0x0, symName: __RINvMNtNtCs7Qj1RmEtpUo_4pyo38internal8get_slotINtNtB7_8instance5BoundNtNtNtB7_5types10typeobject6PyTypeE8get_slotKl33_EB7_, symObjAddr: 0x28, symBinAddr: 0x12718, symSize: 0x28 }
  - { offset: 0x3E7CB, size: 0x8, addend: 0x0, symName: __RINvMs_NtNtCs7Qj1RmEtpUo_4pyo38internal8get_slotINtNtB9_8instance8BorrowedNtNtNtB9_5types10typeobject6PyTypeE8get_slotKl2f_EB9_, symObjAddr: 0x32C, symBinAddr: 0x12740, symSize: 0x30 }
  - { offset: 0x3E813, size: 0x8, addend: 0x0, symName: __RINvMsa_NtCs7Qj1RmEtpUo_4pyo38instanceINtB6_8BorrowedNtNtNtB8_5types3any5PyAnyE18downcast_uncheckedNtNtBT_10typeobject6PyTypeEB8_, symObjAddr: 0x35C, symBinAddr: 0x12770, symSize: 0x14 }
  - { offset: 0x3E84C, size: 0x8, addend: 0x0, symName: __RINvMsa_NtCs7Qj1RmEtpUo_4pyo38instanceINtB6_8BorrowedNtNtNtB8_5types3any5PyAnyE18downcast_uncheckedNtNtBT_4none6PyNoneEB8_, symObjAddr: 0x370, symBinAddr: 0x12784, symSize: 0x14 }
  - { offset: 0x3E892, size: 0x8, addend: 0x0, symName: __RINvMsa_NtCs7Qj1RmEtpUo_4pyo38instanceINtB6_8BorrowedNtNtNtB8_5types3any5PyAnyE18downcast_uncheckedNtNtBT_6string8PyStringEB8_, symObjAddr: 0x398, symBinAddr: 0x12798, symSize: 0x14 }
  - { offset: 0x3E919, size: 0x8, addend: 0x0, symName: __RNvMs0_NtNtCs7Qj1RmEtpUo_4pyo35types4dictINtNtB9_8instance8BorrowedNtB5_6PyDictE13iter_borrowed, symObjAddr: 0x2CA4, symBinAddr: 0x132D4, symSize: 0x24 }
  - { offset: 0x3E95A, size: 0x8, addend: 0x0, symName: __RNvMs0_NtNtCs7Qj1RmEtpUo_4pyo35types5bytesINtNtB9_8instance8BorrowedNtB5_7PyBytesE8as_bytes, symObjAddr: 0x2CC8, symBinAddr: 0x132F8, symSize: 0x9C }
  - { offset: 0x3E9B3, size: 0x8, addend: 0x0, symName: __RNvMs0_NtNtCs7Qj1RmEtpUo_4pyo35types5tupleINtNtB9_8instance8BorrowedNtB5_7PyTupleE13iter_borrowed, symObjAddr: 0x2D64, symBinAddr: 0x13394, symSize: 0x24 }
  - { offset: 0x3E9D6, size: 0x8, addend: 0x0, symName: __RNvMs0_NtNtCs7Qj1RmEtpUo_4pyo35types5tupleINtNtB9_8instance8BorrowedNtB5_7PyTupleE17get_borrowed_item, symObjAddr: 0x2D88, symBinAddr: 0x133B8, symSize: 0x64 }
  - { offset: 0x3EA08, size: 0x8, addend: 0x0, symName: __RNvMs0_NtNtCs7Qj1RmEtpUo_4pyo35types6stringINtNtB9_8instance8BorrowedNtB5_8PyStringE15to_string_lossy, symObjAddr: 0x2DEC, symBinAddr: 0x1341C, symSize: 0x178 }
  - { offset: 0x3EA84, size: 0x8, addend: 0x0, symName: __RNvMs0_NtNtCs7Qj1RmEtpUo_4pyo35types6stringINtNtB9_8instance8BorrowedNtB5_8PyStringE6to_cow, symObjAddr: 0x2F64, symBinAddr: 0x13594, symSize: 0x3C }
  - { offset: 0x3EAA7, size: 0x8, addend: 0x0, symName: __RNvMs0_NtNtCs7Qj1RmEtpUo_4pyo35types6stringINtNtB9_8instance8BorrowedNtB5_8PyStringE6to_str, symObjAddr: 0x2FA0, symBinAddr: 0x135D0, symSize: 0xCC }
  - { offset: 0x3EB4B, size: 0x8, addend: 0x0, symName: __RNvMs7_NtCs7Qj1RmEtpUo_4pyo38instanceINtB5_5BoundNtNtB7_10exceptions15PyBaseExceptionE6as_anyB7_, symObjAddr: 0x32A4, symBinAddr: 0x1369C, symSize: 0x74 }
  - { offset: 0x3EB77, size: 0x8, addend: 0x0, symName: __RNvMs7_NtCs7Qj1RmEtpUo_4pyo38instanceINtB5_5BoundNtNtB7_10exceptions15PyBaseExceptionE6as_ptrB7_, symObjAddr: 0x3318, symBinAddr: 0x13710, symSize: 0x2C }
  - { offset: 0x3EBA3, size: 0x8, addend: 0x0, symName: __RNvMs7_NtCs7Qj1RmEtpUo_4pyo38instanceINtB5_5BoundNtNtB7_10exceptions15PyBaseExceptionE6unbindB7_, symObjAddr: 0x3344, symBinAddr: 0x1373C, symSize: 0x48 }
  - { offset: 0x3EBED, size: 0x8, addend: 0x0, symName: __RNvMs7_NtCs7Qj1RmEtpUo_4pyo38instanceINtB5_5BoundNtNtNtB7_5types10typeobject6PyTypeE2pyB7_, symObjAddr: 0x33B8, symBinAddr: 0x13784, symSize: 0x10 }
  - { offset: 0x3EC19, size: 0x8, addend: 0x0, symName: __RNvMs7_NtCs7Qj1RmEtpUo_4pyo38instanceINtB5_5BoundNtNtNtB7_5types10typeobject6PyTypeE6as_anyB7_, symObjAddr: 0x33C8, symBinAddr: 0x13794, symSize: 0x74 }
  - { offset: 0x3EC45, size: 0x8, addend: 0x0, symName: __RNvMs7_NtCs7Qj1RmEtpUo_4pyo38instanceINtB5_5BoundNtNtNtB7_5types10typeobject6PyTypeE6as_ptrB7_, symObjAddr: 0x343C, symBinAddr: 0x13808, symSize: 0x2C }
  - { offset: 0x3EC71, size: 0x8, addend: 0x0, symName: __RNvMs7_NtCs7Qj1RmEtpUo_4pyo38instanceINtB5_5BoundNtNtNtB7_5types10typeobject6PyTypeE6unbindB7_, symObjAddr: 0x3468, symBinAddr: 0x13834, symSize: 0x48 }
  - { offset: 0x3ECBB, size: 0x8, addend: 0x0, symName: __RNvMs7_NtCs7Qj1RmEtpUo_4pyo38instanceINtB5_5BoundNtNtNtB7_5types10typeobject6PyTypeE8into_anyB7_, symObjAddr: 0x34B0, symBinAddr: 0x1387C, symSize: 0x30 }
  - { offset: 0x3ECE7, size: 0x8, addend: 0x0, symName: __RNvMs7_NtCs7Qj1RmEtpUo_4pyo38instanceINtB5_5BoundNtNtNtB7_5types3any5PyAnyE11as_borrowedB7_, symObjAddr: 0x34E0, symBinAddr: 0x138AC, symSize: 0x48 }
  - { offset: 0x3ED13, size: 0x8, addend: 0x0, symName: __RNvMs7_NtCs7Qj1RmEtpUo_4pyo38instanceINtB5_5BoundNtNtNtB7_5types3any5PyAnyE2pyB7_, symObjAddr: 0x3528, symBinAddr: 0x138F4, symSize: 0x10 }
  - { offset: 0x3ED3F, size: 0x8, addend: 0x0, symName: __RNvMs7_NtCs7Qj1RmEtpUo_4pyo38instanceINtB5_5BoundNtNtNtB7_5types3any5PyAnyE6as_anyB7_, symObjAddr: 0x3538, symBinAddr: 0x13904, symSize: 0x74 }
  - { offset: 0x3ED6B, size: 0x8, addend: 0x0, symName: __RNvMs7_NtCs7Qj1RmEtpUo_4pyo38instanceINtB5_5BoundNtNtNtB7_5types3any5PyAnyE6as_ptrB7_, symObjAddr: 0x35AC, symBinAddr: 0x13978, symSize: 0x2C }
  - { offset: 0x3ED97, size: 0x8, addend: 0x0, symName: __RNvMs7_NtCs7Qj1RmEtpUo_4pyo38instanceINtB5_5BoundNtNtNtB7_5types3any5PyAnyE6unbindB7_, symObjAddr: 0x35D8, symBinAddr: 0x139A4, symSize: 0x48 }
  - { offset: 0x3EDE1, size: 0x8, addend: 0x0, symName: __RNvMs7_NtCs7Qj1RmEtpUo_4pyo38instanceINtB5_5BoundNtNtNtB7_5types3any5PyAnyE8into_anyB7_, symObjAddr: 0x3620, symBinAddr: 0x139EC, symSize: 0x30 }
  - { offset: 0x3EE1A, size: 0x8, addend: 0x0, symName: __RNvMs7_NtCs7Qj1RmEtpUo_4pyo38instanceINtB5_5BoundNtNtNtB7_5types3num6PyLongE6as_ptrB7_, symObjAddr: 0x3690, symBinAddr: 0x13A1C, symSize: 0x2C }
  - { offset: 0x3EE53, size: 0x8, addend: 0x0, symName: __RNvMs7_NtCs7Qj1RmEtpUo_4pyo38instanceINtB5_5BoundNtNtNtB7_5types4dict6PyDictE2pyB7_, symObjAddr: 0x376C, symBinAddr: 0x13A48, symSize: 0x10 }
  - { offset: 0x3EE7F, size: 0x8, addend: 0x0, symName: __RNvMs7_NtCs7Qj1RmEtpUo_4pyo38instanceINtB5_5BoundNtNtNtB7_5types4dict6PyDictE6as_ptrB7_, symObjAddr: 0x37F0, symBinAddr: 0x13A58, symSize: 0x2C }
  - { offset: 0x3EEB8, size: 0x8, addend: 0x0, symName: __RNvMs7_NtCs7Qj1RmEtpUo_4pyo38instanceINtB5_5BoundNtNtNtB7_5types4list6PyListE2pyB7_, symObjAddr: 0x3894, symBinAddr: 0x13A84, symSize: 0x10 }
  - { offset: 0x3EEE4, size: 0x8, addend: 0x0, symName: __RNvMs7_NtCs7Qj1RmEtpUo_4pyo38instanceINtB5_5BoundNtNtNtB7_5types4list6PyListE6as_ptrB7_, symObjAddr: 0x3918, symBinAddr: 0x13A94, symSize: 0x2C }
  - { offset: 0x3EF10, size: 0x8, addend: 0x0, symName: __RNvMs7_NtCs7Qj1RmEtpUo_4pyo38instanceINtB5_5BoundNtNtNtB7_5types4list6PyListE6unbindB7_, symObjAddr: 0x3944, symBinAddr: 0x13AC0, symSize: 0x48 }
  - { offset: 0x3EF5A, size: 0x8, addend: 0x0, symName: __RNvMs7_NtCs7Qj1RmEtpUo_4pyo38instanceINtB5_5BoundNtNtNtB7_5types4list6PyListE8into_anyB7_, symObjAddr: 0x398C, symBinAddr: 0x13B08, symSize: 0x30 }
  - { offset: 0x3EF86, size: 0x8, addend: 0x0, symName: __RNvMs7_NtCs7Qj1RmEtpUo_4pyo38instanceINtB5_5BoundNtNtNtB7_5types4none6PyNoneE6unbindB7_, symObjAddr: 0x39BC, symBinAddr: 0x13B38, symSize: 0x48 }
  - { offset: 0x3EFD0, size: 0x8, addend: 0x0, symName: __RNvMs7_NtCs7Qj1RmEtpUo_4pyo38instanceINtB5_5BoundNtNtNtB7_5types4none6PyNoneE8into_anyB7_, symObjAddr: 0x3A04, symBinAddr: 0x13B80, symSize: 0x30 }
  - { offset: 0x3F009, size: 0x8, addend: 0x0, symName: __RNvMs7_NtCs7Qj1RmEtpUo_4pyo38instanceINtB5_5BoundNtNtNtB7_5types5bytes7PyBytesE11as_borrowedB7_, symObjAddr: 0x3A34, symBinAddr: 0x13BB0, symSize: 0x48 }
  - { offset: 0x3F035, size: 0x8, addend: 0x0, symName: __RNvMs7_NtCs7Qj1RmEtpUo_4pyo38instanceINtB5_5BoundNtNtNtB7_5types5bytes7PyBytesE2pyB7_, symObjAddr: 0x3A7C, symBinAddr: 0x13BF8, symSize: 0x10 }
  - { offset: 0x3F061, size: 0x8, addend: 0x0, symName: __RNvMs7_NtCs7Qj1RmEtpUo_4pyo38instanceINtB5_5BoundNtNtNtB7_5types5bytes7PyBytesE6as_ptrB7_, symObjAddr: 0x3A8C, symBinAddr: 0x13C08, symSize: 0x2C }
  - { offset: 0x3F09A, size: 0x8, addend: 0x0, symName: __RNvMs7_NtCs7Qj1RmEtpUo_4pyo38instanceINtB5_5BoundNtNtNtB7_5types5float7PyFloatE2pyB7_, symObjAddr: 0x3B30, symBinAddr: 0x13C34, symSize: 0x10 }
  - { offset: 0x3F0C6, size: 0x8, addend: 0x0, symName: __RNvMs7_NtCs7Qj1RmEtpUo_4pyo38instanceINtB5_5BoundNtNtNtB7_5types5float7PyFloatE6as_ptrB7_, symObjAddr: 0x3B40, symBinAddr: 0x13C44, symSize: 0x2C }
  - { offset: 0x3F0F2, size: 0x8, addend: 0x0, symName: __RNvMs7_NtCs7Qj1RmEtpUo_4pyo38instanceINtB5_5BoundNtNtNtB7_5types5float7PyFloatE6unbindB7_, symObjAddr: 0x3B6C, symBinAddr: 0x13C70, symSize: 0x48 }
  - { offset: 0x3F13C, size: 0x8, addend: 0x0, symName: __RNvMs7_NtCs7Qj1RmEtpUo_4pyo38instanceINtB5_5BoundNtNtNtB7_5types5float7PyFloatE8into_anyB7_, symObjAddr: 0x3BB4, symBinAddr: 0x13CB8, symSize: 0x30 }
  - { offset: 0x3F175, size: 0x8, addend: 0x0, symName: __RNvMs7_NtCs7Qj1RmEtpUo_4pyo38instanceINtB5_5BoundNtNtNtB7_5types5tuple7PyTupleE2pyB7_, symObjAddr: 0x3CE0, symBinAddr: 0x13CE8, symSize: 0x10 }
  - { offset: 0x3F1A1, size: 0x8, addend: 0x0, symName: __RNvMs7_NtCs7Qj1RmEtpUo_4pyo38instanceINtB5_5BoundNtNtNtB7_5types5tuple7PyTupleE6as_ptrB7_, symObjAddr: 0x3D64, symBinAddr: 0x13CF8, symSize: 0x2C }
  - { offset: 0x3F1DA, size: 0x8, addend: 0x0, symName: __RNvMs7_NtCs7Qj1RmEtpUo_4pyo38instanceINtB5_5BoundNtNtNtB7_5types6module8PyModuleE2pyB7_, symObjAddr: 0x3E08, symBinAddr: 0x13D24, symSize: 0x10 }
  - { offset: 0x3F206, size: 0x8, addend: 0x0, symName: __RNvMs7_NtCs7Qj1RmEtpUo_4pyo38instanceINtB5_5BoundNtNtNtB7_5types6module8PyModuleE6as_anyB7_, symObjAddr: 0x3E18, symBinAddr: 0x13D34, symSize: 0x74 }
  - { offset: 0x3F232, size: 0x8, addend: 0x0, symName: __RNvMs7_NtCs7Qj1RmEtpUo_4pyo38instanceINtB5_5BoundNtNtNtB7_5types6module8PyModuleE6as_ptrB7_, symObjAddr: 0x3E8C, symBinAddr: 0x13DA8, symSize: 0x2C }
  - { offset: 0x3F25E, size: 0x8, addend: 0x0, symName: __RNvMs7_NtCs7Qj1RmEtpUo_4pyo38instanceINtB5_5BoundNtNtNtB7_5types6string8PyStringE11as_borrowedB7_, symObjAddr: 0x3F30, symBinAddr: 0x13DD4, symSize: 0x48 }
  - { offset: 0x3F28A, size: 0x8, addend: 0x0, symName: __RNvMs7_NtCs7Qj1RmEtpUo_4pyo38instanceINtB5_5BoundNtNtNtB7_5types6string8PyStringE2pyB7_, symObjAddr: 0x3F78, symBinAddr: 0x13E1C, symSize: 0x10 }
  - { offset: 0x3F2B6, size: 0x8, addend: 0x0, symName: __RNvMs7_NtCs7Qj1RmEtpUo_4pyo38instanceINtB5_5BoundNtNtNtB7_5types6string8PyStringE6as_anyB7_, symObjAddr: 0x3F88, symBinAddr: 0x13E2C, symSize: 0x74 }
  - { offset: 0x3F2E2, size: 0x8, addend: 0x0, symName: __RNvMs7_NtCs7Qj1RmEtpUo_4pyo38instanceINtB5_5BoundNtNtNtB7_5types6string8PyStringE6as_ptrB7_, symObjAddr: 0x3FFC, symBinAddr: 0x13EA0, symSize: 0x2C }
  - { offset: 0x3F30E, size: 0x8, addend: 0x0, symName: __RNvMs7_NtCs7Qj1RmEtpUo_4pyo38instanceINtB5_5BoundNtNtNtB7_5types6string8PyStringE6unbindB7_, symObjAddr: 0x4028, symBinAddr: 0x13ECC, symSize: 0x48 }
  - { offset: 0x3F358, size: 0x8, addend: 0x0, symName: __RNvMs7_NtCs7Qj1RmEtpUo_4pyo38instanceINtB5_5BoundNtNtNtB7_5types6string8PyStringE8into_anyB7_, symObjAddr: 0x4070, symBinAddr: 0x13F14, symSize: 0x30 }
  - { offset: 0x3F391, size: 0x8, addend: 0x0, symName: __RNvMs7_NtCs7Qj1RmEtpUo_4pyo38instanceINtB5_5BoundNtNtNtB7_5types8function11PyCFunctionE6as_anyB7_, symObjAddr: 0x4134, symBinAddr: 0x13F44, symSize: 0x74 }
  - { offset: 0x3F3BD, size: 0x8, addend: 0x0, symName: __RNvMs7_NtCs7Qj1RmEtpUo_4pyo38instanceINtB5_5BoundNtNtNtB7_5types8function11PyCFunctionE6as_ptrB7_, symObjAddr: 0x41A8, symBinAddr: 0x13FB8, symSize: 0x2C }
  - { offset: 0x3F3E9, size: 0x8, addend: 0x0, symName: __RNvMs7_NtCs7Qj1RmEtpUo_4pyo38instanceINtB5_5BoundNtNtNtB7_5types8function11PyCFunctionE6unbindB7_, symObjAddr: 0x41D4, symBinAddr: 0x13FE4, symSize: 0x48 }
  - { offset: 0x3F433, size: 0x8, addend: 0x0, symName: __RNvMs7_NtCs7Qj1RmEtpUo_4pyo38instanceINtB5_5BoundNtNtNtB7_5types8function11PyCFunctionE8into_anyB7_, symObjAddr: 0x421C, symBinAddr: 0x1402C, symSize: 0x30 }
  - { offset: 0x3F46C, size: 0x8, addend: 0x0, symName: __RNvMs7_NtCs7Qj1RmEtpUo_4pyo38instanceINtB5_5BoundNtNtNtB7_5types9traceback11PyTracebackE6as_anyB7_, symObjAddr: 0x44C4, symBinAddr: 0x1405C, symSize: 0x74 }
  - { offset: 0x3F498, size: 0x8, addend: 0x0, symName: __RNvMs7_NtCs7Qj1RmEtpUo_4pyo38instanceINtB5_5BoundNtNtNtB7_5types9traceback11PyTracebackE6as_ptrB7_, symObjAddr: 0x4538, symBinAddr: 0x140D0, symSize: 0x2C }
  - { offset: 0x3F4C4, size: 0x8, addend: 0x0, symName: __RNvMs9_NtCs7Qj1RmEtpUo_4pyo38instanceINtB5_8BorrowedNtNtNtB7_5types10typeobject6PyTypeE8to_ownedB7_, symObjAddr: 0x4618, symBinAddr: 0x140FC, symSize: 0x2C }
  - { offset: 0x3F4F0, size: 0x8, addend: 0x0, symName: __RNvMs9_NtCs7Qj1RmEtpUo_4pyo38instanceINtB5_8BorrowedNtNtNtB7_5types3any5PyAnyE8to_ownedB7_, symObjAddr: 0x4644, symBinAddr: 0x14128, symSize: 0x2C }
  - { offset: 0x3F51C, size: 0x8, addend: 0x0, symName: __RNvMs9_NtCs7Qj1RmEtpUo_4pyo38instanceINtB5_8BorrowedNtNtNtB7_5types4none6PyNoneE8to_ownedB7_, symObjAddr: 0x4670, symBinAddr: 0x14154, symSize: 0x2C }
  - { offset: 0x3F555, size: 0x8, addend: 0x0, symName: __RNvMs_NtCs7Qj1RmEtpUo_4pyo38instanceINtB4_5BoundNtNtNtB6_5types3any5PyAnyE12ref_from_ptrB6_, symObjAddr: 0x46C8, symBinAddr: 0x14180, symSize: 0x74 }
  - { offset: 0x3F5BB, size: 0x8, addend: 0x0, symName: __RNvMs_NtCs7Qj1RmEtpUo_4pyo38instanceINtB4_5BoundNtNtNtB6_5types3any5PyAnyE14from_owned_ptrB6_, symObjAddr: 0x473C, symBinAddr: 0x141F4, symSize: 0x2C }
  - { offset: 0x3F603, size: 0x8, addend: 0x0, symName: __RNvMs_NtCs7Qj1RmEtpUo_4pyo38instanceINtB4_5BoundNtNtNtB6_5types3any5PyAnyE21from_owned_ptr_or_errB6_, symObjAddr: 0x47DC, symBinAddr: 0x14220, symSize: 0x40 }
  - { offset: 0x3F63E, size: 0x8, addend: 0x0, symName: __RNvMs_NtCs7Qj1RmEtpUo_4pyo38instanceINtB4_5BoundNtNtNtB6_5types3any5PyAnyE21from_owned_ptr_or_optB6_, symObjAddr: 0x481C, symBinAddr: 0x14260, symSize: 0x2C }
  - { offset: 0x3F679, size: 0x8, addend: 0x0, symName: __RNvMsa_NtCs7Qj1RmEtpUo_4pyo38instanceINtB5_8BorrowedNtNtNtB7_5types3any5PyAnyE15from_ptr_or_errB7_, symObjAddr: 0x4848, symBinAddr: 0x1428C, symSize: 0x38 }
  - { offset: 0x3F6B7, size: 0x8, addend: 0x0, symName: __RNvMsa_NtCs7Qj1RmEtpUo_4pyo38instanceINtB5_8BorrowedNtNtNtB7_5types3any5PyAnyE18from_ptr_uncheckedB7_, symObjAddr: 0x4880, symBinAddr: 0x142C4, symSize: 0x2C }
  - { offset: 0x3F6F5, size: 0x8, addend: 0x0, symName: __RNvMsa_NtCs7Qj1RmEtpUo_4pyo38instanceINtB5_8BorrowedNtNtNtB7_5types3any5PyAnyE8from_ptrB7_, symObjAddr: 0x48AC, symBinAddr: 0x142F0, symSize: 0x34 }
  - { offset: 0x3F740, size: 0x8, addend: 0x0, symName: __RNvMsl_NtCs7Qj1RmEtpUo_4pyo38instanceINtB5_2PyNtNtB7_10exceptions15PyBaseExceptionE6as_ptrB7_, symObjAddr: 0x48E0, symBinAddr: 0x14324, symSize: 0x1C }
  - { offset: 0x3F76C, size: 0x8, addend: 0x0, symName: __RNvMsl_NtCs7Qj1RmEtpUo_4pyo38instanceINtB5_2PyNtNtB7_10exceptions15PyBaseExceptionE8into_ptrB7_, symObjAddr: 0x4938, symBinAddr: 0x14340, symSize: 0x30 }
  - { offset: 0x3F7A5, size: 0x8, addend: 0x0, symName: __RNvMsl_NtCs7Qj1RmEtpUo_4pyo38instanceINtB5_2PyNtNtNtB7_5types10boolobject6PyBoolE6as_ptrB7_, symObjAddr: 0x4968, symBinAddr: 0x14370, symSize: 0x1C }
  - { offset: 0x3F7D1, size: 0x8, addend: 0x0, symName: __RNvMsl_NtCs7Qj1RmEtpUo_4pyo38instanceINtB5_2PyNtNtNtB7_5types10typeobject6PyTypeE6as_ptrB7_, symObjAddr: 0x4984, symBinAddr: 0x1438C, symSize: 0x1C }
  - { offset: 0x3F7FD, size: 0x8, addend: 0x0, symName: __RNvMsl_NtCs7Qj1RmEtpUo_4pyo38instanceINtB5_2PyNtNtNtB7_5types10typeobject6PyTypeE8into_anyB7_, symObjAddr: 0x49A0, symBinAddr: 0x143A8, symSize: 0x3C }
  - { offset: 0x3F829, size: 0x8, addend: 0x0, symName: __RNvMsl_NtCs7Qj1RmEtpUo_4pyo38instanceINtB5_2PyNtNtNtB7_5types3any5PyAnyE6as_ptrB7_, symObjAddr: 0x49DC, symBinAddr: 0x143E4, symSize: 0x1C }
  - { offset: 0x3F855, size: 0x8, addend: 0x0, symName: __RNvMsl_NtCs7Qj1RmEtpUo_4pyo38instanceINtB5_2PyNtNtNtB7_5types3any5PyAnyE8into_anyB7_, symObjAddr: 0x49F8, symBinAddr: 0x14400, symSize: 0x3C }
  - { offset: 0x3F881, size: 0x8, addend: 0x0, symName: __RNvMsl_NtCs7Qj1RmEtpUo_4pyo38instanceINtB5_2PyNtNtNtB7_5types3any5PyAnyE8into_ptrB7_, symObjAddr: 0x4A34, symBinAddr: 0x1443C, symSize: 0x30 }
  - { offset: 0x3F8BA, size: 0x8, addend: 0x0, symName: __RNvMsl_NtCs7Qj1RmEtpUo_4pyo38instanceINtB5_2PyNtNtNtB7_5types3num6PyLongE6as_ptrB7_, symObjAddr: 0x4A64, symBinAddr: 0x1446C, symSize: 0x1C }
  - { offset: 0x3F8E6, size: 0x8, addend: 0x0, symName: __RNvMsl_NtCs7Qj1RmEtpUo_4pyo38instanceINtB5_2PyNtNtNtB7_5types4dict6PyDictE6as_ptrB7_, symObjAddr: 0x4A9C, symBinAddr: 0x14488, symSize: 0x1C }
  - { offset: 0x3F91F, size: 0x8, addend: 0x0, symName: __RNvMsl_NtCs7Qj1RmEtpUo_4pyo38instanceINtB5_2PyNtNtNtB7_5types4list6PyListE6as_ptrB7_, symObjAddr: 0x4AF4, symBinAddr: 0x144A4, symSize: 0x1C }
  - { offset: 0x3F94B, size: 0x8, addend: 0x0, symName: __RNvMsl_NtCs7Qj1RmEtpUo_4pyo38instanceINtB5_2PyNtNtNtB7_5types4list6PyListE8into_anyB7_, symObjAddr: 0x4B10, symBinAddr: 0x144C0, symSize: 0x3C }
  - { offset: 0x3F977, size: 0x8, addend: 0x0, symName: __RNvMsl_NtCs7Qj1RmEtpUo_4pyo38instanceINtB5_2PyNtNtNtB7_5types4none6PyNoneE6as_ptrB7_, symObjAddr: 0x4B4C, symBinAddr: 0x144FC, symSize: 0x1C }
  - { offset: 0x3F9A3, size: 0x8, addend: 0x0, symName: __RNvMsl_NtCs7Qj1RmEtpUo_4pyo38instanceINtB5_2PyNtNtNtB7_5types4none6PyNoneE8into_anyB7_, symObjAddr: 0x4B68, symBinAddr: 0x14518, symSize: 0x3C }
  - { offset: 0x3F9CF, size: 0x8, addend: 0x0, symName: __RNvMsl_NtCs7Qj1RmEtpUo_4pyo38instanceINtB5_2PyNtNtNtB7_5types5bytes7PyBytesE6as_ptrB7_, symObjAddr: 0x4BA4, symBinAddr: 0x14554, symSize: 0x1C }
  - { offset: 0x3FA08, size: 0x8, addend: 0x0, symName: __RNvMsl_NtCs7Qj1RmEtpUo_4pyo38instanceINtB5_2PyNtNtNtB7_5types5float7PyFloatE6as_ptrB7_, symObjAddr: 0x4BFC, symBinAddr: 0x14570, symSize: 0x1C }
  - { offset: 0x3FA34, size: 0x8, addend: 0x0, symName: __RNvMsl_NtCs7Qj1RmEtpUo_4pyo38instanceINtB5_2PyNtNtNtB7_5types5float7PyFloatE8into_anyB7_, symObjAddr: 0x4C18, symBinAddr: 0x1458C, symSize: 0x3C }
  - { offset: 0x3FA60, size: 0x8, addend: 0x0, symName: __RNvMsl_NtCs7Qj1RmEtpUo_4pyo38instanceINtB5_2PyNtNtNtB7_5types5tuple7PyTupleE6as_ptrB7_, symObjAddr: 0x4CAC, symBinAddr: 0x145C8, symSize: 0x1C }
  - { offset: 0x3FA8C, size: 0x8, addend: 0x0, symName: __RNvMsl_NtCs7Qj1RmEtpUo_4pyo38instanceINtB5_2PyNtNtNtB7_5types5tuple7PyTupleE8into_anyB7_, symObjAddr: 0x4CC8, symBinAddr: 0x145E4, symSize: 0x3C }
  - { offset: 0x3FAC5, size: 0x8, addend: 0x0, symName: __RNvMsl_NtCs7Qj1RmEtpUo_4pyo38instanceINtB5_2PyNtNtNtB7_5types6module8PyModuleE6as_ptrB7_, symObjAddr: 0x4D04, symBinAddr: 0x14620, symSize: 0x1C }
  - { offset: 0x3FAF1, size: 0x8, addend: 0x0, symName: __RNvMsl_NtCs7Qj1RmEtpUo_4pyo38instanceINtB5_2PyNtNtNtB7_5types6string8PyStringE6as_ptrB7_, symObjAddr: 0x4D5C, symBinAddr: 0x1463C, symSize: 0x1C }
  - { offset: 0x3FB1D, size: 0x8, addend: 0x0, symName: __RNvMsl_NtCs7Qj1RmEtpUo_4pyo38instanceINtB5_2PyNtNtNtB7_5types6string8PyStringE8into_anyB7_, symObjAddr: 0x4D78, symBinAddr: 0x14658, symSize: 0x3C }
  - { offset: 0x3FB56, size: 0x8, addend: 0x0, symName: __RNvMsl_NtCs7Qj1RmEtpUo_4pyo38instanceINtB5_2PyNtNtNtB7_5types8function11PyCFunctionE6as_ptrB7_, symObjAddr: 0x4E08, symBinAddr: 0x14694, symSize: 0x1C }
  - { offset: 0x3FB82, size: 0x8, addend: 0x0, symName: __RNvMsl_NtCs7Qj1RmEtpUo_4pyo38instanceINtB5_2PyNtNtNtB7_5types8function11PyCFunctionE8into_anyB7_, symObjAddr: 0x4E24, symBinAddr: 0x146B0, symSize: 0x3C }
  - { offset: 0x3FBBB, size: 0x8, addend: 0x0, symName: __RNvMsl_NtCs7Qj1RmEtpUo_4pyo38instanceINtB5_2PyNtNtNtB7_5types9traceback11PyTracebackE6as_ptrB7_, symObjAddr: 0x4ED0, symBinAddr: 0x146EC, symSize: 0x1C }
  - { offset: 0x3FBE7, size: 0x8, addend: 0x0, symName: __RNvMsn_NtCs7Qj1RmEtpUo_4pyo38instanceINtB5_2PyNtNtB7_10exceptions15PyBaseExceptionE13from_non_nullB7_, symObjAddr: 0x4F40, symBinAddr: 0x14708, symSize: 0x14 }
  - { offset: 0x3FC13, size: 0x8, addend: 0x0, symName: __RNvMsn_NtCs7Qj1RmEtpUo_4pyo38instanceINtB5_2PyNtNtB7_10exceptions15PyBaseExceptionE21from_owned_ptr_or_optB7_, symObjAddr: 0x4F54, symBinAddr: 0x1471C, symSize: 0x28 }
  - { offset: 0x3FC5A, size: 0x8, addend: 0x0, symName: __RNvMsn_NtCs7Qj1RmEtpUo_4pyo38instanceINtB5_2PyNtNtB7_10exceptions15PyBaseExceptionE4bindB7_, symObjAddr: 0x4F7C, symBinAddr: 0x14744, symSize: 0x74 }
  - { offset: 0x3FCA1, size: 0x8, addend: 0x0, symName: __RNvMsn_NtCs7Qj1RmEtpUo_4pyo38instanceINtB5_2PyNtNtB7_10exceptions15PyBaseExceptionE9clone_refB7_, symObjAddr: 0x4FF0, symBinAddr: 0x147B8, symSize: 0x40 }
  - { offset: 0x3FD06, size: 0x8, addend: 0x0, symName: __RNvMsn_NtCs7Qj1RmEtpUo_4pyo38instanceINtB5_2PyNtNtNtB7_5types10typeobject6PyTypeE13from_non_nullB7_, symObjAddr: 0x5030, symBinAddr: 0x147F8, symSize: 0x14 }
  - { offset: 0x3FD32, size: 0x8, addend: 0x0, symName: __RNvMsn_NtCs7Qj1RmEtpUo_4pyo38instanceINtB5_2PyNtNtNtB7_5types10typeobject6PyTypeE21from_owned_ptr_or_errB7_, symObjAddr: 0x5044, symBinAddr: 0x1480C, symSize: 0x88 }
  - { offset: 0x3FD97, size: 0x8, addend: 0x0, symName: __RNvMsn_NtCs7Qj1RmEtpUo_4pyo38instanceINtB5_2PyNtNtNtB7_5types10typeobject6PyTypeE4bindB7_, symObjAddr: 0x50CC, symBinAddr: 0x14894, symSize: 0x74 }
  - { offset: 0x3FDDE, size: 0x8, addend: 0x0, symName: __RNvMsn_NtCs7Qj1RmEtpUo_4pyo38instanceINtB5_2PyNtNtNtB7_5types10typeobject6PyTypeE9clone_refB7_, symObjAddr: 0x5140, symBinAddr: 0x14908, symSize: 0x40 }
  - { offset: 0x3FE43, size: 0x8, addend: 0x0, symName: __RNvMsn_NtCs7Qj1RmEtpUo_4pyo38instanceINtB5_2PyNtNtNtB7_5types3any5PyAnyE10into_boundB7_, symObjAddr: 0x5180, symBinAddr: 0x14948, symSize: 0x1C }
  - { offset: 0x3FE8A, size: 0x8, addend: 0x0, symName: __RNvMsn_NtCs7Qj1RmEtpUo_4pyo38instanceINtB5_2PyNtNtNtB7_5types3any5PyAnyE13from_non_nullB7_, symObjAddr: 0x519C, symBinAddr: 0x14964, symSize: 0x14 }
  - { offset: 0x3FEB6, size: 0x8, addend: 0x0, symName: __RNvMsn_NtCs7Qj1RmEtpUo_4pyo38instanceINtB5_2PyNtNtNtB7_5types3any5PyAnyE14from_owned_ptrB7_, symObjAddr: 0x51B0, symBinAddr: 0x14978, symSize: 0x50 }
  - { offset: 0x3FEFD, size: 0x8, addend: 0x0, symName: __RNvMsn_NtCs7Qj1RmEtpUo_4pyo38instanceINtB5_2PyNtNtNtB7_5types3any5PyAnyE21from_owned_ptr_or_errB7_, symObjAddr: 0x5200, symBinAddr: 0x149C8, symSize: 0x88 }
  - { offset: 0x3FF62, size: 0x8, addend: 0x0, symName: __RNvMsn_NtCs7Qj1RmEtpUo_4pyo38instanceINtB5_2PyNtNtNtB7_5types3any5PyAnyE21from_owned_ptr_or_optB7_, symObjAddr: 0x5288, symBinAddr: 0x14A50, symSize: 0x28 }
  - { offset: 0x3FFA9, size: 0x8, addend: 0x0, symName: __RNvMsn_NtCs7Qj1RmEtpUo_4pyo38instanceINtB5_2PyNtNtNtB7_5types3any5PyAnyE9clone_refB7_, symObjAddr: 0x5324, symBinAddr: 0x14A78, symSize: 0x40 }
  - { offset: 0x4000E, size: 0x8, addend: 0x0, symName: __RNvMsn_NtCs7Qj1RmEtpUo_4pyo38instanceINtB5_2PyNtNtNtB7_5types4list6PyListE13from_non_nullB7_, symObjAddr: 0x540C, symBinAddr: 0x14AB8, symSize: 0x14 }
  - { offset: 0x4003A, size: 0x8, addend: 0x0, symName: __RNvMsn_NtCs7Qj1RmEtpUo_4pyo38instanceINtB5_2PyNtNtNtB7_5types4list6PyListE9clone_refB7_, symObjAddr: 0x5420, symBinAddr: 0x14ACC, symSize: 0x40 }
  - { offset: 0x4009F, size: 0x8, addend: 0x0, symName: __RNvMsn_NtCs7Qj1RmEtpUo_4pyo38instanceINtB5_2PyNtNtNtB7_5types4none6PyNoneE13from_non_nullB7_, symObjAddr: 0x5460, symBinAddr: 0x14B0C, symSize: 0x14 }
  - { offset: 0x400CB, size: 0x8, addend: 0x0, symName: __RNvMsn_NtCs7Qj1RmEtpUo_4pyo38instanceINtB5_2PyNtNtNtB7_5types4none6PyNoneE9clone_refB7_, symObjAddr: 0x5474, symBinAddr: 0x14B20, symSize: 0x40 }
  - { offset: 0x40130, size: 0x8, addend: 0x0, symName: __RNvMsn_NtCs7Qj1RmEtpUo_4pyo38instanceINtB5_2PyNtNtNtB7_5types5float7PyFloatE13from_non_nullB7_, symObjAddr: 0x5570, symBinAddr: 0x14B60, symSize: 0x14 }
  - { offset: 0x4015C, size: 0x8, addend: 0x0, symName: __RNvMsn_NtCs7Qj1RmEtpUo_4pyo38instanceINtB5_2PyNtNtNtB7_5types5tuple7PyTupleE14from_owned_ptrB7_, symObjAddr: 0x55C8, symBinAddr: 0x14B74, symSize: 0x50 }
  - { offset: 0x401A3, size: 0x8, addend: 0x0, symName: __RNvMsn_NtCs7Qj1RmEtpUo_4pyo38instanceINtB5_2PyNtNtNtB7_5types6module8PyModuleE13from_non_nullB7_, symObjAddr: 0x5658, symBinAddr: 0x14BC4, symSize: 0x14 }
  - { offset: 0x401CF, size: 0x8, addend: 0x0, symName: __RNvMsn_NtCs7Qj1RmEtpUo_4pyo38instanceINtB5_2PyNtNtNtB7_5types6module8PyModuleE21from_owned_ptr_or_errB7_, symObjAddr: 0x566C, symBinAddr: 0x14BD8, symSize: 0x88 }
  - { offset: 0x40234, size: 0x8, addend: 0x0, symName: __RNvMsn_NtCs7Qj1RmEtpUo_4pyo38instanceINtB5_2PyNtNtNtB7_5types6module8PyModuleE4bindB7_, symObjAddr: 0x56F4, symBinAddr: 0x14C60, symSize: 0x74 }
  - { offset: 0x4027B, size: 0x8, addend: 0x0, symName: __RNvMsn_NtCs7Qj1RmEtpUo_4pyo38instanceINtB5_2PyNtNtNtB7_5types6module8PyModuleE9clone_refB7_, symObjAddr: 0x5768, symBinAddr: 0x14CD4, symSize: 0x40 }
  - { offset: 0x402E0, size: 0x8, addend: 0x0, symName: __RNvMsn_NtCs7Qj1RmEtpUo_4pyo38instanceINtB5_2PyNtNtNtB7_5types6string8PyStringE10into_boundB7_, symObjAddr: 0x57A8, symBinAddr: 0x14D14, symSize: 0x1C }
  - { offset: 0x40327, size: 0x8, addend: 0x0, symName: __RNvMsn_NtCs7Qj1RmEtpUo_4pyo38instanceINtB5_2PyNtNtNtB7_5types6string8PyStringE13from_non_nullB7_, symObjAddr: 0x57DC, symBinAddr: 0x14D30, symSize: 0x14 }
  - { offset: 0x40353, size: 0x8, addend: 0x0, symName: __RNvMsn_NtCs7Qj1RmEtpUo_4pyo38instanceINtB5_2PyNtNtNtB7_5types6string8PyStringE4bindB7_, symObjAddr: 0x57F0, symBinAddr: 0x14D44, symSize: 0x74 }
  - { offset: 0x4039A, size: 0x8, addend: 0x0, symName: __RNvMsn_NtCs7Qj1RmEtpUo_4pyo38instanceINtB5_2PyNtNtNtB7_5types6string8PyStringE9clone_refB7_, symObjAddr: 0x5864, symBinAddr: 0x14DB8, symSize: 0x40 }
  - { offset: 0x403FF, size: 0x8, addend: 0x0, symName: __RNvMsn_NtCs7Qj1RmEtpUo_4pyo38instanceINtB5_2PyNtNtNtB7_5types8function11PyCFunctionE13from_non_nullB7_, symObjAddr: 0x58A4, symBinAddr: 0x14DF8, symSize: 0x14 }
  - { offset: 0x40768, size: 0x8, addend: 0x0, symName: __RINvMs6_NtCsfTBDVhxuWss_9hashbrown3rawINtB6_8RawTableTRNtNtNtCs7dfkhshTrE4_4core3ffi5c_str4CStrNtNtNtCs7Qj1RmEtpUo_4pyo37pyclass18create_type_object16GetSetDefBuilderEE14reserve_rehashNCINvNtB8_3map11make_hasherBQ_B1v_NtNtNtCskXqYSXpV4rx_3std4hash6random11RandomStateE0EB1B_, symObjAddr: 0x0, symBinAddr: 0x6A4A0, symSize: 0x764 }
  - { offset: 0x40797, size: 0x8, addend: 0x0, symName: __RNCINvMs6_NtCsfTBDVhxuWss_9hashbrown3rawINtB8_8RawTableTRNtNtNtCs7dfkhshTrE4_4core3ffi5c_str4CStrNtNtNtCs7Qj1RmEtpUo_4pyo37pyclass18create_type_object16GetSetDefBuilderEE14reserve_rehashNCINvNtBa_3map11make_hasherBS_B1x_NtNtNtCskXqYSXpV4rx_3std4hash6random11RandomStateE0E0B1D_, symObjAddr: 0x127C, symBinAddr: 0x175E0, symSize: 0xC0 }
  - { offset: 0x4097B, size: 0x8, addend: 0x0, symName: __RNCINvMs6_NtCsfTBDVhxuWss_9hashbrown3rawINtB8_8RawTableTRNtNtNtCs7dfkhshTrE4_4core3ffi5c_str4CStrNtNtNtCs7Qj1RmEtpUo_4pyo37pyclass18create_type_object16GetSetDefBuilderEE4findNCNvMNtBa_11rustc_entryINtNtBa_3map7HashMapBS_B1x_NtNtNtCskXqYSXpV4rx_3std4hash6random11RandomStateE11rustc_entry0E0B1D_, symObjAddr: 0x133C, symBinAddr: 0x176A0, symSize: 0xC4 }
  - { offset: 0x41226, size: 0x8, addend: 0x0, symName: __RNCINvMsa_NtCsfTBDVhxuWss_9hashbrown3rawNtB8_13RawTableInner14prepare_resizeNtNtCs2iVXuAemrgm_5alloc5alloc6GlobalE0Cs7Qj1RmEtpUo_4pyo3, symObjAddr: 0x1400, symBinAddr: 0x17764, symSize: 0xB0 }
  - { offset: 0x413FD, size: 0x8, addend: 0x0, symName: __RNCNvMsa_NtCsfTBDVhxuWss_9hashbrown3rawNtB7_13RawTableInner15rehash_in_place0Cs7Qj1RmEtpUo_4pyo3, symObjAddr: 0x14B0, symBinAddr: 0x17814, symSize: 0x1F8 }
  - { offset: 0x41A41, size: 0x8, addend: 0x0, symName: __RNvNtCsfTBDVhxuWss_9hashbrown3raw19capacity_to_bucketsCs7Qj1RmEtpUo_4pyo3, symObjAddr: 0x246C, symBinAddr: 0x187D0, symSize: 0x2C8 }
  - { offset: 0x41DF1, size: 0x8, addend: 0x0, symName: __RNvXsg_NtCsfTBDVhxuWss_9hashbrown3rawINtB5_8RawTableTRNtNtNtCs7dfkhshTrE4_4core3ffi5c_str4CStrNtNtNtCs7Qj1RmEtpUo_4pyo37pyclass18create_type_object16GetSetDefBuilderEENtNtNtBW_3ops4drop4Drop4dropB1A_, symObjAddr: 0x27A8, symBinAddr: 0x18ACC, symSize: 0x3C }
  - { offset: 0x4475B, size: 0x8, addend: 0x0, symName: __RNvNtNtNtNtCs7dfkhshTrE4_4core9core_arch7aarch644neon9generated7vld1_u8, symObjAddr: 0x2734, symBinAddr: 0x18A98, symSize: 0x34 }
  - { offset: 0x454AB, size: 0x8, addend: 0x0, symName: __RINvMs6_NtCsfTBDVhxuWss_9hashbrown3rawINtB6_8RawTableTRNtNtNtCs7dfkhshTrE4_4core3ffi5c_str4CStrNtNtNtCs7Qj1RmEtpUo_4pyo37pyclass18create_type_object16GetSetDefBuilderEE14reserve_rehashNCINvNtB8_3map11make_hasherBQ_B1v_NtNtNtCskXqYSXpV4rx_3std4hash6random11RandomStateE0EB1B_, symObjAddr: 0x0, symBinAddr: 0x6A4A0, symSize: 0x764 }
  - { offset: 0x460A4, size: 0x8, addend: 0x0, symName: __RINvMs6_NtCsfTBDVhxuWss_9hashbrown3rawINtB6_8RawTableTRNtNtNtCs7dfkhshTrE4_4core3ffi5c_str4CStrNtNtNtCs7Qj1RmEtpUo_4pyo37pyclass18create_type_object16GetSetDefBuilderEE4findNCNvMNtB8_11rustc_entryINtNtB8_3map7HashMapBQ_B1v_NtNtNtCskXqYSXpV4rx_3std4hash6random11RandomStateE11rustc_entry0EB1B_, symObjAddr: 0x764, symBinAddr: 0x16AC8, symSize: 0x2F8 }
  - { offset: 0x46598, size: 0x8, addend: 0x0, symName: __RINvMs6_NtCsfTBDVhxuWss_9hashbrown3rawINtB6_8RawTableTRNtNtNtCs7dfkhshTrE4_4core3ffi5c_str4CStrNtNtNtCs7Qj1RmEtpUo_4pyo37pyclass18create_type_object16GetSetDefBuilderEE7reserveNCINvNtB8_3map11make_hasherBQ_B1v_NtNtNtCskXqYSXpV4rx_3std4hash6random11RandomStateE0EB1B_, symObjAddr: 0xA5C, symBinAddr: 0x16DC0, symSize: 0xB0 }
  - { offset: 0x466FB, size: 0x8, addend: 0x0, symName: __RINvMsa_NtCsfTBDVhxuWss_9hashbrown3rawNtB6_13RawTableInner13drop_elementsTRNtNtNtCs7dfkhshTrE4_4core3ffi5c_str4CStrNtNtNtCs7Qj1RmEtpUo_4pyo37pyclass18create_type_object16GetSetDefBuilderEEB1V_, symObjAddr: 0xB0C, symBinAddr: 0x16E70, symSize: 0x30 }
  - { offset: 0x46970, size: 0x8, addend: 0x0, symName: __RINvMsa_NtCsfTBDVhxuWss_9hashbrown3rawNtB6_13RawTableInner16drop_inner_tableTRNtNtNtCs7dfkhshTrE4_4core3ffi5c_str4CStrNtNtNtCs7Qj1RmEtpUo_4pyo37pyclass18create_type_object16GetSetDefBuilderENtNtCs2iVXuAemrgm_5alloc5alloc6GlobalEB1Y_, symObjAddr: 0xB3C, symBinAddr: 0x16EA0, symSize: 0xB0 }
  - { offset: 0x46B94, size: 0x8, addend: 0x0, symName: __RINvMsa_NtCsfTBDVhxuWss_9hashbrown3rawNtB6_13RawTableInner17new_uninitializedNtNtCs2iVXuAemrgm_5alloc5alloc6GlobalECs7Qj1RmEtpUo_4pyo3, symObjAddr: 0xBEC, symBinAddr: 0x16F50, symSize: 0x2AC }
  - { offset: 0x46EC1, size: 0x8, addend: 0x0, symName: __RINvMsa_NtCsfTBDVhxuWss_9hashbrown3rawNtB6_13RawTableInner22fallible_with_capacityNtNtCs2iVXuAemrgm_5alloc5alloc6GlobalECs7Qj1RmEtpUo_4pyo3, symObjAddr: 0xE98, symBinAddr: 0x171FC, symSize: 0x220 }
  - { offset: 0x47316, size: 0x8, addend: 0x0, symName: __RINvMsi_NtCsfTBDVhxuWss_9hashbrown3rawINtB6_12RawIterRangeTRNtNtNtCs7dfkhshTrE4_4core3ffi5c_str4CStrNtNtNtCs7Qj1RmEtpUo_4pyo37pyclass18create_type_object16GetSetDefBuilderEE9next_implKb0_EB1G_, symObjAddr: 0x10B8, symBinAddr: 0x1741C, symSize: 0x1C4 }
  - { offset: 0x47A95, size: 0x8, addend: 0x0, symName: __RNvMs1_NtCsfTBDVhxuWss_9hashbrown3rawNtB5_11TableLayout20calculate_layout_forCs7Qj1RmEtpUo_4pyo3, symObjAddr: 0x16A8, symBinAddr: 0x17A0C, symSize: 0x220 }
  - { offset: 0x47F58, size: 0x8, addend: 0x0, symName: __RNvMs6_NtCsfTBDVhxuWss_9hashbrown3rawINtB5_8RawTableTRNtNtNtCs7dfkhshTrE4_4core3ffi5c_str4CStrNtNtNtCs7Qj1RmEtpUo_4pyo37pyclass18create_type_object16GetSetDefBuilderEE14insert_no_growB1A_, symObjAddr: 0x18C8, symBinAddr: 0x17C2C, symSize: 0x184 }
  - { offset: 0x48492, size: 0x8, addend: 0x0, symName: __RNvMsa_NtCsfTBDVhxuWss_9hashbrown3rawNtB5_13RawTableInner15rehash_in_placeCs7Qj1RmEtpUo_4pyo3, symObjAddr: 0x1A4C, symBinAddr: 0x17DB0, symSize: 0x414 }
  - { offset: 0x48D89, size: 0x8, addend: 0x0, symName: __RNvMsa_NtCsfTBDVhxuWss_9hashbrown3rawNtB5_13RawTableInner16fix_insert_indexCs7Qj1RmEtpUo_4pyo3, symObjAddr: 0x1E60, symBinAddr: 0x181C4, symSize: 0x10C }
  - { offset: 0x49015, size: 0x8, addend: 0x0, symName: __RNvMsa_NtCsfTBDVhxuWss_9hashbrown3rawNtB5_13RawTableInner17find_insert_indexCs7Qj1RmEtpUo_4pyo3, symObjAddr: 0x1F6C, symBinAddr: 0x182D0, symSize: 0x10C }
  - { offset: 0x49333, size: 0x8, addend: 0x0, symName: __RNvMsa_NtCsfTBDVhxuWss_9hashbrown3rawNtB5_13RawTableInner23prepare_rehash_in_placeCs7Qj1RmEtpUo_4pyo3, symObjAddr: 0x2078, symBinAddr: 0x183DC, symSize: 0x22C }
  - { offset: 0x4996E, size: 0x8, addend: 0x0, symName: __RNvMsa_NtCsfTBDVhxuWss_9hashbrown3rawNtB5_13RawTableInner26find_insert_index_in_groupCs7Qj1RmEtpUo_4pyo3, symObjAddr: 0x22A4, symBinAddr: 0x18608, symSize: 0x120 }
  - { offset: 0x49AB2, size: 0x8, addend: 0x0, symName: __RNvMsi_NtCsfTBDVhxuWss_9hashbrown3rawINtB5_12RawIterRangeTRNtNtNtCs7dfkhshTrE4_4core3ffi5c_str4CStrNtNtNtCs7Qj1RmEtpUo_4pyo37pyclass18create_type_object16GetSetDefBuilderEE3newB1F_, symObjAddr: 0x23C4, symBinAddr: 0x18728, symSize: 0xA8 }
  - { offset: 0x4A7F6, size: 0x8, addend: 0x0, symName: __RINvXNtCs7Qj1RmEtpUo_4pyo313py_result_extINtNtCs7dfkhshTrE4_4core6result6ResultINtNtB5_8instance5BoundNtNtNtB5_5types3any5PyAnyENtNtB5_3err5PyErrENtB3_11PyResultExt23downcast_into_uncheckedNtNtB1G_6string8PyStringEB5_, symObjAddr: 0x2750, symBinAddr: 0x1928C, symSize: 0x34 }
  - { offset: 0x4A82C, size: 0x8, addend: 0x0, symName: __RINvXNtCs7Qj1RmEtpUo_4pyo313py_result_extINtNtCs7dfkhshTrE4_4core6result6ResultINtNtB5_8instance5BoundNtNtNtB5_5types3any5PyAnyENtNtB5_3err5PyErrENtB3_11PyResultExt23downcast_into_uncheckedNtNtB1G_8function11PyCFunctionEB5_, symObjAddr: 0x2784, symBinAddr: 0x192C0, symSize: 0x34 }
  - { offset: 0x4D0AB, size: 0x8, addend: 0x0, symName: __RNvXsp_NtCs7dfkhshTrE4_4core6resultINtB5_6ResultINtNtCs7Qj1RmEtpUo_4pyo38instance2PyNtNtNtBP_5types10typeobject6PyTypeENtNtB7_7convert10InfallibleENtNtNtB7_3ops9try_trait3Try6branchBP_, symObjAddr: 0x3350, symBinAddr: 0x197CC, symSize: 0x28 }
  - { offset: 0x4D109, size: 0x8, addend: 0x0, symName: __RNvXsp_NtCs7dfkhshTrE4_4core6resultINtB5_6ResultINtNtCs7Qj1RmEtpUo_4pyo38instance2PyNtNtNtBP_5types10typeobject6PyTypeENtNtBP_3err5PyErrENtNtNtB7_3ops9try_trait3Try6branchBP_, symObjAddr: 0x3378, symBinAddr: 0x197F4, symSize: 0x80 }
  - { offset: 0x4D187, size: 0x8, addend: 0x0, symName: __RNvXsp_NtCs7dfkhshTrE4_4core6resultINtB5_6ResultINtNtCs7Qj1RmEtpUo_4pyo38instance2PyNtNtNtBP_5types6module8PyModuleENtNtBP_3err5PyErrENtNtNtB7_3ops9try_trait3Try6branchBP_, symObjAddr: 0x3478, symBinAddr: 0x19874, symSize: 0x80 }
  - { offset: 0x4D205, size: 0x8, addend: 0x0, symName: __RNvXsp_NtCs7dfkhshTrE4_4core6resultINtB5_6ResultINtNtCs7Qj1RmEtpUo_4pyo38instance2PyNtNtNtBP_5types6string8PyStringENtNtB7_7convert10InfallibleENtNtNtB7_3ops9try_trait3Try6branchBP_, symObjAddr: 0x34F8, symBinAddr: 0x198F4, symSize: 0x28 }
  - { offset: 0x4D263, size: 0x8, addend: 0x0, symName: __RNvXsp_NtCs7dfkhshTrE4_4core6resultINtB5_6ResultINtNtCs7Qj1RmEtpUo_4pyo38instance5BoundNtNtNtBP_5types3any5PyAnyENtNtBP_3err5PyErrENtNtNtB7_3ops9try_trait3Try6branchBP_, symObjAddr: 0x3630, symBinAddr: 0x1991C, symSize: 0x80 }
  - { offset: 0x4D2E1, size: 0x8, addend: 0x0, symName: __RNvXsp_NtCs7dfkhshTrE4_4core6resultINtB5_6ResultINtNtCs7Qj1RmEtpUo_4pyo38instance5BoundNtNtNtBP_5types4list6PyListENtNtBP_3err5PyErrENtNtNtB7_3ops9try_trait3Try6branchBP_, symObjAddr: 0x36B0, symBinAddr: 0x1999C, symSize: 0x80 }
  - { offset: 0x4D35F, size: 0x8, addend: 0x0, symName: __RNvXsp_NtCs7dfkhshTrE4_4core6resultINtB5_6ResultINtNtCs7Qj1RmEtpUo_4pyo38instance5BoundNtNtNtBP_5types6string8PyStringENtNtBP_3err17DowncastIntoErrorENtNtNtB7_3ops9try_trait3Try6branchBP_, symObjAddr: 0x37F4, symBinAddr: 0x19A1C, symSize: 0x88 }
  - { offset: 0x4D3DD, size: 0x8, addend: 0x0, symName: __RNvXsp_NtCs7dfkhshTrE4_4core6resultINtB5_6ResultINtNtCs7Qj1RmEtpUo_4pyo38instance5BoundNtNtNtBP_5types6string8PyStringENtNtBP_3err5PyErrENtNtNtB7_3ops9try_trait3Try6branchBP_, symObjAddr: 0x387C, symBinAddr: 0x19AA4, symSize: 0x80 }
  - { offset: 0x4D45B, size: 0x8, addend: 0x0, symName: __RNvXsp_NtCs7dfkhshTrE4_4core6resultINtB5_6ResultINtNtCs7Qj1RmEtpUo_4pyo38instance5BoundNtNtNtBP_5types8function11PyCFunctionENtNtBP_3err5PyErrENtNtNtB7_3ops9try_trait3Try6branchBP_, symObjAddr: 0x38FC, symBinAddr: 0x19B24, symSize: 0x80 }
  - { offset: 0x4D4D9, size: 0x8, addend: 0x0, symName: __RNvXsp_NtCs7dfkhshTrE4_4core6resultINtB5_6ResultNtNtNtCs2iVXuAemrgm_5alloc3ffi5c_str7CStringNtBM_8NulErrorENtNtNtB7_3ops9try_trait3Try6branchCs7Qj1RmEtpUo_4pyo3, symObjAddr: 0x3C20, symBinAddr: 0x19BA4, symSize: 0x94 }
  - { offset: 0x4D557, size: 0x8, addend: 0x0, symName: __RNvXsp_NtCs7dfkhshTrE4_4core6resultINtB5_6ResultNtNtNtCs2iVXuAemrgm_5alloc3ffi5c_str7CStringNtNtCs7Qj1RmEtpUo_4pyo33err5PyErrENtNtNtB7_3ops9try_trait3Try6branchB1w_, symObjAddr: 0x3CB4, symBinAddr: 0x19C38, symSize: 0x8C }
  - { offset: 0x4D5D5, size: 0x8, addend: 0x0, symName: __RNvXsp_NtCs7dfkhshTrE4_4core6resultINtB5_6ResultNtNtNtCs7Qj1RmEtpUo_4pyo37pyclass18create_type_object17PyClassTypeObjectNtNtBQ_3err5PyErrENtNtNtB7_3ops9try_trait3Try6branchBQ_, symObjAddr: 0x3D40, symBinAddr: 0x19CC4, symSize: 0xA0 }
  - { offset: 0x4D652, size: 0x8, addend: 0x0, symName: __RNvXsp_NtCs7dfkhshTrE4_4core6resultINtB5_6ResultRNtNtNtCs7Qj1RmEtpUo_4pyo37pyclass18create_type_object17PyClassTypeObjectNtNtBR_3err5PyErrENtNtNtB7_3ops9try_trait3Try6branchBR_, symObjAddr: 0x3EFC, symBinAddr: 0x19D64, symSize: 0x80 }
  - { offset: 0x4D6D0, size: 0x8, addend: 0x0, symName: __RNvXsp_NtCs7dfkhshTrE4_4core6resultINtB5_6ResultdNtNtCs7Qj1RmEtpUo_4pyo33err5PyErrENtNtNtB7_3ops9try_trait3Try6branchBP_, symObjAddr: 0x4188, symBinAddr: 0x19DE4, symSize: 0x80 }
  - { offset: 0x4D74E, size: 0x8, addend: 0x0, symName: __RNvXsp_NtCs7dfkhshTrE4_4core6resultINtB5_6ResultjNtNtCs7Qj1RmEtpUo_4pyo33err5PyErrENtNtNtB7_3ops9try_trait3Try6branchBP_, symObjAddr: 0x4370, symBinAddr: 0x19E64, symSize: 0x80 }
  - { offset: 0x4D7CC, size: 0x8, addend: 0x0, symName: __RNvXsp_NtCs7dfkhshTrE4_4core6resultINtB5_6ResultuNtNtCs7Qj1RmEtpUo_4pyo33err5PyErrENtNtNtB7_3ops9try_trait3Try6branchBP_, symObjAddr: 0x4748, symBinAddr: 0x19EE4, symSize: 0x70 }
  - { offset: 0x4D84A, size: 0x8, addend: 0x0, symName: __RNvXsp_NtCs7dfkhshTrE4_4core6resultINtB5_6ResultuNtNvMs4_NtCseWmkDRwMMr9_9once_cell4syncINtBT_8OnceCellpE11get_or_init4VoidENtNtNtB7_3ops9try_trait3Try6branchCs7Qj1RmEtpUo_4pyo3, symObjAddr: 0x47B8, symBinAddr: 0x19F54, symSize: 0x14 }
  - { offset: 0x4D886, size: 0x8, addend: 0x0, symName: __RNvXsp_NtCs7dfkhshTrE4_4core6resultINtB5_6ResultyNtNtCs7Qj1RmEtpUo_4pyo33err5PyErrENtNtNtB7_3ops9try_trait3Try6branchBP_, symObjAddr: 0x484C, symBinAddr: 0x19F68, symSize: 0x80 }
  - { offset: 0x4D90A, size: 0x8, addend: 0x0, symName: __RNvXsq_NtCs7dfkhshTrE4_4core6resultINtB5_6ResultINtNtCs2iVXuAemrgm_5alloc6borrow3CowNtNtNtB7_3ffi5c_str4CStrENtNtCs7Qj1RmEtpUo_4pyo33err5PyErrEINtNtNtB7_3ops9try_trait12FromResidualIBy_NtNtB7_7convert10InfallibleB1J_EE13from_residualB1N_, symObjAddr: 0x49A4, symBinAddr: 0x19FE8, symSize: 0x48 }
  - { offset: 0x4D98F, size: 0x8, addend: 0x0, symName: __RNvXsq_NtCs7dfkhshTrE4_4core6resultINtB5_6ResultINtNtCs7Qj1RmEtpUo_4pyo38instance2PyNtNtNtBP_5types6module8PyModuleENtNtBP_3err5PyErrEINtNtNtB7_3ops9try_trait12FromResidualIBy_NtNtB7_7convert10InfallibleB1Q_EE13from_residualBP_, symObjAddr: 0x4B84, symBinAddr: 0x1A030, symSize: 0x48 }
  - { offset: 0x4DA14, size: 0x8, addend: 0x0, symName: __RNvXsq_NtCs7dfkhshTrE4_4core6resultINtB5_6ResultINtNtCs7Qj1RmEtpUo_4pyo38instance5BoundNtNtNtBP_5types4list6PyListENtNtBP_3err5PyErrEINtNtNtB7_3ops9try_trait12FromResidualIBy_NtNtB7_7convert10InfallibleB1P_EE13from_residualBP_, symObjAddr: 0x4CB4, symBinAddr: 0x1A078, symSize: 0x48 }
  - { offset: 0x4DA99, size: 0x8, addend: 0x0, symName: __RNvXsq_NtCs7dfkhshTrE4_4core6resultINtB5_6ResultINtNtCs7Qj1RmEtpUo_4pyo38instance5BoundNtNtNtBP_5types6string8PyStringENtNtBP_3err5PyErrEINtNtNtB7_3ops9try_trait12FromResidualIBy_NtNtB7_7convert10InfallibleB1T_EE13from_residualBP_, symObjAddr: 0x4D9C, symBinAddr: 0x1A0C0, symSize: 0x48 }
  - { offset: 0x4DB1E, size: 0x8, addend: 0x0, symName: __RNvXsq_NtCs7dfkhshTrE4_4core6resultINtB5_6ResultINtNtCs7Qj1RmEtpUo_4pyo38instance5BoundNtNtNtBP_5types8function11PyCFunctionENtNtBP_3err5PyErrEINtNtNtB7_3ops9try_trait12FromResidualIBy_NtNtB7_7convert10InfallibleB1Z_EE13from_residualBP_, symObjAddr: 0x4DE4, symBinAddr: 0x1A108, symSize: 0x48 }
  - { offset: 0x4DBA3, size: 0x8, addend: 0x0, symName: __RNvXsq_NtCs7dfkhshTrE4_4core6resultINtB5_6ResultNtNtNtCs2iVXuAemrgm_5alloc3ffi5c_str7CStringNtNtCs7Qj1RmEtpUo_4pyo33err5PyErrEINtNtNtB7_3ops9try_trait12FromResidualIBy_NtNtB7_7convert10InfallibleNtBM_8NulErrorEE13from_residualB1w_, symObjAddr: 0x54C0, symBinAddr: 0x1A150, symSize: 0x58 }
  - { offset: 0x4DC0B, size: 0x8, addend: 0x0, symName: __RNvXsq_NtCs7dfkhshTrE4_4core6resultINtB5_6ResultNtNtNtCs7Qj1RmEtpUo_4pyo37pyclass18create_type_object17PyClassTypeObjectNtNtBQ_3err5PyErrEINtNtNtB7_3ops9try_trait12FromResidualIBy_NtNtB7_7convert10InfallibleB1U_EE13from_residualBQ_, symObjAddr: 0x5560, symBinAddr: 0x1A1A8, symSize: 0x48 }
  - { offset: 0x4DC90, size: 0x8, addend: 0x0, symName: __RNvXsq_NtCs7dfkhshTrE4_4core6resultINtB5_6ResultRINtNtCs7Qj1RmEtpUo_4pyo38instance2PyNtNtNtBQ_5types6module8PyModuleENtNtBQ_3err5PyErrEINtNtNtB7_3ops9try_trait12FromResidualIBy_NtNtB7_7convert10InfallibleB1R_EE13from_residualBQ_, symObjAddr: 0x56E0, symBinAddr: 0x1A1F0, symSize: 0x48 }
  - { offset: 0x4DD15, size: 0x8, addend: 0x0, symName: __RNvXsq_NtCs7dfkhshTrE4_4core6resultINtB5_6ResultRINtNtCs7Qj1RmEtpUo_4pyo38instance5BoundNtNtNtBQ_5types10typeobject6PyTypeENtNtBQ_3err5PyErrEINtNtNtB7_3ops9try_trait12FromResidualIBy_NtNtB7_7convert10InfallibleB1X_EE13from_residualBQ_, symObjAddr: 0x5730, symBinAddr: 0x1A238, symSize: 0x48 }
  - { offset: 0x4DD9A, size: 0x8, addend: 0x0, symName: __RNvXsq_NtCs7dfkhshTrE4_4core6resultINtB5_6ResultRNtNtNtCs7Qj1RmEtpUo_4pyo37pyclass18create_type_object17PyClassTypeObjectNtNtBR_3err5PyErrEINtNtNtB7_3ops9try_trait12FromResidualIBy_NtNtB7_7convert10InfallibleB1V_EE13from_residualBR_, symObjAddr: 0x5780, symBinAddr: 0x1A280, symSize: 0x48 }
  - { offset: 0x4DE1F, size: 0x8, addend: 0x0, symName: __RNvXsq_NtCs7dfkhshTrE4_4core6resultINtB5_6ResultRuNtNtCs7Qj1RmEtpUo_4pyo33err5PyErrEINtNtNtB7_3ops9try_trait12FromResidualIBy_NtNtB7_7convert10InfallibleBM_EE13from_residualBQ_, symObjAddr: 0x5878, symBinAddr: 0x1A2C8, symSize: 0x48 }
  - { offset: 0x4DEA4, size: 0x8, addend: 0x0, symName: __RNvXsq_NtCs7dfkhshTrE4_4core6resultINtB5_6ResultjNtNtCs7Qj1RmEtpUo_4pyo33err5PyErrEINtNtNtB7_3ops9try_trait12FromResidualIBy_NtNtB7_7convert10InfallibleBL_EE13from_residualBP_, symObjAddr: 0x5B20, symBinAddr: 0x1A310, symSize: 0x48 }
  - { offset: 0x4DF29, size: 0x8, addend: 0x0, symName: __RNvXsq_NtCs7dfkhshTrE4_4core6resultINtB5_6ResultlNtNtCs7Qj1RmEtpUo_4pyo33err5PyErrEINtNtNtB7_3ops9try_trait12FromResidualIBy_NtNtB7_7convert10InfallibleBL_EE13from_residualBP_, symObjAddr: 0x5B68, symBinAddr: 0x1A358, symSize: 0x48 }
  - { offset: 0x4DFAE, size: 0x8, addend: 0x0, symName: __RNvXsq_NtCs7dfkhshTrE4_4core6resultINtB5_6ResultuNtNtCs7Qj1RmEtpUo_4pyo33err5PyErrEINtNtNtB7_3ops9try_trait12FromResidualIBy_NtNtB7_7convert10InfallibleBL_EE13from_residualBP_, symObjAddr: 0x5D2C, symBinAddr: 0x1A3A0, symSize: 0x48 }
  - { offset: 0x4E033, size: 0x8, addend: 0x0, symName: __RNvXsq_NtCs7dfkhshTrE4_4core6resultINtB5_6ResultuNtNtCs7Qj1RmEtpUo_4pyo33err5PyErrEINtNtNtB7_3ops9try_trait12FromResidualIBy_NtNtB7_7convert10InfallibleNtBN_17DowncastIntoErrorEE13from_residualBP_, symObjAddr: 0x5D74, symBinAddr: 0x1A3E8, symSize: 0x58 }
  - { offset: 0x4E09B, size: 0x8, addend: 0x0, symName: __RNvXsq_NtCs7dfkhshTrE4_4core6resultINtB5_6ResultyNtNtCs7Qj1RmEtpUo_4pyo33err5PyErrEINtNtNtB7_3ops9try_trait12FromResidualIBy_NtNtB7_7convert10InfallibleBL_EE13from_residualBP_, symObjAddr: 0x5E6C, symBinAddr: 0x1A440, symSize: 0x48 }
  - { offset: 0x4F8BA, size: 0x8, addend: 0x0, symName: __RINvMNtCs7dfkhshTrE4_4core6resultINtB3_6ResultINtNtCs7Qj1RmEtpUo_4pyo38instance2PyNtNtNtBN_5types3any5PyAnyENtNtBN_3err5PyErrE3mapINtBL_5BoundB1i_ENCNvMs_BL_B24_21from_owned_ptr_or_err0EBN_, symObjAddr: 0xAC, symBinAddr: 0x18B08, symSize: 0x8C }
  - { offset: 0x4F965, size: 0x8, addend: 0x0, symName: __RINvMNtCs7dfkhshTrE4_4core6resultINtB3_6ResultINtNtCs7Qj1RmEtpUo_4pyo38instance5BoundNtNtNtBN_5types3any5PyAnyENtNtBN_3err5PyErrE3mapIBJ_NtNtB1p_6string8PyStringENCINvXNtBN_13py_result_extBv_NtB2G_11PyResultExt23downcast_into_uncheckedB2b_E0EBN_, symObjAddr: 0x55C, symBinAddr: 0x18B94, symSize: 0x80 }
  - { offset: 0x4F9F8, size: 0x8, addend: 0x0, symName: __RINvMNtCs7dfkhshTrE4_4core6resultINtB3_6ResultINtNtCs7Qj1RmEtpUo_4pyo38instance5BoundNtNtNtBN_5types3any5PyAnyENtNtBN_3err5PyErrE3mapIBJ_NtNtB1p_8function11PyCFunctionENCINvXNtBN_13py_result_extBv_NtB2M_11PyResultExt23downcast_into_uncheckedB2b_E0EBN_, symObjAddr: 0x65C, symBinAddr: 0x18C14, symSize: 0x80 }
  - { offset: 0x4FAC2, size: 0x8, addend: 0x0, symName: __RINvMNtCs7dfkhshTrE4_4core6resultINtB3_6ResultINtNtCs7Qj1RmEtpUo_4pyo38instance5BoundNtNtNtBN_5types4list6PyListENtNtBN_3err17DowncastIntoErrorE7map_errNtB1P_5PyErrNvYB2q_INtNtB5_7convert4FromB1N_E4fromEBN_, symObjAddr: 0xDB8, symBinAddr: 0x18C94, symSize: 0xA4 }
  - { offset: 0x4FB62, size: 0x8, addend: 0x0, symName: __RINvMNtCs7dfkhshTrE4_4core6resultINtB3_6ResultINtNtCs7Qj1RmEtpUo_4pyo38instance5BoundNtNtNtBN_5types6string8PyStringENtNtBN_3err5PyErrE11map_or_elseNtNtCs2iVXuAemrgm_5alloc6string6StringNCNCNvNtNtBN_7pyclass18create_type_object22no_constructor_defined00NCB30_s_0EBN_, symObjAddr: 0x1048, symBinAddr: 0x18D38, symSize: 0xCC }
  - { offset: 0x4FC0D, size: 0x8, addend: 0x0, symName: __RINvMNtCs7dfkhshTrE4_4core6resultINtB3_6ResultINtNtCs7Qj1RmEtpUo_4pyo38instance5BoundNtNtNtBN_5types6string8PyStringENtNtBN_3err5PyErrE3mapNtNtCs2iVXuAemrgm_5alloc6string6StringNCNvMs2_B1T_B1R_5__take0EBN_, symObjAddr: 0x1114, symBinAddr: 0x18E04, symSize: 0x90 }
  - { offset: 0x4FD0D, size: 0x8, addend: 0x0, symName: __RINvMNtCs7dfkhshTrE4_4core6resultINtB3_6ResultNtNtCs2iVXuAemrgm_5alloc6string6StringNtNtCs7Qj1RmEtpUo_4pyo33err5PyErrE14unwrap_or_elseNCNvMs2_B1m_B1k_5__takes_0EB1o_, symObjAddr: 0x1AA4, symBinAddr: 0x18E94, symSize: 0x7C }
  - { offset: 0x4FD97, size: 0x8, addend: 0x0, symName: __RINvMNtCs7dfkhshTrE4_4core6resultINtB3_6ResultNtNtNtCs2iVXuAemrgm_5alloc3ffi5c_str7CStringNtBK_8NulErrorE7map_errNtNtCs7Qj1RmEtpUo_4pyo33err5PyErrNCNvNtNtB1R_5impl_7pyclass17build_pyclass_doc0EB1R_, symObjAddr: 0x1BBC, symBinAddr: 0x18F10, symSize: 0xB0 }
  - { offset: 0x4FE44, size: 0x8, addend: 0x0, symName: __RINvMNtCs7dfkhshTrE4_4core6resultINtB3_6ResultRINtNtCs7Qj1RmEtpUo_4pyo38instance2PyNtNtNtBO_5types6module8PyModuleENtNtBO_3err5PyErrE3mapBJ_NCNvMs_NtNtBO_5impl_8pymoduleNtB2l_9ModuleDef11make_modules_0EBO_, symObjAddr: 0x1CF8, symBinAddr: 0x18FC0, symSize: 0x8C }
  - { offset: 0x4FEF1, size: 0x8, addend: 0x0, symName: __RINvMNtCs7dfkhshTrE4_4core6resultINtB3_6ResultRINtNtCs7Qj1RmEtpUo_4pyo38instance5BoundNtNtNtBO_5types10typeobject6PyTypeENtNtBO_3err5PyErrE7map_errB1V_NCNvMs0_NtNtNtBO_5impl_7pyclass16lazy_type_objectNtB2x_19LazyTypeObjectInner15get_or_try_inits_0EBO_, symObjAddr: 0x1E00, symBinAddr: 0x1904C, symSize: 0xB0 }
  - { offset: 0x4FF9C, size: 0x8, addend: 0x0, symName: __RINvMNtCs7dfkhshTrE4_4core6resultINtB3_6ResultReNtNtCs7Qj1RmEtpUo_4pyo33err5PyErrE3mapINtNtCs2iVXuAemrgm_5alloc6borrow3CoweENcNtB1m_8Borrowed0EBO_, symObjAddr: 0x1F38, symBinAddr: 0x190FC, symSize: 0x98 }
  - { offset: 0x5002F, size: 0x8, addend: 0x0, symName: __RINvMNtCs7dfkhshTrE4_4core6resultINtB3_6ResultjNtNtNtB5_3num5error15TryFromIntErrorE7map_errNtNtCs7Qj1RmEtpUo_4pyo33err5PyErrNCNvXso_NtNtNtB1w_11conversions3std3numjNtNtB1w_10conversion12FromPyObject13extract_bound0EB1w_, symObjAddr: 0x2204, symBinAddr: 0x19194, symSize: 0x70 }
  - { offset: 0x500D9, size: 0x8, addend: 0x0, symName: __RINvMNtCs7dfkhshTrE4_4core6resultINtB3_6ResultuNtNtCs7Qj1RmEtpUo_4pyo33err5PyErrE7map_errBJ_NvYBJ_INtNtB5_7convert4FromBJ_E4fromEBN_, symObjAddr: 0x2454, symBinAddr: 0x19204, symSize: 0x88 }
  - { offset: 0x5016C, size: 0x8, addend: 0x0, symName: __RNvMNtCs7dfkhshTrE4_4core6resultINtB2_6ResultINtNtCs2iVXuAemrgm_5alloc6borrow3CoweENtNtCs7Qj1RmEtpUo_4pyo33err5PyErrE9unwrap_orB1n_, symObjAddr: 0x2900, symBinAddr: 0x192F4, symSize: 0xC4 }
  - { offset: 0x501B2, size: 0x8, addend: 0x0, symName: __RNvMNtCs7dfkhshTrE4_4core6resultINtB2_6ResultINtNtCs7Qj1RmEtpUo_4pyo38instance2PyNtNtNtBM_5types10typeobject6PyTypeENtNtBM_3err5PyErrE6expectBM_, symObjAddr: 0x29C4, symBinAddr: 0x193B8, symSize: 0xA8 }
  - { offset: 0x50215, size: 0x8, addend: 0x0, symName: __RNvMNtCs7dfkhshTrE4_4core6resultINtB2_6ResultINtNtCs7Qj1RmEtpUo_4pyo38instance8BorrowedNtNtNtBM_5types3any5PyAnyENtNtBM_3err5PyErrE6expectBM_, symObjAddr: 0x2C64, symBinAddr: 0x19460, symSize: 0xA8 }
  - { offset: 0x50278, size: 0x8, addend: 0x0, symName: __RNvMNtCs7dfkhshTrE4_4core6resultINtB2_6ResultNtNtNtCs2iVXuAemrgm_5alloc3ffi5c_str7CStringNtBJ_8NulErrorE6expectCs7Qj1RmEtpUo_4pyo3, symObjAddr: 0x2D0C, symBinAddr: 0x19508, symSize: 0xBC }
  - { offset: 0x502F5, size: 0x8, addend: 0x0, symName: __RNvMNtCs7dfkhshTrE4_4core6resultINtB2_6ResultbNtNtNtCskXqYSXpV4rx_3std6thread5local11AccessErrorE9unwrap_orCs7Qj1RmEtpUo_4pyo3, symObjAddr: 0x2F08, symBinAddr: 0x195C4, symSize: 0x70 }
  - { offset: 0x50339, size: 0x8, addend: 0x0, symName: __RNvMNtCs7dfkhshTrE4_4core6resultINtB2_6ResultiNtNtNtB4_3num5error15TryFromIntErrorE6expectCs7Qj1RmEtpUo_4pyo3, symObjAddr: 0x2FFC, symBinAddr: 0x19634, symSize: 0x84 }
  - { offset: 0x5039B, size: 0x8, addend: 0x0, symName: __RNvMNtCs7dfkhshTrE4_4core6resultINtB2_6ResultuNtNtB4_3fmt5ErrorE6expectCs7Qj1RmEtpUo_4pyo3, symObjAddr: 0x3080, symBinAddr: 0x196B8, symSize: 0x78 }
  - { offset: 0x503FD, size: 0x8, addend: 0x0, symName: __RNvMNtCs7dfkhshTrE4_4core6resultINtB2_6ResultuNtNtCs7Qj1RmEtpUo_4pyo33err5PyErrE6expectBM_, symObjAddr: 0x30F8, symBinAddr: 0x19730, symSize: 0x9C }
  - { offset: 0x5054F, size: 0x8, addend: 0x0, symName: __RINvMNtNtCs7dfkhshTrE4_4core3fmt2rtNtB3_8Argument11new_displayINtNtCs2iVXuAemrgm_5alloc6borrow3CoweEECs7Qj1RmEtpUo_4pyo3, symObjAddr: 0x0, symBinAddr: 0x1A488, symSize: 0x2C }
  - { offset: 0x507EF, size: 0x8, addend: 0x0, symName: __RINvNvNtCskXqYSXpV4rx_3std9panicking12catch_unwind7do_callNCINvNtNtCs7Qj1RmEtpUo_4pyo35impl_10trampoline10trampolineNCNvNtB11_9pymethods11__call_clear0lE0INtNtCs7dfkhshTrE4_4core6result6ResultlNtNtB13_3err5PyErrEEB13_, symObjAddr: 0x1494, symBinAddr: 0x1A66C, symSize: 0x80 }
  - { offset: 0x508EA, size: 0x8, addend: 0x0, symName: __RINvNvNtCskXqYSXpV4rx_3std9panicking12catch_unwind7do_callNCINvNtNtCs7Qj1RmEtpUo_4pyo35impl_10trampoline10trampolineNCNvNtNtB13_7pyclass18create_type_object22no_constructor_defined0ONtNtCsgh2hkQkDkI2_8pyo3_ffi6object8PyObjectE0INtNtCs7dfkhshTrE4_4core6result6ResultB2T_NtNtB13_3err5PyErrEEB13_, symObjAddr: 0x1514, symBinAddr: 0x1A6EC, symSize: 0x70 }
  - { offset: 0x509E4, size: 0x8, addend: 0x0, symName: __RINvNvNtCskXqYSXpV4rx_3std9panicking12catch_unwind7do_callNCINvNtNtCs7Qj1RmEtpUo_4pyo35impl_10trampoline10trampolineNCNvNvMs0_NtNtB13_7pyclass18create_type_objectNtB20_13GetSetDefType21create_py_get_set_def13getset_getter0ONtNtCsgh2hkQkDkI2_8pyo3_ffi6object8PyObjectE0INtNtCs7dfkhshTrE4_4core6result6ResultB3y_NtNtB13_3err5PyErrEEB13_, symObjAddr: 0x1584, symBinAddr: 0x1A75C, symSize: 0x7C }
  - { offset: 0x50ADE, size: 0x8, addend: 0x0, symName: __RINvNvNtCskXqYSXpV4rx_3std9panicking12catch_unwind7do_callNCINvNtNtCs7Qj1RmEtpUo_4pyo35impl_10trampoline10trampolineNCNvNvMs0_NtNtB13_7pyclass18create_type_objectNtB20_13GetSetDefType21create_py_get_set_def13getset_setter0lE0INtNtCs7dfkhshTrE4_4core6result6ResultlNtNtB13_3err5PyErrEEB13_, symObjAddr: 0x1600, symBinAddr: 0x1A7D8, symSize: 0x80 }
  - { offset: 0x50BD9, size: 0x8, addend: 0x0, symName: __RINvNvNtCskXqYSXpV4rx_3std9panicking12catch_unwind7do_callNCINvNtNtCs7Qj1RmEtpUo_4pyo35impl_10trampoline10trampolineNCNvNvMs0_NtNtB13_7pyclass18create_type_objectNtB20_13GetSetDefType21create_py_get_set_def6getter0ONtNtCsgh2hkQkDkI2_8pyo3_ffi6object8PyObjectE0INtNtCs7dfkhshTrE4_4core6result6ResultB3q_NtNtB13_3err5PyErrEEB13_, symObjAddr: 0x1680, symBinAddr: 0x1A858, symSize: 0x7C }
  - { offset: 0x50CD3, size: 0x8, addend: 0x0, symName: __RINvNvNtCskXqYSXpV4rx_3std9panicking12catch_unwind7do_callNCINvNtNtCs7Qj1RmEtpUo_4pyo35impl_10trampoline10trampolineNCNvNvMs0_NtNtB13_7pyclass18create_type_objectNtB20_13GetSetDefType21create_py_get_set_def6setter0lE0INtNtCs7dfkhshTrE4_4core6result6ResultlNtNtB13_3err5PyErrEEB13_, symObjAddr: 0x16FC, symBinAddr: 0x1A8D4, symSize: 0x80 }
  - { offset: 0x50DCE, size: 0x8, addend: 0x0, symName: __RINvNvNtCskXqYSXpV4rx_3std9panicking12catch_unwind8do_catchNCINvNtNtCs7Qj1RmEtpUo_4pyo35impl_10trampoline10trampolineNCNvNtB12_9pymethods11__call_clear0lE0INtNtCs7dfkhshTrE4_4core6result6ResultlNtNtB14_3err5PyErrEEB14_, symObjAddr: 0x177C, symBinAddr: 0x1A954, symSize: 0x70 }
  - { offset: 0x50E63, size: 0x8, addend: 0x0, symName: __RINvNvNtCskXqYSXpV4rx_3std9panicking12catch_unwind8do_catchNCINvNtNtCs7Qj1RmEtpUo_4pyo35impl_10trampoline10trampolineNCNvNtNtB14_7pyclass18create_type_object22no_constructor_defined0ONtNtCsgh2hkQkDkI2_8pyo3_ffi6object8PyObjectE0INtNtCs7dfkhshTrE4_4core6result6ResultB2U_NtNtB14_3err5PyErrEEB14_, symObjAddr: 0x17EC, symBinAddr: 0x1A9C4, symSize: 0x70 }
  - { offset: 0x50EF8, size: 0x8, addend: 0x0, symName: __RINvNvNtCskXqYSXpV4rx_3std9panicking12catch_unwind8do_catchNCINvNtNtCs7Qj1RmEtpUo_4pyo35impl_10trampoline10trampolineNCNvNvMs0_NtNtB14_7pyclass18create_type_objectNtB21_13GetSetDefType21create_py_get_set_def13getset_getter0ONtNtCsgh2hkQkDkI2_8pyo3_ffi6object8PyObjectE0INtNtCs7dfkhshTrE4_4core6result6ResultB3z_NtNtB14_3err5PyErrEEB14_, symObjAddr: 0x185C, symBinAddr: 0x1AA34, symSize: 0x70 }
  - { offset: 0x50F8D, size: 0x8, addend: 0x0, symName: __RINvNvNtCskXqYSXpV4rx_3std9panicking12catch_unwind8do_catchNCINvNtNtCs7Qj1RmEtpUo_4pyo35impl_10trampoline10trampolineNCNvNvMs0_NtNtB14_7pyclass18create_type_objectNtB21_13GetSetDefType21create_py_get_set_def13getset_setter0lE0INtNtCs7dfkhshTrE4_4core6result6ResultlNtNtB14_3err5PyErrEEB14_, symObjAddr: 0x18CC, symBinAddr: 0x1AAA4, symSize: 0x70 }
  - { offset: 0x51022, size: 0x8, addend: 0x0, symName: __RINvNvNtCskXqYSXpV4rx_3std9panicking12catch_unwind8do_catchNCINvNtNtCs7Qj1RmEtpUo_4pyo35impl_10trampoline10trampolineNCNvNvMs0_NtNtB14_7pyclass18create_type_objectNtB21_13GetSetDefType21create_py_get_set_def6getter0ONtNtCsgh2hkQkDkI2_8pyo3_ffi6object8PyObjectE0INtNtCs7dfkhshTrE4_4core6result6ResultB3r_NtNtB14_3err5PyErrEEB14_, symObjAddr: 0x193C, symBinAddr: 0x1AB14, symSize: 0x70 }
  - { offset: 0x510B7, size: 0x8, addend: 0x0, symName: __RINvNvNtCskXqYSXpV4rx_3std9panicking12catch_unwind8do_catchNCINvNtNtCs7Qj1RmEtpUo_4pyo35impl_10trampoline10trampolineNCNvNvMs0_NtNtB14_7pyclass18create_type_objectNtB21_13GetSetDefType21create_py_get_set_def6setter0lE0INtNtCs7dfkhshTrE4_4core6result6ResultlNtNtB14_3err5PyErrEEB14_, symObjAddr: 0x19AC, symBinAddr: 0x1AB84, symSize: 0x70 }
  - { offset: 0x512CE, size: 0x8, addend: 0x0, symName: __RNCNKNvNvMNtNtCskXqYSXpV4rx_3std4hash6randomNtB8_11RandomState3new4KEYS0s_0Cs7Qj1RmEtpUo_4pyo3, symObjAddr: 0x1B08, symBinAddr: 0x1ACA8, symSize: 0x34 }
  - { offset: 0x5130C, size: 0x8, addend: 0x0, symName: __RNvNvNvMNtNtCskXqYSXpV4rx_3std4hash6randomNtB6_11RandomState3new4KEYS27___rust_std_internal_init_fnCs7Qj1RmEtpUo_4pyo3, symObjAddr: 0x29E0, symBinAddr: 0x1B5D0, symSize: 0x24 }
  - { offset: 0x5132A, size: 0x8, addend: 0x0, symName: __RNCNvMNtNtCskXqYSXpV4rx_3std4hash6randomNtB4_11RandomState3new0Cs7Qj1RmEtpUo_4pyo3, symObjAddr: 0x1BCC, symBinAddr: 0x1AD6C, symSize: 0x2C }
  - { offset: 0x513EF, size: 0x8, addend: 0x0, symName: __RNvXs2_NtNtCskXqYSXpV4rx_3std4hash6randomNtB5_13DefaultHasherNtNtCs7dfkhshTrE4_4core4hash6Hasher5writeCs7Qj1RmEtpUo_4pyo3, symObjAddr: 0x2EB4, symBinAddr: 0x1B71C, symSize: 0x2C }
  - { offset: 0x51449, size: 0x8, addend: 0x0, symName: __RNvXs2_NtNtCskXqYSXpV4rx_3std4hash6randomNtB5_13DefaultHasherNtNtCs7dfkhshTrE4_4core4hash6Hasher6finishCs7Qj1RmEtpUo_4pyo3, symObjAddr: 0x2EE0, symBinAddr: 0x1B748, symSize: 0x20 }
  - { offset: 0x51497, size: 0x8, addend: 0x0, symName: __RNvXs_NtNtCskXqYSXpV4rx_3std4hash6randomNtB4_11RandomStateNtNtCs7dfkhshTrE4_4core4hash11BuildHasher12build_hasherCs7Qj1RmEtpUo_4pyo3, symObjAddr: 0x35B4, symBinAddr: 0x1B8DC, symSize: 0xCC }
  - { offset: 0x522A1, size: 0x8, addend: 0x0, symName: __RINvNtCs7dfkhshTrE4_4core9panicking13panic_displayReECs7Qj1RmEtpUo_4pyo3, symObjAddr: 0x1438, symBinAddr: 0x1A610, symSize: 0x5C }
  - { offset: 0x52EAC, size: 0x8, addend: 0x0, symName: __RINvNtCs7dfkhshTrE4_4core10intrinsics11rotate_leftyECs7Qj1RmEtpUo_4pyo3, symObjAddr: 0x134C, symBinAddr: 0x1A5BC, symSize: 0x54 }
  - { offset: 0x52EFD, size: 0x8, addend: 0x0, symName: __RINvYNtNtNtCskXqYSXpV4rx_3std4hash6random11RandomStateNtNtCs7dfkhshTrE4_4core4hash11BuildHasher8hash_oneRRNtNtNtBU_3ffi5c_str4CStrECs7Qj1RmEtpUo_4pyo3, symObjAddr: 0x1A1C, symBinAddr: 0x1ABF4, symSize: 0x84 }
  - { offset: 0x530AC, size: 0x8, addend: 0x0, symName: __RNvYNtNtNtCskXqYSXpV4rx_3std4hash6random13DefaultHasherNtNtCs7dfkhshTrE4_4core4hash6Hasher11write_usizeCs7Qj1RmEtpUo_4pyo3, symObjAddr: 0x37B8, symBinAddr: 0x1B9E4, symSize: 0x3C }
  - { offset: 0x5310C, size: 0x8, addend: 0x0, symName: __RNvYNtNtNtCskXqYSXpV4rx_3std4hash6random13DefaultHasherNtNtCs7dfkhshTrE4_4core4hash6Hasher19write_length_prefixCs7Qj1RmEtpUo_4pyo3, symObjAddr: 0x37F4, symBinAddr: 0x1BA20, symSize: 0x28 }
  - { offset: 0x5365D, size: 0x8, addend: 0x0, symName: __RNvXsB_NtCs2iVXuAemrgm_5alloc6stringNtNtCs7Qj1RmEtpUo_4pyo36pycell13PyBorrowErrorNtB5_8ToString9to_stringBC_, symObjAddr: 0x30C0, symBinAddr: 0x1B768, symSize: 0x24 }
  - { offset: 0x5369A, size: 0x8, addend: 0x0, symName: __RNvXsC_NtCs2iVXuAemrgm_5alloc6stringNtNtCs7Qj1RmEtpUo_4pyo36pycell13PyBorrowErrorNtB5_12SpecToString14spec_to_stringBC_, symObjAddr: 0x3108, symBinAddr: 0x1B78C, symSize: 0xF4 }
  - { offset: 0x537EA, size: 0x8, addend: 0x0, symName: __RNvXs2_NtCs2iVXuAemrgm_5alloc3streNtNtB7_6borrow7ToOwned8to_ownedCs7Qj1RmEtpUo_4pyo3, symObjAddr: 0x2DB8, symBinAddr: 0x1B620, symSize: 0x50 }
  - { offset: 0x539ED, size: 0x8, addend: 0x0, symName: __RNvNtCsgh2hkQkDkI2_8pyo3_ffi10modsupport15PyModule_CreateCs7Qj1RmEtpUo_4pyo3, symObjAddr: 0x274C, symBinAddr: 0x1B5A8, symSize: 0x28 }
  - { offset: 0x53C66, size: 0x8, addend: 0x0, symName: __RNvNCNKNvNtCs7Qj1RmEtpUo_4pyo33gil9GIL_COUNT0s_023___RUST_STD_INTERNAL_VAL, symObjAddr: 0x48A4, symBinAddr: 0xACEA0, symSize: 0x0 }
  - { offset: 0x53C75, size: 0x8, addend: 0x0, symName: __RNCNKNvNtCs7Qj1RmEtpUo_4pyo33gil9GIL_COUNT0s_0B7_, symObjAddr: 0x1AD8, symBinAddr: 0x1AC78, symSize: 0x30 }
  - { offset: 0x53CBE, size: 0x8, addend: 0x0, symName: __RNvNtCs7Qj1RmEtpUo_4pyo33gil4POOL, symObjAddr: 0x48C0, symBinAddr: 0xAC4B8, symSize: 0x0 }
  - { offset: 0x53D2B, size: 0x8, addend: 0x0, symName: __RNvNtCs7Qj1RmEtpUo_4pyo33gil5START, symObjAddr: 0x4900, symBinAddr: 0xAC4F8, symSize: 0x0 }
  - { offset: 0x53DCE, size: 0x8, addend: 0x0, symName: __RNCNvMNtCs7Qj1RmEtpUo_4pyo33gilNtB4_8GILGuard7acquire0B6_, symObjAddr: 0x1B3C, symBinAddr: 0x1ACDC, symSize: 0x90 }
  - { offset: 0x53E4B, size: 0x8, addend: 0x0, symName: __RNCNvNtCs7Qj1RmEtpUo_4pyo33gil15gil_is_acquired0B5_, symObjAddr: 0x1CAC, symBinAddr: 0x1AD98, symSize: 0x2C }
  - { offset: 0x53E8E, size: 0x8, addend: 0x0, symName: __RNCNvNtCs7Qj1RmEtpUo_4pyo33gil19decrement_gil_count0B5_, symObjAddr: 0x1CD8, symBinAddr: 0x1ADC4, symSize: 0x8C }
  - { offset: 0x53EE6, size: 0x8, addend: 0x0, symName: __RNCNvNtCs7Qj1RmEtpUo_4pyo33gil19increment_gil_count0B5_, symObjAddr: 0x1D64, symBinAddr: 0x1AE50, symSize: 0x74 }
  - { offset: 0x53F3E, size: 0x8, addend: 0x0, symName: __RNCNvNtCs7Qj1RmEtpUo_4pyo33gil27prepare_freethreaded_python0B5_, symObjAddr: 0x1DD8, symBinAddr: 0x1AEC4, symSize: 0x38 }
  - { offset: 0x53FDE, size: 0x8, addend: 0x0, symName: __RNvNtCs7Qj1RmEtpUo_4pyo33gil15register_decref, symObjAddr: 0x26B8, symBinAddr: 0x1B518, symSize: 0x74 }
  - { offset: 0x5403B, size: 0x8, addend: 0x0, symName: __RNvNtCs7Qj1RmEtpUo_4pyo33gil27prepare_freethreaded_python, symObjAddr: 0x272C, symBinAddr: 0x1B58C, symSize: 0x1C }
  - { offset: 0x54066, size: 0x8, addend: 0x0, symName: __RNvXs_NtCs7Qj1RmEtpUo_4pyo33gilNtB4_8GILGuardNtNtNtCs7dfkhshTrE4_4core3ops4drop4Drop4drop, symObjAddr: 0x3558, symBinAddr: 0x1B880, symSize: 0x5C }
  - { offset: 0x542FE, size: 0x8, addend: 0x0, symName: __RNvXs1_NtNtCs7Qj1RmEtpUo_4pyo35types5floatdINtNtB9_10conversion6IntoPyINtNtB9_8instance2PyNtNtB7_3any5PyAnyEE7into_py, symObjAddr: 0x2A38, symBinAddr: 0x1B5F4, symSize: 0x2C }
  - { offset: 0x54349, size: 0x8, addend: 0x0, symName: __RNvXs2_NtNtCs7Qj1RmEtpUo_4pyo35types5floatdNtNtB9_10conversion12FromPyObject13extract_bound, symObjAddr: 0x2E08, symBinAddr: 0x1B670, symSize: 0xAC }
  - { offset: 0x54689, size: 0x8, addend: 0x0, symName: __RNvXsl_NtCs7Qj1RmEtpUo_4pyo36pycellNtB5_13PyBorrowErrorNtNtCs7dfkhshTrE4_4core3fmt7Display3fmt, symObjAddr: 0x36D0, symBinAddr: 0x1B9A8, symSize: 0x3C }
  - { offset: 0x548BD, size: 0x8, addend: 0x0, symName: __RINvMNtNtCs7dfkhshTrE4_4core3fmt2rtNtB3_8Argument11new_displayINtNtCs2iVXuAemrgm_5alloc6borrow3CoweEECs7Qj1RmEtpUo_4pyo3, symObjAddr: 0x0, symBinAddr: 0x1A488, symSize: 0x2C }
  - { offset: 0x5493A, size: 0x8, addend: 0x0, symName: __RINvMNtNtCs7dfkhshTrE4_4core3fmt2rtNtB3_8Argument11new_displayINtNtCs7Qj1RmEtpUo_4pyo38instance5BoundNtNtNtB13_5types6string8PyStringEEB13_, symObjAddr: 0x58, symBinAddr: 0x1A4B4, symSize: 0x2C }
  - { offset: 0x54972, size: 0x8, addend: 0x0, symName: __RINvMNtNtCs7dfkhshTrE4_4core3fmt2rtNtB3_8Argument11new_displayNtNtCs2iVXuAemrgm_5alloc6string6StringECs7Qj1RmEtpUo_4pyo3, symObjAddr: 0x84, symBinAddr: 0x1A4E0, symSize: 0x2C }
  - { offset: 0x54A19, size: 0x8, addend: 0x0, symName: __RINvMNtNtCs7dfkhshTrE4_4core3fmt2rtNtB3_8Argument11new_displayRINtNtCs7Qj1RmEtpUo_4pyo38instance5BoundNtNtB14_10exceptions15PyBaseExceptionEEB14_, symObjAddr: 0x108, symBinAddr: 0x1A50C, symSize: 0x2C }
  - { offset: 0x54A5E, size: 0x8, addend: 0x0, symName: __RINvMNtNtCs7dfkhshTrE4_4core3fmt2rtNtB3_8Argument11new_displayRINtNtCs7Qj1RmEtpUo_4pyo38instance5BoundNtNtNtB14_5types3any5PyAnyEEB14_, symObjAddr: 0x134, symBinAddr: 0x1A538, symSize: 0x2C }
  - { offset: 0x54AA3, size: 0x8, addend: 0x0, symName: __RINvMNtNtCs7dfkhshTrE4_4core3fmt2rtNtB3_8Argument11new_displayReECs7Qj1RmEtpUo_4pyo3, symObjAddr: 0x18C, symBinAddr: 0x1A564, symSize: 0x2C }
  - { offset: 0x54ADB, size: 0x8, addend: 0x0, symName: __RINvMNtNtCs7dfkhshTrE4_4core3fmt2rtNtB3_8Argument11new_displayjECs7Qj1RmEtpUo_4pyo3, symObjAddr: 0x1B8, symBinAddr: 0x1A590, symSize: 0x2C }
  - { offset: 0x54F80, size: 0x8, addend: 0x0, symName: __RNvMNtCs7Qj1RmEtpUo_4pyo33gilNtB2_8GILGuard17acquire_unchecked, symObjAddr: 0x1E80, symBinAddr: 0x1AEFC, symSize: 0xAC }
  - { offset: 0x54FE6, size: 0x8, addend: 0x0, symName: __RNvMNtCs7Qj1RmEtpUo_4pyo33gilNtB2_8GILGuard6assume, symObjAddr: 0x1F2C, symBinAddr: 0x1AFA8, symSize: 0xB0 }
  - { offset: 0x55038, size: 0x8, addend: 0x0, symName: __RNvMNtCs7Qj1RmEtpUo_4pyo33gilNtB2_8GILGuard6pythonB4_, symObjAddr: 0x1FDC, symBinAddr: 0x1B058, symSize: 0x20 }
  - { offset: 0x5505A, size: 0x8, addend: 0x0, symName: __RNvMNtCs7Qj1RmEtpUo_4pyo33gilNtB2_8GILGuard7acquire, symObjAddr: 0x1FFC, symBinAddr: 0x1B078, symSize: 0x7C }
  - { offset: 0x55089, size: 0x8, addend: 0x0, symName: __RNvMNtNtCs7Qj1RmEtpUo_4pyo35types5floatNtB2_7PyFloat9new_bound, symObjAddr: 0x2078, symBinAddr: 0x1B0F4, symSize: 0x30 }
  - { offset: 0x55130, size: 0x8, addend: 0x0, symName: __RNvMs0_NtCs7Qj1RmEtpUo_4pyo33gilNtB5_13ReferencePool13update_counts, symObjAddr: 0x20D0, symBinAddr: 0x1B124, symSize: 0x280 }
  - { offset: 0x5523A, size: 0x8, addend: 0x0, symName: __RNvMs0_NtCs7Qj1RmEtpUo_4pyo33gilNtB5_13ReferencePool15register_decref, symObjAddr: 0x2350, symBinAddr: 0x1B3A4, symSize: 0x128 }
  - { offset: 0x552A6, size: 0x8, addend: 0x0, symName: __RNvMs0_NtCs7Qj1RmEtpUo_4pyo33gilNtB5_13ReferencePool3new, symObjAddr: 0x2478, symBinAddr: 0x1B4CC, symSize: 0x4C }
  - { offset: 0x552B9, size: 0x8, addend: 0x0, symName: __RNvMs5_NtCs7Qj1RmEtpUo_4pyo33gilNtB5_7LockGIL4bail, symObjAddr: 0x254C, symBinAddr: 0x6AC04, symSize: 0x5C }
  - { offset: 0x56C5E, size: 0x8, addend: 0x0, symName: __RNvMNtCs7dfkhshTrE4_4core5sliceSRe4iterCs7Qj1RmEtpUo_4pyo3, symObjAddr: 0x734, symBinAddr: 0x1BAB0, symSize: 0x28 }
  - { offset: 0x56D2F, size: 0x8, addend: 0x0, symName: __RNCNvXsf_NtNtCs7dfkhshTrE4_4core5slice3cmpNtNtNtCskXqYSXpV4rx_3std6thread2id8ThreadIdNtB7_13SliceContains14slice_contains0Cs7Qj1RmEtpUo_4pyo3, symObjAddr: 0x6FC, symBinAddr: 0x1BA78, symSize: 0x38 }
  - { offset: 0x56D7F, size: 0x8, addend: 0x0, symName: __RNvXNtNtCs7dfkhshTrE4_4core5slice3cmpSaNtNtB6_3cmp9PartialEq2eqCs7Qj1RmEtpUo_4pyo3, symObjAddr: 0x13EC, symBinAddr: 0x1BFB0, symSize: 0x6C }
  - { offset: 0x56DEE, size: 0x8, addend: 0x0, symName: __RNvXs3_NtNtCs7dfkhshTrE4_4core5slice3cmpaINtB5_14SlicePartialEqaE17equal_same_lengthCs7Qj1RmEtpUo_4pyo3, symObjAddr: 0x22E4, symBinAddr: 0x1C3D0, symSize: 0x48 }
  - { offset: 0x5781D, size: 0x8, addend: 0x0, symName: __RNvNtNtCs7dfkhshTrE4_4core4hash3sip9u8to64_leCs7Qj1RmEtpUo_4pyo3, symObjAddr: 0x9F4, symBinAddr: 0x1BC98, symSize: 0x240 }
  - { offset: 0x579DA, size: 0x8, addend: 0x0, symName: __RNvXs3_NtNtCs7dfkhshTrE4_4core4hash3sipINtB5_6HasherNtB5_11Sip13RoundsENtB7_6Hasher5writeCs7Qj1RmEtpUo_4pyo3, symObjAddr: 0x2014, symBinAddr: 0x1C100, symSize: 0x230 }
  - { offset: 0x57B53, size: 0x8, addend: 0x0, symName: __RNvXs3_NtNtCs7dfkhshTrE4_4core4hash3sipINtB5_6HasherNtB5_11Sip13RoundsENtB7_6Hasher6finishCs7Qj1RmEtpUo_4pyo3, symObjAddr: 0x2244, symBinAddr: 0x1C330, symSize: 0xA0 }
  - { offset: 0x57BCC, size: 0x8, addend: 0x0, symName: __RNvXs6_NtNtCs7dfkhshTrE4_4core4hash3sipNtB5_11Sip13RoundsNtB5_3Sip8c_roundsCs7Qj1RmEtpUo_4pyo3, symObjAddr: 0x2374, symBinAddr: 0x1C418, symSize: 0x1A0 }
  - { offset: 0x57D41, size: 0x8, addend: 0x0, symName: __RNvXs6_NtNtCs7dfkhshTrE4_4core4hash3sipNtB5_11Sip13RoundsNtB5_3Sip8d_roundsCs7Qj1RmEtpUo_4pyo3, symObjAddr: 0x2514, symBinAddr: 0x1C5B8, symSize: 0x46C }
  - { offset: 0x581A9, size: 0x8, addend: 0x0, symName: __RNvNvNtCs7dfkhshTrE4_4core9ub_checks23maybe_is_nonoverlapping7runtimeCs7Qj1RmEtpUo_4pyo3, symObjAddr: 0x1314, symBinAddr: 0x1BED8, symSize: 0xD8 }
  - { offset: 0x5836A, size: 0x8, addend: 0x0, symName: __RNvXNtNtNtCs7dfkhshTrE4_4core4iter6traits7collectINtNtNtB6_8adapters9enumerate9EnumerateINtNtNtB8_5array4iter8IntoIterINtNtCs7Qj1RmEtpUo_4pyo38instance2PyNtNtNtB1X_5types3any5PyAnyEKj1_EENtB2_12IntoIterator9into_iterB1X_, symObjAddr: 0x191C, symBinAddr: 0x1C01C, symSize: 0x14 }
  - { offset: 0x583A1, size: 0x8, addend: 0x0, symName: __RNvXNtNtNtCs7dfkhshTrE4_4core4iter6traits7collectINtNtNtB6_8adapters9enumerate9EnumerateINtNtNtB8_5slice4iter4IterReEENtB2_12IntoIterator9into_iterCs7Qj1RmEtpUo_4pyo3, symObjAddr: 0x19C0, symBinAddr: 0x1C030, symSize: 0x18 }
  - { offset: 0x583EA, size: 0x8, addend: 0x0, symName: __RNvXs_NtNtNtCs7dfkhshTrE4_4core4iter8adapters9enumerateINtB4_9EnumerateINtNtNtBa_5array4iter8IntoIterINtNtCs7Qj1RmEtpUo_4pyo38instance2PyNtNtNtB1G_5types3any5PyAnyEKj1_EENtNtNtB8_6traits8iterator8Iterator4nextB1G_, symObjAddr: 0x3320, symBinAddr: 0x1CF4C, symSize: 0xEC }
  - { offset: 0x584D0, size: 0x8, addend: 0x0, symName: __RNvXs_NtNtNtCs7dfkhshTrE4_4core4iter8adapters9enumerateINtB4_9EnumerateINtNtNtBa_5slice4iter4IterReEENtNtNtB8_6traits8iterator8Iterator4nextCs7Qj1RmEtpUo_4pyo3, symObjAddr: 0x36D0, symBinAddr: 0x1D038, symSize: 0xE0 }
  - { offset: 0x5861D, size: 0x8, addend: 0x0, symName: __RNvXs2f_NtNtCs7dfkhshTrE4_4core7convert3nummINtB8_7TryFromyE8try_fromCs7Qj1RmEtpUo_4pyo3, symObjAddr: 0x1D74, symBinAddr: 0x1C048, symSize: 0x5C }
  - { offset: 0x58651, size: 0x8, addend: 0x0, symName: __RNvXs38_NtNtCs7dfkhshTrE4_4core7convert3numiINtB8_7TryFromjE8try_fromCs7Qj1RmEtpUo_4pyo3, symObjAddr: 0x1FB8, symBinAddr: 0x1C0A4, symSize: 0x5C }
  - { offset: 0x58F7E, size: 0x8, addend: 0x0, symName: __RNvMs6_NtCs2iVXuAemrgm_5alloc5boxedINtB5_3BoxNtNtCsgh2hkQkDkI2_8pyo3_ffi12methodobject11PyMethodDefE8into_rawCs7Qj1RmEtpUo_4pyo3, symObjAddr: 0x830, symBinAddr: 0x1BB64, symSize: 0x14 }
  - { offset: 0x58FB5, size: 0x8, addend: 0x0, symName: __RNvMs6_NtCs2iVXuAemrgm_5alloc5boxedINtB5_3BoxSNtNtCsgh2hkQkDkI2_8pyo3_ffi11descrobject11PyGetSetDefE8into_rawCs7Qj1RmEtpUo_4pyo3, symObjAddr: 0x844, symBinAddr: 0x1BB78, symSize: 0x18 }
  - { offset: 0x58FEC, size: 0x8, addend: 0x0, symName: __RNvMs6_NtCs2iVXuAemrgm_5alloc5boxedINtB5_3BoxSNtNtCsgh2hkQkDkI2_8pyo3_ffi11descrobject11PyMemberDefE8into_rawCs7Qj1RmEtpUo_4pyo3, symObjAddr: 0x85C, symBinAddr: 0x1BB90, symSize: 0x18 }
  - { offset: 0x59023, size: 0x8, addend: 0x0, symName: __RNvMs6_NtCs2iVXuAemrgm_5alloc5boxedINtB5_3BoxSNtNtCsgh2hkQkDkI2_8pyo3_ffi12methodobject11PyMethodDefE8into_rawCs7Qj1RmEtpUo_4pyo3, symObjAddr: 0x874, symBinAddr: 0x1BBA8, symSize: 0x18 }
  - { offset: 0x59060, size: 0x8, addend: 0x0, symName: __RNvXs8_NtCs2iVXuAemrgm_5alloc5boxedINtB5_3BoxDG_INtNtNtCs7dfkhshTrE4_4core3ops8function2FnTRL0_NtNtNtCs7Qj1RmEtpUo_4pyo37pyclass18create_type_object13PyTypeBuilderONtNtCsgh2hkQkDkI2_8pyo3_ffi6object12PyTypeObjectEEp6OutputuEL_ENtNtBP_4drop4Drop4dropB1B_, symObjAddr: 0x29B4, symBinAddr: 0x1CA24, symSize: 0xE4 }
  - { offset: 0x591F2, size: 0x8, addend: 0x0, symName: __RNvXs8_NtCs2iVXuAemrgm_5alloc5boxedINtB5_3BoxDG_INtNtNtCs7dfkhshTrE4_4core3ops8function6FnOnceTINtNtCs7Qj1RmEtpUo_4pyo36marker6PythonL0_EEEp6OutputNtNtNtB1A_3err9err_state22PyErrStateLazyFnOutputNtNtBR_6marker4SendNtB39_4SyncEL_ENtNtBP_4drop4Drop4dropB1A_, symObjAddr: 0x2A98, symBinAddr: 0x1CB08, symSize: 0xE4 }
  - { offset: 0x59384, size: 0x8, addend: 0x0, symName: __RNvXs8_NtCs2iVXuAemrgm_5alloc5boxedINtB5_3BoxDNtNtCs7dfkhshTrE4_4core3any3AnyNtNtBM_6marker4SendEL_ENtNtNtBM_3ops4drop4Drop4dropCs7Qj1RmEtpUo_4pyo3, symObjAddr: 0x2B7C, symBinAddr: 0x1CBEC, symSize: 0xE4 }
  - { offset: 0x59516, size: 0x8, addend: 0x0, symName: __RNvXs8_NtCs2iVXuAemrgm_5alloc5boxedINtB5_3BoxNtNtNtCs7Qj1RmEtpUo_4pyo37pyclass18create_type_object15GetterAndSetterENtNtNtCs7dfkhshTrE4_4core3ops4drop4Drop4dropBN_, symObjAddr: 0x2EF8, symBinAddr: 0x1CCD0, symSize: 0xD0 }
  - { offset: 0x596A4, size: 0x8, addend: 0x0, symName: __RNvXs8_NtCs2iVXuAemrgm_5alloc5boxedINtB5_3BoxNtNtNtNtNtNtCskXqYSXpV4rx_3std3sys3pal4unix4sync5mutex5MutexENtNtNtCs7dfkhshTrE4_4core3ops4drop4Drop4dropCs7Qj1RmEtpUo_4pyo3, symObjAddr: 0x3098, symBinAddr: 0x1CDA0, symSize: 0xD0 }
  - { offset: 0x59832, size: 0x8, addend: 0x0, symName: __RNvXs8_NtCs2iVXuAemrgm_5alloc5boxedINtB5_3BoxShENtNtNtCs7dfkhshTrE4_4core3ops4drop4Drop4dropCs7Qj1RmEtpUo_4pyo3, symObjAddr: 0x3168, symBinAddr: 0x1CE70, symSize: 0xDC }
  - { offset: 0x599CA, size: 0x8, addend: 0x0, symName: __RNvXst_NtCs2iVXuAemrgm_5alloc5boxedINtB5_3BoxDG_INtNtNtCs7dfkhshTrE4_4core3ops8function6FnOnceTINtNtCs7Qj1RmEtpUo_4pyo36marker6PythonL0_EEEp6OutputNtNtNtB1A_3err9err_state22PyErrStateLazyFnOutputNtNtBR_6marker4SendNtB39_4SyncEL_EIBL_TB1w_EE9call_onceB1A_, symObjAddr: 0x3974, symBinAddr: 0x1D118, symSize: 0xA0 }
  - { offset: 0x59A28, size: 0x8, addend: 0x0, symName: __RNvXsv_NtCs2iVXuAemrgm_5alloc5boxedINtB5_3BoxDG_INtNtNtCs7dfkhshTrE4_4core3ops8function2FnTRL0_NtNtNtCs7Qj1RmEtpUo_4pyo37pyclass18create_type_object13PyTypeBuilderONtNtCsgh2hkQkDkI2_8pyo3_ffi6object12PyTypeObjectEEp6OutputuEL_EIBL_TRB1v_B2B_EE4callB1B_, symObjAddr: 0x3A20, symBinAddr: 0x1D1B8, symSize: 0x44 }
  - { offset: 0x59A96, size: 0x8, addend: 0x0, symName: __RNCNvNtCs2iVXuAemrgm_5alloc3fmt6format0Cs7Qj1RmEtpUo_4pyo3, symObjAddr: 0x690, symBinAddr: 0x1BA48, symSize: 0x30 }
  - { offset: 0x59AC7, size: 0x8, addend: 0x0, symName: __RNvNtCs2iVXuAemrgm_5alloc3fmt6formatCs7Qj1RmEtpUo_4pyo3, symObjAddr: 0x91C, symBinAddr: 0x1BBC0, symSize: 0xD8 }
  - { offset: 0x59E28, size: 0x8, addend: 0x0, symName: __RNvMs0_NtNtCs7dfkhshTrE4_4core4hash3sipINtB5_6HasherNtB5_11Sip13RoundsE5resetCs7Qj1RmEtpUo_4pyo3, symObjAddr: 0x784, symBinAddr: 0x1BAD8, symSize: 0x8C }
  - { offset: 0x5D208, size: 0x8, addend: 0x0, symName: __RNvXs_NtNtNtCs7dfkhshTrE4_4core4iter8adapters4takeINtB4_4TakeINtNtNtBa_5slice4iter4IterReEENtNtNtB8_6traits8iterator8Iterator4nextCs7Qj1RmEtpUo_4pyo3, symObjAddr: 0x4180, symBinAddr: 0x1EB18, symSize: 0x58 }
  - { offset: 0x5D23D, size: 0x8, addend: 0x0, symName: __RNvXs_NtNtNtCs7dfkhshTrE4_4core4iter8adapters4takeINtB4_4TakeINtNtNtBa_5slice4iter4IterReEENtNtNtB8_6traits8iterator8Iterator9size_hintCs7Qj1RmEtpUo_4pyo3, symObjAddr: 0x41D8, symBinAddr: 0x1EB70, symSize: 0x100 }
  - { offset: 0x5D2FF, size: 0x8, addend: 0x0, symName: __RINvYINtNtNtNtCs7dfkhshTrE4_4core4iter8adapters4take4TakeINtNtNtBc_5slice4iter4IterReEENtNtNtBa_6traits8iterator8Iterator3zipRSINtNtBc_6option6OptionINtNtCs7Qj1RmEtpUo_4pyo38instance8BorrowedNtNtNtB2s_5types3any5PyAnyEEEB2s_, symObjAddr: 0x530, symBinAddr: 0x1D3AC, symSize: 0xB0 }
  - { offset: 0x5D5C2, size: 0x8, addend: 0x0, symName: __RNvXs1_NtCs7dfkhshTrE4_4core7convertINtNtCs2iVXuAemrgm_5alloc6borrow3CoweEINtB5_4IntoNtNtBD_6string6StringE4intoCs7Qj1RmEtpUo_4pyo3, symObjAddr: 0x2924, symBinAddr: 0x1E484, symSize: 0x14 }
  - { offset: 0x5D703, size: 0x8, addend: 0x0, symName: __RNvNvNtNtCs7Qj1RmEtpUo_4pyo35types6module7___all__8INTERNED, symObjAddr: 0x5788, symBinAddr: 0xAC500, symSize: 0x0 }
  - { offset: 0x5D724, size: 0x8, addend: 0x0, symName: __RNvNvNtNtCs7Qj1RmEtpUo_4pyo35types6module8___name__8INTERNED, symObjAddr: 0x57A0, symBinAddr: 0xAC518, symSize: 0x0 }
  - { offset: 0x5D7CB, size: 0x8, addend: 0x0, symName: __RNvNtNtCs7Qj1RmEtpUo_4pyo35types6module7___all__, symObjAddr: 0x1E24, symBinAddr: 0x1E094, symSize: 0x24 }
  - { offset: 0x5D805, size: 0x8, addend: 0x0, symName: __RNvNtNtCs7Qj1RmEtpUo_4pyo35types6module8___name__, symObjAddr: 0x1E48, symBinAddr: 0x1E0B8, symSize: 0x24 }
  - { offset: 0x5D849, size: 0x8, addend: 0x0, symName: __RNvNvXs_NtNtCs7Qj1RmEtpUo_4pyo35types6moduleINtNtBa_8instance5BoundNtB6_8PyModuleENtB6_15PyModuleMethods3add5inner, symObjAddr: 0x2214, symBinAddr: 0x1E0DC, symSize: 0x264 }
  - { offset: 0x5DBDF, size: 0x8, addend: 0x0, symName: __RNCNvMs_NtNtCs7Qj1RmEtpUo_4pyo35impl_8pymoduleNtB6_9ModuleDef11make_module0Ba_, symObjAddr: 0x600, symBinAddr: 0x1D45C, symSize: 0x190 }
  - { offset: 0x5DC8F, size: 0x8, addend: 0x0, symName: __RNCNvMs_NtNtCs7Qj1RmEtpUo_4pyo35impl_8pymoduleNtB6_9ModuleDef11make_modules_0Ba_, symObjAddr: 0x790, symBinAddr: 0x1D5EC, symSize: 0x30 }
  - { offset: 0x5DE2D, size: 0x8, addend: 0x0, symName: __RNvXs3_NtNtCs7Qj1RmEtpUo_4pyo38internal8get_slotINtB5_4SlotKl2f_ENtB5_11GetSlotImpl8get_slotB9_, symObjAddr: 0x2EF0, symBinAddr: 0x1E510, symSize: 0x7C }
  - { offset: 0x5DE78, size: 0x8, addend: 0x0, symName: __RNvXs4_NtNtCs7Qj1RmEtpUo_4pyo38internal8get_slotINtB5_4SlotKl30_ENtB5_11GetSlotImpl8get_slotB9_, symObjAddr: 0x3374, symBinAddr: 0x1E96C, symSize: 0x28 }
  - { offset: 0x5DEC3, size: 0x8, addend: 0x0, symName: __RNvXs5_NtNtCs7Qj1RmEtpUo_4pyo38internal8get_slotINtB5_4SlotKl33_ENtB5_11GetSlotImpl8get_slotB9_, symObjAddr: 0x34AC, symBinAddr: 0x1E994, symSize: 0x7C }
  - { offset: 0x5E115, size: 0x8, addend: 0x0, symName: __RNvNtCsgh2hkQkDkI2_8pyo3_ffi13unicodeobject15PyUnicode_CheckCs7Qj1RmEtpUo_4pyo3, symObjAddr: 0x1C6C, symBinAddr: 0x1DFD4, symSize: 0x30 }
  - { offset: 0x5E147, size: 0x8, addend: 0x0, symName: __RNvNtCsgh2hkQkDkI2_8pyo3_ffi8pyerrors22PyExceptionClass_CheckCs7Qj1RmEtpUo_4pyo3, symObjAddr: 0x1D94, symBinAddr: 0x1E004, symSize: 0x60 }
  - { offset: 0x5E173, size: 0x8, addend: 0x0, symName: __RNvNtCsgh2hkQkDkI2_8pyo3_ffi8pyerrors25PyExceptionInstance_CheckCs7Qj1RmEtpUo_4pyo3, symObjAddr: 0x1DF4, symBinAddr: 0x1E064, symSize: 0x30 }
  - { offset: 0x5E211, size: 0x8, addend: 0x0, symName: __RINvXs_NvMNtCs2iVXuAemrgm_5alloc5sliceSp9to_vec_inhNtB5_10ConvertVec6to_vecNtNtBa_5alloc6GlobalECs7Qj1RmEtpUo_4pyo3, symObjAddr: 0x424, symBinAddr: 0x1D2A0, symSize: 0x10C }
  - { offset: 0x5E8F6, size: 0x8, addend: 0x0, symName: __RNvXs_NtCs2iVXuAemrgm_5alloc5allocNtB4_6GlobalNtNtCs7dfkhshTrE4_4core5alloc9Allocator10deallocateCs7Qj1RmEtpUo_4pyo3, symObjAddr: 0x403C, symBinAddr: 0x1EA3C, symSize: 0x58 }
  - { offset: 0x5E9C4, size: 0x8, addend: 0x0, symName: __RNvXs_NtCs2iVXuAemrgm_5alloc5allocNtB4_6GlobalNtNtCs7dfkhshTrE4_4core5alloc9Allocator6shrinkCs7Qj1RmEtpUo_4pyo3, symObjAddr: 0x4094, symBinAddr: 0x1EA94, symSize: 0x44 }
  - { offset: 0x5EA55, size: 0x8, addend: 0x0, symName: __RNvXs_NtCs2iVXuAemrgm_5alloc5allocNtB4_6GlobalNtNtCs7dfkhshTrE4_4core5alloc9Allocator8allocateCs7Qj1RmEtpUo_4pyo3, symObjAddr: 0x40D8, symBinAddr: 0x1EAD8, symSize: 0x40 }
  - { offset: 0x5EB16, size: 0x8, addend: 0x0, symName: __RNvNtCs2iVXuAemrgm_5alloc5alloc15exchange_mallocCs7Qj1RmEtpUo_4pyo3, symObjAddr: 0x1B8C, symBinAddr: 0x1DF24, symSize: 0xB0 }
  - { offset: 0x5EE87, size: 0x8, addend: 0x0, symName: __RNvXNvXse_NtNtCs2iVXuAemrgm_5alloc3vec9into_iterINtB8_8IntoIterppENtNtNtCs7dfkhshTrE4_4core3ops4drop4Drop4dropINtB2_9DropGuardINtNtBc_5boxed3BoxDG_INtNtB16_8function2FnTRL0_NtNtNtCs7Qj1RmEtpUo_4pyo37pyclass18create_type_object13PyTypeBuilderONtNtCsgh2hkQkDkI2_8pyo3_ffi6object12PyTypeObjectEEp6OutputuEL_ENtNtBc_5alloc6GlobalEB12_4dropB2R_, symObjAddr: 0x249C, symBinAddr: 0x1E340, symSize: 0x6C }
  - { offset: 0x5EFCA, size: 0x8, addend: 0x0, symName: __RNvXNvXse_NtNtCs2iVXuAemrgm_5alloc3vec9into_iterINtB8_8IntoIterppENtNtNtCs7dfkhshTrE4_4core3ops4drop4Drop4dropINtB2_9DropGuardINtNtNtB18_3ptr8non_null7NonNullNtNtCsgh2hkQkDkI2_8pyo3_ffi6object8PyObjectENtNtBc_5alloc6GlobalEB12_4dropCs7Qj1RmEtpUo_4pyo3, symObjAddr: 0x2508, symBinAddr: 0x1E3AC, symSize: 0x6C }
  - { offset: 0x5F10D, size: 0x8, addend: 0x0, symName: __RNvXNvXse_NtNtCs2iVXuAemrgm_5alloc3vec9into_iterINtB8_8IntoIterppENtNtNtCs7dfkhshTrE4_4core3ops4drop4Drop4dropINtB2_9DropGuardTRNtNtNtB18_3ffi5c_str4CStrINtNtCs7Qj1RmEtpUo_4pyo38instance2PyNtNtNtB2w_5types3any5PyAnyEENtNtBc_5alloc6GlobalEB12_4dropB2w_, symObjAddr: 0x2574, symBinAddr: 0x1E418, symSize: 0x6C }
  - { offset: 0x5F2C7, size: 0x8, addend: 0x0, symName: __RNvXse_NtNtCs2iVXuAemrgm_5alloc3vec9into_iterINtB5_8IntoIterINtNtB9_5boxed3BoxDG_INtNtNtCs7dfkhshTrE4_4core3ops8function2FnTRL0_NtNtNtCs7Qj1RmEtpUo_4pyo37pyclass18create_type_object13PyTypeBuilderONtNtCsgh2hkQkDkI2_8pyo3_ffi6object12PyTypeObjectEEp6OutputuEL_EENtNtB1m_4drop4Drop4dropB28_, symObjAddr: 0x43D4, symBinAddr: 0x1ECF4, symSize: 0x78 }
  - { offset: 0x5F319, size: 0x8, addend: 0x0, symName: __RNvXse_NtNtCs2iVXuAemrgm_5alloc3vec9into_iterINtB5_8IntoIterINtNtNtCs7dfkhshTrE4_4core3ptr8non_null7NonNullNtNtCsgh2hkQkDkI2_8pyo3_ffi6object8PyObjectEENtNtNtB13_3ops4drop4Drop4dropCs7Qj1RmEtpUo_4pyo3, symObjAddr: 0x444C, symBinAddr: 0x1ED6C, symSize: 0x64 }
  - { offset: 0x5F36B, size: 0x8, addend: 0x0, symName: __RNvXse_NtNtCs2iVXuAemrgm_5alloc3vec9into_iterINtB5_8IntoIterTRNtNtNtCs7dfkhshTrE4_4core3ffi5c_str4CStrINtNtCs7Qj1RmEtpUo_4pyo38instance2PyNtNtNtB1H_5types3any5PyAnyEEENtNtNtB14_3ops4drop4Drop4dropB1H_, symObjAddr: 0x44B0, symBinAddr: 0x1EDD0, symSize: 0x78 }
  - { offset: 0x5F3C3, size: 0x8, addend: 0x0, symName: __RNvXs4_NtNtCs2iVXuAemrgm_5alloc3vec9into_iterINtB5_8IntoIterINtNtB9_5boxed3BoxDG_INtNtNtCs7dfkhshTrE4_4core3ops8function2FnTRL0_NtNtNtCs7Qj1RmEtpUo_4pyo37pyclass18create_type_object13PyTypeBuilderONtNtCsgh2hkQkDkI2_8pyo3_ffi6object12PyTypeObjectEEp6OutputuEL_EENtNtNtNtB1o_4iter6traits8iterator8Iterator4nextB28_, symObjAddr: 0x2F94, symBinAddr: 0x1E58C, symSize: 0x94 }
  - { offset: 0x5F51D, size: 0x8, addend: 0x0, symName: __RNvXs4_NtNtCs2iVXuAemrgm_5alloc3vec9into_iterINtB5_8IntoIterINtNtB9_5boxed3BoxDG_INtNtNtCs7dfkhshTrE4_4core3ops8function2FnTRL0_NtNtNtCs7Qj1RmEtpUo_4pyo37pyclass18create_type_object13PyTypeBuilderONtNtCsgh2hkQkDkI2_8pyo3_ffi6object12PyTypeObjectEEp6OutputuEL_EENtNtNtNtB1o_4iter6traits8iterator8Iterator9size_hintB28_, symObjAddr: 0x3028, symBinAddr: 0x1E620, symSize: 0xB4 }
  - { offset: 0x5F636, size: 0x8, addend: 0x0, symName: __RNvXs4_NtNtCs2iVXuAemrgm_5alloc3vec9into_iterINtB5_8IntoIterINtNtNtCs7dfkhshTrE4_4core3ptr8non_null7NonNullNtNtCsgh2hkQkDkI2_8pyo3_ffi6object8PyObjectEENtNtNtNtB13_4iter6traits8iterator8Iterator4nextCs7Qj1RmEtpUo_4pyo3, symObjAddr: 0x30DC, symBinAddr: 0x1E6D4, symSize: 0x88 }
  - { offset: 0x5F790, size: 0x8, addend: 0x0, symName: __RNvXs4_NtNtCs2iVXuAemrgm_5alloc3vec9into_iterINtB5_8IntoIterINtNtNtCs7dfkhshTrE4_4core3ptr8non_null7NonNullNtNtCsgh2hkQkDkI2_8pyo3_ffi6object8PyObjectEENtNtNtNtB13_4iter6traits8iterator8Iterator9size_hintCs7Qj1RmEtpUo_4pyo3, symObjAddr: 0x3164, symBinAddr: 0x1E75C, symSize: 0xB4 }
  - { offset: 0x5F8A9, size: 0x8, addend: 0x0, symName: __RNvXs4_NtNtCs2iVXuAemrgm_5alloc3vec9into_iterINtB5_8IntoIterTRNtNtNtCs7dfkhshTrE4_4core3ffi5c_str4CStrINtNtCs7Qj1RmEtpUo_4pyo38instance2PyNtNtNtB1H_5types3any5PyAnyEEENtNtNtNtB14_4iter6traits8iterator8Iterator4nextB1H_, symObjAddr: 0x3218, symBinAddr: 0x1E810, symSize: 0xA8 }
  - { offset: 0x5FA07, size: 0x8, addend: 0x0, symName: __RNvXs4_NtNtCs2iVXuAemrgm_5alloc3vec9into_iterINtB5_8IntoIterTRNtNtNtCs7dfkhshTrE4_4core3ffi5c_str4CStrINtNtCs7Qj1RmEtpUo_4pyo38instance2PyNtNtNtB1H_5types3any5PyAnyEEENtNtNtNtB14_4iter6traits8iterator8Iterator9size_hintB1H_, symObjAddr: 0x32C0, symBinAddr: 0x1E8B8, symSize: 0xB4 }
  - { offset: 0x5FB32, size: 0x8, addend: 0x0, symName: __RNcNtINtNtCs2iVXuAemrgm_5alloc6borrow3CoweE8Borrowed0Cs7Qj1RmEtpUo_4pyo3, symObjAddr: 0x7F0, symBinAddr: 0x1D61C, symSize: 0x2C }
  - { offset: 0x5FBFD, size: 0x8, addend: 0x0, symName: __RNvXs2_NtCs2iVXuAemrgm_5alloc6borrowINtB5_3CoweENtNtNtCs7dfkhshTrE4_4core3ops5deref5Deref5derefCs7Qj1RmEtpUo_4pyo3, symObjAddr: 0x29EC, symBinAddr: 0x1E498, symSize: 0x78 }
  - { offset: 0x5FC58, size: 0x8, addend: 0x0, symName: __RNvXsb_NtCs2iVXuAemrgm_5alloc6borrowINtB5_3CoweENtNtCs7dfkhshTrE4_4core3fmt7Display3fmtCs7Qj1RmEtpUo_4pyo3, symObjAddr: 0x42D8, symBinAddr: 0x1EC70, symSize: 0x84 }
  - { offset: 0x5FD2B, size: 0x8, addend: 0x0, symName: __RNvXsQ_NtCs2iVXuAemrgm_5alloc6stringINtNtB7_6borrow3CoweEINtNtCs7dfkhshTrE4_4core7convert4FromReE4fromCs7Qj1RmEtpUo_4pyo3, symObjAddr: 0x3CBC, symBinAddr: 0x1EA10, symSize: 0x2C }
  - { offset: 0x5FF30, size: 0x8, addend: 0x0, symName: __RINvXNtNtNtNtCskXqYSXpV4rx_3std3sys12thread_local6native4lazyzNtB3_14DestroyedState13register_dtorINtNtCs7dfkhshTrE4_4core4cell4CellTyyEEECs7Qj1RmEtpUo_4pyo3, symObjAddr: 0x414, symBinAddr: 0x1D290, symSize: 0x10 }
  - { offset: 0x60020, size: 0x8, addend: 0x0, symName: __RINvMs0_NtNtNtNtCskXqYSXpV4rx_3std3sys12thread_local6native4lazyINtB6_7StorageINtNtCs7dfkhshTrE4_4core4cell4CellTyyEEzE11get_or_initNvNvNvMNtNtBe_4hash6randomNtB2d_11RandomState3new4KEYS27___rust_std_internal_init_fnECs7Qj1RmEtpUo_4pyo3, symObjAddr: 0x160, symBinAddr: 0x1D1FC, symSize: 0x94 }
  - { offset: 0x6024C, size: 0x8, addend: 0x0, symName: __RINvMs0_NtNtNtNtCskXqYSXpV4rx_3std3sys12thread_local6native4lazyINtB6_7StorageINtNtCs7dfkhshTrE4_4core4cell4CellTyyEEzE16get_or_init_slowNvNvNvMNtNtBe_4hash6randomNtB2i_11RandomState3new4KEYS27___rust_std_internal_init_fnECs7Qj1RmEtpUo_4pyo3, symObjAddr: 0x1F4, symBinAddr: 0x6AC60, symSize: 0x1D8 }
  - { offset: 0x608FA, size: 0x8, addend: 0x0, symName: __RNvMNtCs2iVXuAemrgm_5alloc5allocNtB2_6Global18alloc_impl_runtimeCs7Qj1RmEtpUo_4pyo3, symObjAddr: 0x81C, symBinAddr: 0x1D648, symSize: 0x194 }
  - { offset: 0x60E44, size: 0x8, addend: 0x0, symName: __RNvMNtCs2iVXuAemrgm_5alloc5allocNtB2_6Global19shrink_impl_runtimeCs7Qj1RmEtpUo_4pyo3, symObjAddr: 0x9B0, symBinAddr: 0x1D7DC, symSize: 0x304 }
  - { offset: 0x615A2, size: 0x8, addend: 0x0, symName: __RNvMs0_NtNtCs2iVXuAemrgm_5alloc3vec9into_iterINtB5_8IntoIterINtNtB9_5boxed3BoxDG_INtNtNtCs7dfkhshTrE4_4core3ops8function2FnTRL0_NtNtNtCs7Qj1RmEtpUo_4pyo37pyclass18create_type_object13PyTypeBuilderONtNtCsgh2hkQkDkI2_8pyo3_ffi6object12PyTypeObjectEEp6OutputuEL_EE16as_raw_mut_sliceB28_, symObjAddr: 0x153C, symBinAddr: 0x1DAE0, symSize: 0xCC }
  - { offset: 0x6170C, size: 0x8, addend: 0x0, symName: __RNvMs0_NtNtCs2iVXuAemrgm_5alloc3vec9into_iterINtB5_8IntoIterINtNtNtCs7dfkhshTrE4_4core3ptr8non_null7NonNullNtNtCsgh2hkQkDkI2_8pyo3_ffi6object8PyObjectEE16as_raw_mut_sliceCs7Qj1RmEtpUo_4pyo3, symObjAddr: 0x1608, symBinAddr: 0x1DBAC, symSize: 0xCC }
  - { offset: 0x618BB, size: 0x8, addend: 0x0, symName: __RNvMs0_NtNtCs2iVXuAemrgm_5alloc3vec9into_iterINtB5_8IntoIterTRNtNtNtCs7dfkhshTrE4_4core3ffi5c_str4CStrINtNtCs7Qj1RmEtpUo_4pyo38instance2PyNtNtNtB1H_5types3any5PyAnyEEE16as_raw_mut_sliceB1H_, symObjAddr: 0x16D4, symBinAddr: 0x1DC78, symSize: 0xCC }
  - { offset: 0x619AE, size: 0x8, addend: 0x0, symName: __RNvMs1_NtCs2iVXuAemrgm_5alloc6borrowINtB5_3CoweE10into_ownedCs7Qj1RmEtpUo_4pyo3, symObjAddr: 0x17A0, symBinAddr: 0x1DD44, symSize: 0x74 }
  - { offset: 0x61B65, size: 0x8, addend: 0x0, symName: __RNvMs_NtNtCs7Qj1RmEtpUo_4pyo35impl_8pymoduleNtB4_9ModuleDef11make_module, symObjAddr: 0x1814, symBinAddr: 0x1DDB8, symSize: 0x16C }
  - { offset: 0x62289, size: 0x8, addend: 0x0, symName: __RINvMs0_NtCs7Qj1RmEtpUo_4pyo35panicNtB6_14PanicException7new_errTNtNtCs2iVXuAemrgm_5alloc6string6StringEEB8_, symObjAddr: 0x0, symBinAddr: 0x1EE48, symSize: 0x34 }
  - { offset: 0x622E8, size: 0x8, addend: 0x0, symName: __RNCINvMs0_NtNtCs7Qj1RmEtpUo_4pyo33err9err_stateNtB8_10PyErrState4lazyINtNtBc_8instance2PyNtNtNtBc_5types3any5PyAnyEE0Bc_, symObjAddr: 0xD34, symBinAddr: 0x1F270, symSize: 0x70 }
  - { offset: 0x6248F, size: 0x8, addend: 0x0, symName: __RNCNvMNtNtCs7Qj1RmEtpUo_4pyo33err9err_stateNtB4_20PyErrStateNormalized10ptraceback0B8_, symObjAddr: 0xEF8, symBinAddr: 0x1F3D8, symSize: 0x24 }
  - { offset: 0x624D2, size: 0x8, addend: 0x0, symName: __RNCNvMNtNtCs7Qj1RmEtpUo_4pyo33err9err_stateNtB4_20PyErrStateNormalized4take0B8_, symObjAddr: 0xF1C, symBinAddr: 0x1F3FC, symSize: 0x14 }
  - { offset: 0x62511, size: 0x8, addend: 0x0, symName: __RNvNtNtCs7Qj1RmEtpUo_4pyo33err9err_state10raise_lazy, symObjAddr: 0x26F0, symBinAddr: 0x1FF38, symSize: 0x148 }
  - { offset: 0x62599, size: 0x8, addend: 0x0, symName: __RNvXs_NtNtCs7Qj1RmEtpUo_4pyo33err9err_stateReNtB4_14PyErrArguments9argumentsB8_, symObjAddr: 0x5258, symBinAddr: 0x20878, symSize: 0x28 }
  - { offset: 0x625E7, size: 0x8, addend: 0x0, symName: __RNvXs_NtNtCs7Qj1RmEtpUo_4pyo33err9err_stateTReENtB4_14PyErrArguments9argumentsB8_, symObjAddr: 0x5280, symBinAddr: 0x208A0, symSize: 0x28 }
  - { offset: 0x628CE, size: 0x8, addend: 0x0, symName: __RNvNvXs_NtNtCs7Qj1RmEtpUo_4pyo35types3anyINtNtBa_8instance5BoundNtB6_5PyAnyENtB6_12PyAnyMethods7getattr5inner, symObjAddr: 0x3C10, symBinAddr: 0x20414, symSize: 0xA8 }
  - { offset: 0x62911, size: 0x8, addend: 0x0, symName: __RNvNvXs_NtNtCs7Qj1RmEtpUo_4pyo35types3anyINtNtBa_8instance5BoundNtB6_5PyAnyENtB6_12PyAnyMethods7setattr5inner, symObjAddr: 0x3E08, symBinAddr: 0x204BC, symSize: 0xDC }
  - { offset: 0x62A07, size: 0x8, addend: 0x0, symName: __RNvXsi_NtNtCs7Qj1RmEtpUo_4pyo35types6stringNtB5_8PyStringNtNtB9_11type_object10PyTypeInfo16is_type_of_boundB9_, symObjAddr: 0x5544, symBinAddr: 0x208C8, symSize: 0x30 }
  - { offset: 0x62A70, size: 0x8, addend: 0x0, symName: __RNvNvMs1_NtCs7Qj1RmEtpUo_4pyo35panicNtB7_14PanicException15type_object_raw11TYPE_OBJECT, symObjAddr: 0x326D0, symBinAddr: 0xACFD8, symSize: 0x0 }
  - { offset: 0x62A7D, size: 0x8, addend: 0x0, symName: __RNCNvMs1_NtCs7Qj1RmEtpUo_4pyo35panicNtB7_14PanicException15type_object_raw0B9_, symObjAddr: 0xF54, symBinAddr: 0x1F410, symSize: 0xB4 }
  - { offset: 0x62B4D, size: 0x8, addend: 0x0, symName: __RNvXs5_NtCs7Qj1RmEtpUo_4pyo35panicNtB5_14PanicExceptionNtNtB7_11type_object10PyTypeInfo15type_object_rawB7_, symObjAddr: 0x4FA4, symBinAddr: 0x207A8, symSize: 0x1C }
  - { offset: 0x62E1A, size: 0x8, addend: 0x0, symName: __RNCNvXs1x_NtCs7Qj1RmEtpUo_4pyo310exceptionsNtB8_13PyImportErrorNtNtBa_11type_object10PyTypeInfo15type_object_raw0Ba_, symObjAddr: 0x11B8, symBinAddr: 0x1F5AC, symSize: 0x4C }
  - { offset: 0x62E67, size: 0x8, addend: 0x0, symName: __RNvXs1x_NtCs7Qj1RmEtpUo_4pyo310exceptionsNtB6_13PyImportErrorNtNtB8_11type_object10PyTypeInfo15type_object_rawB8_, symObjAddr: 0x4ACC, symBinAddr: 0x20660, symSize: 0x24 }
  - { offset: 0x62EAC, size: 0x8, addend: 0x0, symName: __RNCNvXs2k_NtCs7Qj1RmEtpUo_4pyo310exceptionsNtB8_15PyOverflowErrorNtNtBa_11type_object10PyTypeInfo15type_object_raw0Ba_, symObjAddr: 0x121C, symBinAddr: 0x1F5F8, symSize: 0x4C }
  - { offset: 0x62EF9, size: 0x8, addend: 0x0, symName: __RNvXs2k_NtCs7Qj1RmEtpUo_4pyo310exceptionsNtB6_15PyOverflowErrorNtNtB8_11type_object10PyTypeInfo15type_object_rawB8_, symObjAddr: 0x4B14, symBinAddr: 0x20684, symSize: 0x24 }
  - { offset: 0x62F3E, size: 0x8, addend: 0x0, symName: __RNCNvXs2r_NtCs7Qj1RmEtpUo_4pyo310exceptionsNtB8_14PyRuntimeErrorNtNtBa_11type_object10PyTypeInfo15type_object_raw0Ba_, symObjAddr: 0x1268, symBinAddr: 0x1F644, symSize: 0x4C }
  - { offset: 0x62F8B, size: 0x8, addend: 0x0, symName: __RNvXs2r_NtCs7Qj1RmEtpUo_4pyo310exceptionsNtB6_14PyRuntimeErrorNtNtB8_11type_object10PyTypeInfo15type_object_rawB8_, symObjAddr: 0x4B38, symBinAddr: 0x206A8, symSize: 0x24 }
  - { offset: 0x62FD0, size: 0x8, addend: 0x0, symName: __RNCNvXs3e_NtCs7Qj1RmEtpUo_4pyo310exceptionsNtB8_11PyTypeErrorNtNtBa_11type_object10PyTypeInfo15type_object_raw0Ba_, symObjAddr: 0x12B4, symBinAddr: 0x1F690, symSize: 0x4C }
  - { offset: 0x6301D, size: 0x8, addend: 0x0, symName: __RNvXs3e_NtCs7Qj1RmEtpUo_4pyo310exceptionsNtB6_11PyTypeErrorNtNtB8_11type_object10PyTypeInfo15type_object_rawB8_, symObjAddr: 0x4BD4, symBinAddr: 0x206CC, symSize: 0x24 }
  - { offset: 0x63062, size: 0x8, addend: 0x0, symName: __RNCNvXs41_NtCs7Qj1RmEtpUo_4pyo310exceptionsNtB8_12PyValueErrorNtNtBa_11type_object10PyTypeInfo15type_object_raw0Ba_, symObjAddr: 0x134C, symBinAddr: 0x1F6DC, symSize: 0x4C }
  - { offset: 0x630AF, size: 0x8, addend: 0x0, symName: __RNvXs41_NtCs7Qj1RmEtpUo_4pyo310exceptionsNtB6_12PyValueErrorNtNtB8_11type_object10PyTypeInfo15type_object_rawB8_, symObjAddr: 0x4C1C, symBinAddr: 0x206F0, symSize: 0x24 }
  - { offset: 0x630F4, size: 0x8, addend: 0x0, symName: __RNCNvXs4_NtCs7Qj1RmEtpUo_4pyo310exceptionsNtB7_15PyBaseExceptionNtNtB9_11type_object10PyTypeInfo15type_object_raw0B9_, symObjAddr: 0x147C, symBinAddr: 0x1F728, symSize: 0x4C }
  - { offset: 0x63141, size: 0x8, addend: 0x0, symName: __RNvXs4_NtCs7Qj1RmEtpUo_4pyo310exceptionsNtB5_15PyBaseExceptionNtNtB7_11type_object10PyTypeInfo15type_object_rawB7_, symObjAddr: 0x4CAC, symBinAddr: 0x20714, symSize: 0x24 }
  - { offset: 0x6317B, size: 0x8, addend: 0x0, symName: __RNvXs4_NtCs7Qj1RmEtpUo_4pyo310exceptionsNtB5_15PyBaseExceptionNtNtB7_11type_object10PyTypeInfo16is_type_of_boundB7_, symObjAddr: 0x4CD0, symBinAddr: 0x20738, symSize: 0x30 }
  - { offset: 0x631B4, size: 0x8, addend: 0x0, symName: __RNCNvXsY_NtCs7Qj1RmEtpUo_4pyo310exceptionsNtB7_16PyAttributeErrorNtNtB9_11type_object10PyTypeInfo15type_object_raw0B9_, symObjAddr: 0x16DC, symBinAddr: 0x1F774, symSize: 0x4C }
  - { offset: 0x63201, size: 0x8, addend: 0x0, symName: __RNvXsY_NtCs7Qj1RmEtpUo_4pyo310exceptionsNtB5_16PyAttributeErrorNtNtB7_11type_object10PyTypeInfo15type_object_rawB7_, symObjAddr: 0x5234, symBinAddr: 0x20854, symSize: 0x24 }
  - { offset: 0x63261, size: 0x8, addend: 0x0, symName: __RNCNvNtNtCs7Qj1RmEtpUo_4pyo35impl_9pymethods11__call_clear0B7_, symObjAddr: 0x1008, symBinAddr: 0x1F4C4, symSize: 0xE8 }
  - { offset: 0x63461, size: 0x8, addend: 0x0, symName: __RNvNtNtCs7Qj1RmEtpUo_4pyo35impl_9pymethods11__call_clear, symObjAddr: 0x2838, symBinAddr: 0x20080, symSize: 0x48 }
  - { offset: 0x634AD, size: 0x8, addend: 0x0, symName: __RNvNtNtCs7Qj1RmEtpUo_4pyo35impl_9pymethods16call_super_clear, symObjAddr: 0x2880, symBinAddr: 0x200C8, symSize: 0x228 }
  - { offset: 0x63660, size: 0x8, addend: 0x0, symName: __RNvNvXNtCs7Qj1RmEtpUo_4pyo312pyclass_initINtB4_23PyNativeTypeInitializerpEINtB4_12PyObjectInitpE15into_new_object5inner, symObjAddr: 0x2D2C, symBinAddr: 0x202F0, symSize: 0x124 }
  - { offset: 0x63734, size: 0x8, addend: 0x0, symName: __RNvXNtCs7Qj1RmEtpUo_4pyo311type_objectNtNtB4_10exceptions15PyBaseExceptionNtB2_11PyTypeCheck10type_checkB4_, symObjAddr: 0x46EC, symBinAddr: 0x20598, symSize: 0x24 }
  - { offset: 0x63769, size: 0x8, addend: 0x0, symName: __RNvXNtCs7Qj1RmEtpUo_4pyo311type_objectNtNtNtB4_5types6string8PyStringNtB2_11PyTypeCheck10type_checkB4_, symObjAddr: 0x477C, symBinAddr: 0x205BC, symSize: 0x24 }
  - { offset: 0x637A4, size: 0x8, addend: 0x0, symName: __RNvYNtNtCs7Qj1RmEtpUo_4pyo310exceptions11PyTypeErrorNtNtB6_11type_object10PyTypeInfo17type_object_boundB6_, symObjAddr: 0x5574, symBinAddr: 0x208F8, symSize: 0x30 }
  - { offset: 0x637E4, size: 0x8, addend: 0x0, symName: __RNvYNtNtCs7Qj1RmEtpUo_4pyo310exceptions12PyValueErrorNtNtB6_11type_object10PyTypeInfo17type_object_boundB6_, symObjAddr: 0x55A4, symBinAddr: 0x20928, symSize: 0x30 }
  - { offset: 0x63824, size: 0x8, addend: 0x0, symName: __RNvYNtNtCs7Qj1RmEtpUo_4pyo310exceptions13PyImportErrorNtNtB6_11type_object10PyTypeInfo17type_object_boundB6_, symObjAddr: 0x55D4, symBinAddr: 0x20958, symSize: 0x30 }
  - { offset: 0x63864, size: 0x8, addend: 0x0, symName: __RNvYNtNtCs7Qj1RmEtpUo_4pyo310exceptions14PyRuntimeErrorNtNtB6_11type_object10PyTypeInfo17type_object_boundB6_, symObjAddr: 0x5604, symBinAddr: 0x20988, symSize: 0x30 }
  - { offset: 0x638A4, size: 0x8, addend: 0x0, symName: __RNvYNtNtCs7Qj1RmEtpUo_4pyo310exceptions15PyBaseExceptionNtNtB6_11type_object10PyTypeInfo17type_object_boundB6_, symObjAddr: 0x5664, symBinAddr: 0x209B8, symSize: 0x30 }
  - { offset: 0x638E4, size: 0x8, addend: 0x0, symName: __RNvYNtNtCs7Qj1RmEtpUo_4pyo310exceptions15PyOverflowErrorNtNtB6_11type_object10PyTypeInfo17type_object_boundB6_, symObjAddr: 0x5694, symBinAddr: 0x209E8, symSize: 0x30 }
  - { offset: 0x63924, size: 0x8, addend: 0x0, symName: __RNvYNtNtCs7Qj1RmEtpUo_4pyo310exceptions16PyAttributeErrorNtNtB6_11type_object10PyTypeInfo17type_object_boundB6_, symObjAddr: 0x56C4, symBinAddr: 0x20A18, symSize: 0x30 }
  - { offset: 0x63964, size: 0x8, addend: 0x0, symName: __RNvYNtNtCs7Qj1RmEtpUo_4pyo35panic14PanicExceptionNtNtB6_11type_object10PyTypeInfo17type_object_boundB6_, symObjAddr: 0x5954, symBinAddr: 0x20A48, symSize: 0x30 }
  - { offset: 0x6470F, size: 0x8, addend: 0x0, symName: __RNvXsK_NtCs7dfkhshTrE4_4core3fmtNtB5_5ErrorNtB5_5Debug3fmtCs7Qj1RmEtpUo_4pyo3, symObjAddr: 0x51F4, symBinAddr: 0x20814, symSize: 0x40 }
  - { offset: 0x64C85, size: 0x8, addend: 0x0, symName: __RNvXs1_NtNtNtCs7dfkhshTrE4_4core5array4iter10iter_innerINtB5_15PolymorphicIterAINtNtNtBb_3mem12maybe_uninit11MaybeUninitINtNtCs7Qj1RmEtpUo_4pyo38instance2PyNtNtNtB1Z_5types3any5PyAnyEEj1_ENtNtNtBb_3ops4drop4Drop4dropB1Z_, symObjAddr: 0x49B8, symBinAddr: 0x20630, symSize: 0x30 }
  - { offset: 0x64EAF, size: 0x8, addend: 0x0, symName: __RNvXs1_NtCs7dfkhshTrE4_4core7convertReINtB5_4IntoINtNtCs2iVXuAemrgm_5alloc6borrow3CoweEE4intoCs7Qj1RmEtpUo_4pyo3, symObjAddr: 0x4954, symBinAddr: 0x205E0, symSize: 0x28 }
  - { offset: 0x64EEF, size: 0x8, addend: 0x0, symName: __RNvXs1_NtCs7dfkhshTrE4_4core7convertReINtB5_4IntoNtNtCs2iVXuAemrgm_5alloc6string6StringE4intoCs7Qj1RmEtpUo_4pyo3, symObjAddr: 0x497C, symBinAddr: 0x20608, symSize: 0x28 }
  - { offset: 0x64F35, size: 0x8, addend: 0x0, symName: __RNvXs4_NtCs7dfkhshTrE4_4core7convertjINtB5_7TryIntoiE8try_intoCs7Qj1RmEtpUo_4pyo3, symObjAddr: 0x4D00, symBinAddr: 0x20768, symSize: 0x20 }
  - { offset: 0x64F75, size: 0x8, addend: 0x0, symName: __RNvXs4_NtCs7dfkhshTrE4_4core7convertyINtB5_7TryIntomE8try_intoCs7Qj1RmEtpUo_4pyo3, symObjAddr: 0x4D20, symBinAddr: 0x20788, symSize: 0x20 }
  - { offset: 0x64FD5, size: 0x8, addend: 0x0, symName: __RNCINvNvNtNtNtNtCs7dfkhshTrE4_4core4iter6traits8iterator8Iterator8find_map5checkTRNtNtNtCs7Qj1RmEtpUo_4pyo35impl_16extract_argument31KeywordOnlyParameterDescriptionRINtNtBe_6option6OptionINtNtB1o_8instance8BorrowedNtNtNtB1o_5types3any5PyAnyEEEReQNCNvMs3_B1k_NtB1k_19FunctionDescription34missing_required_keyword_arguments0E0B1o_, symObjAddr: 0xDA4, symBinAddr: 0x1F2E0, symSize: 0x7C }
  - { offset: 0x65058, size: 0x8, addend: 0x0, symName: __RNCINvNvNtNtNtNtCs7dfkhshTrE4_4core4iter6traits8iterator8Iterator8find_map5checkTRReRINtNtBe_6option6OptionINtNtCs7Qj1RmEtpUo_4pyo38instance8BorrowedNtNtNtB1M_5types3any5PyAnyEEEB1i_QNCNvMs3_NtNtB1M_5impl_16extract_argumentNtB33_19FunctionDescription37missing_required_positional_arguments0E0B1M_, symObjAddr: 0xE20, symBinAddr: 0x1F35C, symSize: 0x7C }
  - { offset: 0x6511B, size: 0x8, addend: 0x0, symName: __RNvXsF_NtNtCs7dfkhshTrE4_4core4iter5rangejNtB5_4Step17forward_uncheckedCs7Qj1RmEtpUo_4pyo3, symObjAddr: 0x51A4, symBinAddr: 0x207C4, symSize: 0x50 }
  - { offset: 0x6588E, size: 0x8, addend: 0x0, symName: __RINvMs0_NtCs7Qj1RmEtpUo_4pyo35panicNtB6_14PanicException7new_errTNtNtCs2iVXuAemrgm_5alloc6string6StringEEB8_, symObjAddr: 0x0, symBinAddr: 0x1EE48, symSize: 0x34 }
  - { offset: 0x658CD, size: 0x8, addend: 0x0, symName: __RINvMs0_NtCs7Qj1RmEtpUo_4pyo35panicNtB6_14PanicException7new_errTReEEB8_, symObjAddr: 0x34, symBinAddr: 0x1EE7C, symSize: 0x28 }
  - { offset: 0x65905, size: 0x8, addend: 0x0, symName: __RINvMs0_NtNtCs7Qj1RmEtpUo_4pyo33err9err_stateNtB6_10PyErrState4lazyINtNtBa_8instance2PyNtNtNtBa_5types3any5PyAnyEEBa_, symObjAddr: 0x5C, symBinAddr: 0x1EEA4, symSize: 0x9C }
  - { offset: 0x65969, size: 0x8, addend: 0x0, symName: __RINvMs1t_NtCs7Qj1RmEtpUo_4pyo310exceptionsNtB7_13PyImportError7new_errReEB9_, symObjAddr: 0x1B4, symBinAddr: 0x1EF40, symSize: 0x28 }
  - { offset: 0x65A5B, size: 0x8, addend: 0x0, symName: __RINvMs2_NtCs7dfkhshTrE4_4core3fmtNtB6_9Arguments3newKj12_Kj2_ECs7Qj1RmEtpUo_4pyo3, symObjAddr: 0x1DC, symBinAddr: 0x1EF68, symSize: 0x1C }
  - { offset: 0x65AF5, size: 0x8, addend: 0x0, symName: __RINvMs2_NtCs7dfkhshTrE4_4core3fmtNtB6_9Arguments3newKj19_Kj1_ECs7Qj1RmEtpUo_4pyo3, symObjAddr: 0x214, symBinAddr: 0x1EF84, symSize: 0x1C }
  - { offset: 0x65B41, size: 0x8, addend: 0x0, symName: __RINvMs2_NtCs7dfkhshTrE4_4core3fmtNtB6_9Arguments3newKj1e_Kj1_ECs7Qj1RmEtpUo_4pyo3, symObjAddr: 0x230, symBinAddr: 0x1EFA0, symSize: 0x1C }
  - { offset: 0x65BA7, size: 0x8, addend: 0x0, symName: __RINvMs2_NtCs7dfkhshTrE4_4core3fmtNtB6_9Arguments3newKj1f_Kj4_ECs7Qj1RmEtpUo_4pyo3, symObjAddr: 0x268, symBinAddr: 0x1EFBC, symSize: 0x1C }
  - { offset: 0x65C27, size: 0x8, addend: 0x0, symName: __RINvMs2_NtCs7dfkhshTrE4_4core3fmtNtB6_9Arguments3newKj29_Kj2_ECs7Qj1RmEtpUo_4pyo3, symObjAddr: 0x2BC, symBinAddr: 0x1EFD8, symSize: 0x1C }
  - { offset: 0x65C73, size: 0x8, addend: 0x0, symName: __RINvMs2_NtCs7dfkhshTrE4_4core3fmtNtB6_9Arguments3newKj2b_Kj2_ECs7Qj1RmEtpUo_4pyo3, symObjAddr: 0x2D8, symBinAddr: 0x1EFF4, symSize: 0x1C }
  - { offset: 0x65CD9, size: 0x8, addend: 0x0, symName: __RINvMs2_NtCs7dfkhshTrE4_4core3fmtNtB6_9Arguments3newKj2e_Kj1_ECs7Qj1RmEtpUo_4pyo3, symObjAddr: 0x310, symBinAddr: 0x1F010, symSize: 0x1C }
  - { offset: 0x65D0B, size: 0x8, addend: 0x0, symName: __RINvMs2_NtCs7dfkhshTrE4_4core3fmtNtB6_9Arguments3newKj2e_Kj2_ECs7Qj1RmEtpUo_4pyo3, symObjAddr: 0x32C, symBinAddr: 0x1F02C, symSize: 0x1C }
  - { offset: 0x65D57, size: 0x8, addend: 0x0, symName: __RINvMs2_NtCs7dfkhshTrE4_4core3fmtNtB6_9Arguments3newKj31_Kj4_ECs7Qj1RmEtpUo_4pyo3, symObjAddr: 0x348, symBinAddr: 0x1F048, symSize: 0x1C }
  - { offset: 0x65DA3, size: 0x8, addend: 0x0, symName: __RINvMs2_NtCs7dfkhshTrE4_4core3fmtNtB6_9Arguments3newKj34_Kj1_ECs7Qj1RmEtpUo_4pyo3, symObjAddr: 0x364, symBinAddr: 0x1F064, symSize: 0x1C }
  - { offset: 0x65E23, size: 0x8, addend: 0x0, symName: __RINvMs2_NtCs7dfkhshTrE4_4core3fmtNtB6_9Arguments3newKj3b_Kj1_ECs7Qj1RmEtpUo_4pyo3, symObjAddr: 0x3B8, symBinAddr: 0x1F080, symSize: 0x1C }
  - { offset: 0x65E89, size: 0x8, addend: 0x0, symName: __RINvMs2_NtCs7dfkhshTrE4_4core3fmtNtB6_9Arguments3newKj3c_Kj5_ECs7Qj1RmEtpUo_4pyo3, symObjAddr: 0x3D4, symBinAddr: 0x1F09C, symSize: 0x1C }
  - { offset: 0x65EEF, size: 0x8, addend: 0x0, symName: __RINvMs2_NtCs7dfkhshTrE4_4core3fmtNtB6_9Arguments3newKj44_Kj1_ECs7Qj1RmEtpUo_4pyo3, symObjAddr: 0x40C, symBinAddr: 0x1F0B8, symSize: 0x1C }
  - { offset: 0x65F3B, size: 0x8, addend: 0x0, symName: __RINvMs2_NtCs7dfkhshTrE4_4core3fmtNtB6_9Arguments3newKj5_Kj1_ECs7Qj1RmEtpUo_4pyo3, symObjAddr: 0x428, symBinAddr: 0x1F0D4, symSize: 0x1C }
  - { offset: 0x65F6D, size: 0x8, addend: 0x0, symName: __RINvMs2_NtCs7dfkhshTrE4_4core3fmtNtB6_9Arguments3newKj5_Kj2_ECs7Qj1RmEtpUo_4pyo3, symObjAddr: 0x444, symBinAddr: 0x1F0F0, symSize: 0x1C }
  - { offset: 0x65FB9, size: 0x8, addend: 0x0, symName: __RINvMs2_NtCs7dfkhshTrE4_4core3fmtNtB6_9Arguments3newKj8_Kj2_ECs7Qj1RmEtpUo_4pyo3, symObjAddr: 0x460, symBinAddr: 0x1F10C, symSize: 0x1C }
  - { offset: 0x66005, size: 0x8, addend: 0x0, symName: __RINvMs2_NtCs7dfkhshTrE4_4core3fmtNtB6_9Arguments3newKja_Kj3_ECs7Qj1RmEtpUo_4pyo3, symObjAddr: 0x47C, symBinAddr: 0x1F128, symSize: 0x1C }
  - { offset: 0x66051, size: 0x8, addend: 0x0, symName: __RINvMs2g_NtCs7Qj1RmEtpUo_4pyo310exceptionsNtB7_15PyOverflowError7new_errNtNtCs2iVXuAemrgm_5alloc6string6StringEB9_, symObjAddr: 0x4B4, symBinAddr: 0x1F144, symSize: 0x34 }
  - { offset: 0x6607D, size: 0x8, addend: 0x0, symName: __RINvMs2n_NtCs7Qj1RmEtpUo_4pyo310exceptionsNtB7_14PyRuntimeError7new_errNtNtCs2iVXuAemrgm_5alloc6string6StringEB9_, symObjAddr: 0x510, symBinAddr: 0x1F178, symSize: 0x34 }
  - { offset: 0x660A9, size: 0x8, addend: 0x0, symName: __RINvMs3X_NtCs7Qj1RmEtpUo_4pyo310exceptionsNtB7_12PyValueError7new_errNtNtNtCs2iVXuAemrgm_5alloc3ffi5c_str8NulErrorEB9_, symObjAddr: 0x594, symBinAddr: 0x1F1AC, symSize: 0x34 }
  - { offset: 0x660D5, size: 0x8, addend: 0x0, symName: __RINvMs3X_NtCs7Qj1RmEtpUo_4pyo310exceptionsNtB7_12PyValueError7new_errReEB9_, symObjAddr: 0x660, symBinAddr: 0x1F1E0, symSize: 0x28 }
  - { offset: 0x66100, size: 0x8, addend: 0x0, symName: __RINvMs3a_NtCs7Qj1RmEtpUo_4pyo310exceptionsNtB7_11PyTypeError7new_errNtNtB9_3err24PyDowncastErrorArgumentsEB9_, symObjAddr: 0x688, symBinAddr: 0x1F208, symSize: 0x34 }
  - { offset: 0x6612C, size: 0x8, addend: 0x0, symName: __RINvMs3a_NtCs7Qj1RmEtpUo_4pyo310exceptionsNtB7_11PyTypeError7new_errNtNtCs2iVXuAemrgm_5alloc6string6StringEB9_, symObjAddr: 0x6BC, symBinAddr: 0x1F23C, symSize: 0x34 }
  - { offset: 0x66207, size: 0x8, addend: 0x0, symName: __RNvMNtCs7Qj1RmEtpUo_4pyo35panicNtB2_14PanicException18from_panic_payload, symObjAddr: 0x18D0, symBinAddr: 0x6AE38, symSize: 0x144 }
  - { offset: 0x66260, size: 0x8, addend: 0x0, symName: __RNvMNtNtCs7Qj1RmEtpUo_4pyo33err9err_stateNtB2_20PyErrStateNormalized10ptraceback, symObjAddr: 0x1A14, symBinAddr: 0x1F7C0, symSize: 0x30 }
  - { offset: 0x6629B, size: 0x8, addend: 0x0, symName: __RNvMNtNtCs7Qj1RmEtpUo_4pyo33err9err_stateNtB2_20PyErrStateNormalized4take, symObjAddr: 0x1A44, symBinAddr: 0x1F7F0, symSize: 0x24 }
  - { offset: 0x662C8, size: 0x8, addend: 0x0, symName: __RNvMNtNtCs7Qj1RmEtpUo_4pyo33err9err_stateNtB2_20PyErrStateNormalized5ptype, symObjAddr: 0x1A68, symBinAddr: 0x1F814, symSize: 0x2C }
  - { offset: 0x66303, size: 0x8, addend: 0x0, symName: __RNvMNtNtCs7Qj1RmEtpUo_4pyo33err9err_stateNtB2_20PyErrStateNormalized9clone_ref, symObjAddr: 0x1A94, symBinAddr: 0x1F840, symSize: 0x24 }
  - { offset: 0x6633E, size: 0x8, addend: 0x0, symName: __RNvMNtNtCs7Qj1RmEtpUo_4pyo35types10typeobjectNtB2_6PyType22from_borrowed_type_ptrB6_, symObjAddr: 0x1AB8, symBinAddr: 0x1F864, symSize: 0x34 }
  - { offset: 0x66379, size: 0x8, addend: 0x0, symName: __RNvMNtNtCs7Qj1RmEtpUo_4pyo35types6stringNtB2_8PyString12intern_bound, symObjAddr: 0x1B84, symBinAddr: 0x1F898, symSize: 0x8C }
  - { offset: 0x66418, size: 0x8, addend: 0x0, symName: __RNvMNtNtCs7Qj1RmEtpUo_4pyo35types6stringNtB2_8PyString9new_bound, symObjAddr: 0x1CC4, symBinAddr: 0x1F924, symSize: 0x68 }
  - { offset: 0x6648D, size: 0x8, addend: 0x0, symName: __RNvMs0_NtNtCs7Qj1RmEtpUo_4pyo33err9err_stateNtB5_10PyErrState10normalized, symObjAddr: 0x1E88, symBinAddr: 0x1F98C, symSize: 0x3C }
  - { offset: 0x664AF, size: 0x8, addend: 0x0, symName: __RNvMs0_NtNtCs7Qj1RmEtpUo_4pyo33err9err_stateNtB5_10PyErrState7restore, symObjAddr: 0x1EC4, symBinAddr: 0x1F9C8, symSize: 0x84 }
  - { offset: 0x66525, size: 0x8, addend: 0x0, symName: __RNvMs0_NtNtCs7Qj1RmEtpUo_4pyo33err9err_stateNtB5_10PyErrState9normalize, symObjAddr: 0x1F48, symBinAddr: 0x1FA4C, symSize: 0x8C }
  - { offset: 0x6659B, size: 0x8, addend: 0x0, symName: __RNvMs1_NtCs7Qj1RmEtpUo_4pyo35panicNtB5_14PanicException15type_object_raw, symObjAddr: 0x1FD4, symBinAddr: 0x1FAD8, symSize: 0x2C }
  - { offset: 0x665CA, size: 0x8, addend: 0x0, symName: __RNvMs2_NtCs7dfkhshTrE4_4core3fmtNtB5_9Arguments17from_str_nonconstCs7Qj1RmEtpUo_4pyo3, symObjAddr: 0x2000, symBinAddr: 0x1FB04, symSize: 0x28 }
  - { offset: 0x6668F, size: 0x8, addend: 0x0, symName: __RNvMs2_NtNtCs7Qj1RmEtpUo_4pyo35impl_9pymethodsNtB5_11PyMethodDef13as_method_def, symObjAddr: 0x2028, symBinAddr: 0x1FB2C, symSize: 0xB0 }
  - { offset: 0x66755, size: 0x8, addend: 0x0, symName: __RNvMs4_NtCs7dfkhshTrE4_4core3fmtNtB5_9Arguments23as_statically_known_strCs7Qj1RmEtpUo_4pyo3, symObjAddr: 0x21EC, symBinAddr: 0x1FBDC, symSize: 0x104 }
  - { offset: 0x6682F, size: 0x8, addend: 0x0, symName: __RNvMs4_NtCs7dfkhshTrE4_4core3fmtNtB5_9Arguments8from_strCs7Qj1RmEtpUo_4pyo3, symObjAddr: 0x22F0, symBinAddr: 0x1FCE0, symSize: 0x20 }
  - { offset: 0x669A2, size: 0x8, addend: 0x0, symName: __RNvMs6_NtNtNtCs7dfkhshTrE4_4core5array4iter10iter_innerINtB5_15PolymorphicIterSINtNtNtBb_3mem12maybe_uninit11MaybeUninitINtNtCs7Qj1RmEtpUo_4pyo38instance2PyNtNtNtB1Z_5types3any5PyAnyEEE4nextB1Z_, symObjAddr: 0x2390, symBinAddr: 0x1FD00, symSize: 0x170 }
  - { offset: 0x66BD7, size: 0x8, addend: 0x0, symName: __RNvMsa_NtCs7dfkhshTrE4_4core3fmtNtB5_9Formatter9write_fmtCs7Qj1RmEtpUo_4pyo3, symObjAddr: 0x2500, symBinAddr: 0x1FE70, symSize: 0xA4 }
  - { offset: 0x66C34, size: 0x8, addend: 0x0, symName: __RNvMsj_NtNtCs7Qj1RmEtpUo_4pyo35impl_9pymethodsINtB5_8BoundRefNtNtNtB9_5types3any5PyAnyE12ref_from_ptr, symObjAddr: 0x25A4, symBinAddr: 0x1FF14, symSize: 0x24 }
  - { offset: 0x66F36, size: 0x8, addend: 0x0, symName: __RNvXsg_NtNtCs7Qj1RmEtpUo_4pyo33err5implsNtNtNtCs2iVXuAemrgm_5alloc3ffi5c_str8NulErrorNtNtB7_9err_state14PyErrArguments9arguments, symObjAddr: 0x3B68, symBinAddr: 0x22BD8, symSize: 0x6C }
  - { offset: 0x67A1D, size: 0x8, addend: 0x0, symName: __RNvXs3_NtNtCs7Qj1RmEtpUo_4pyo36pycell5impl_NtB5_13BorrowCheckerNtB5_20PyClassBorrowChecker10try_borrow, symObjAddr: 0x3670, symBinAddr: 0x229B0, symSize: 0x78 }
  - { offset: 0x67A66, size: 0x8, addend: 0x0, symName: __RNvXs3_NtNtCs7Qj1RmEtpUo_4pyo36pycell5impl_NtB5_13BorrowCheckerNtB5_20PyClassBorrowChecker14release_borrow, symObjAddr: 0x36E8, symBinAddr: 0x22A28, symSize: 0x3C }
  - { offset: 0x67AB1, size: 0x8, addend: 0x0, symName: __RNvXsk_NtNtCs7Qj1RmEtpUo_4pyo36pycell5impl_NtB5_10BorrowFlagNtNtCs7dfkhshTrE4_4core3cmp9PartialEq2eqB9_, symObjAddr: 0x3BEC, symBinAddr: 0x22C5C, symSize: 0x2C }
  - { offset: 0x68BB2, size: 0x8, addend: 0x0, symName: __RINvNtNtCs7dfkhshTrE4_4core4sync6atomic11atomic_loadONtNtNtNtNtNtCskXqYSXpV4rx_3std3sys3pal4unix4sync5mutex5MutexECs7Qj1RmEtpUo_4pyo3, symObjAddr: 0xBB0, symBinAddr: 0x21280, symSize: 0xF8 }
  - { offset: 0x68BF8, size: 0x8, addend: 0x0, symName: __RINvNtNtCs7dfkhshTrE4_4core4sync6atomic11atomic_loadOuECs7Qj1RmEtpUo_4pyo3, symObjAddr: 0xCA8, symBinAddr: 0x21378, symSize: 0xF8 }
  - { offset: 0x68C3E, size: 0x8, addend: 0x0, symName: __RINvNtNtCs7dfkhshTrE4_4core4sync6atomic11atomic_loadjECs7Qj1RmEtpUo_4pyo3, symObjAddr: 0xDA0, symBinAddr: 0x21470, symSize: 0xF8 }
  - { offset: 0x68C84, size: 0x8, addend: 0x0, symName: __RINvNtNtCs7dfkhshTrE4_4core4sync6atomic23atomic_compare_exchangeONtNtNtNtNtNtCskXqYSXpV4rx_3std3sys3pal4unix4sync5mutex5MutexECs7Qj1RmEtpUo_4pyo3, symObjAddr: 0xE98, symBinAddr: 0x21568, symSize: 0x4B4 }
  - { offset: 0x68D1F, size: 0x8, addend: 0x0, symName: __RINvNtNtCs7dfkhshTrE4_4core4sync6atomic23atomic_compare_exchangexECs7Qj1RmEtpUo_4pyo3, symObjAddr: 0x134C, symBinAddr: 0x21A1C, symSize: 0x4B4 }
  - { offset: 0x68E54, size: 0x8, addend: 0x0, symName: __RNvMNtCs7dfkhshTrE4_4core3stre3lenCs7Qj1RmEtpUo_4pyo3, symObjAddr: 0x206C, symBinAddr: 0x22170, symSize: 0x1C }
  - { offset: 0x69ABD, size: 0x8, addend: 0x0, symName: __RINvMs2_NtCs7dfkhshTrE4_4core3anyDNtB6_3AnyEL_12downcast_refNtNtCs2iVXuAemrgm_5alloc6string6StringECs7Qj1RmEtpUo_4pyo3, symObjAddr: 0x21C, symBinAddr: 0x20AB0, symSize: 0xA4 }
  - { offset: 0x69BAE, size: 0x8, addend: 0x0, symName: __RINvMs2_NtCs7dfkhshTrE4_4core3anyDNtB6_3AnyEL_12downcast_refReECs7Qj1RmEtpUo_4pyo3, symObjAddr: 0x2C0, symBinAddr: 0x20B54, symSize: 0xA4 }
  - { offset: 0x69D19, size: 0x8, addend: 0x0, symName: __RINvMs3_NtCs7dfkhshTrE4_4core3anyDNtB6_3AnyNtNtB8_6marker4SendEL_12downcast_refNtNtCs2iVXuAemrgm_5alloc6string6StringECs7Qj1RmEtpUo_4pyo3, symObjAddr: 0x364, symBinAddr: 0x20BF8, symSize: 0x2C }
  - { offset: 0x69D50, size: 0x8, addend: 0x0, symName: __RINvMs3_NtCs7dfkhshTrE4_4core3anyDNtB6_3AnyNtNtB8_6marker4SendEL_12downcast_refReECs7Qj1RmEtpUo_4pyo3, symObjAddr: 0x390, symBinAddr: 0x20C24, symSize: 0x2C }
  - { offset: 0x69E6E, size: 0x8, addend: 0x0, symName: __RINvXs2J_NtNtCs7dfkhshTrE4_4core5slice4iterINtB7_4IterNtNtNtCskXqYSXpV4rx_3std6thread2id8ThreadIdENtNtNtNtBb_4iter6traits8iterator8Iterator3anyNCNvXsf_NtB9_3cmpBQ_NtB2p_13SliceContains14slice_contains0ECs7Qj1RmEtpUo_4pyo3, symObjAddr: 0x1800, symBinAddr: 0x21ED0, symSize: 0xE4 }
  - { offset: 0x69F49, size: 0x8, addend: 0x0, symName: __RNvXs2J_NtNtCs7dfkhshTrE4_4core5slice4iterINtB6_4IterINtNtBa_6option6OptionINtNtCs7Qj1RmEtpUo_4pyo38instance8BorrowedNtNtNtB1g_5types3any5PyAnyEEENtNtNtNtBa_4iter6traits8iterator8Iterator24___iterator_get_uncheckedB1g_, symObjAddr: 0x2E6C, symBinAddr: 0x224B8, symSize: 0x20 }
  - { offset: 0x69FA4, size: 0x8, addend: 0x0, symName: __RNvXs2J_NtNtCs7dfkhshTrE4_4core5slice4iterINtB6_4IterINtNtBa_6option6OptionINtNtCs7Qj1RmEtpUo_4pyo38instance8BorrowedNtNtNtB1g_5types3any5PyAnyEEENtNtNtNtBa_4iter6traits8iterator8Iterator4nextB1g_, symObjAddr: 0x2E8C, symBinAddr: 0x224D8, symSize: 0x84 }
  - { offset: 0x6A05A, size: 0x8, addend: 0x0, symName: __RNvXs2J_NtNtCs7dfkhshTrE4_4core5slice4iterINtB6_4IterINtNtBa_6option6OptionINtNtCs7Qj1RmEtpUo_4pyo38instance8BorrowedNtNtNtB1g_5types3any5PyAnyEEENtNtNtNtBa_4iter6traits8iterator8Iterator9size_hintB1g_, symObjAddr: 0x2F10, symBinAddr: 0x2255C, symSize: 0xB4 }
  - { offset: 0x6A187, size: 0x8, addend: 0x0, symName: __RNvXs2J_NtNtCs7dfkhshTrE4_4core5slice4iterINtB6_4IterNtNtCsgh2hkQkDkI2_8pyo3_ffi6object11PyType_SlotENtNtNtNtBa_4iter6traits8iterator8Iterator4nextCs7Qj1RmEtpUo_4pyo3, symObjAddr: 0x30A0, symBinAddr: 0x22610, symSize: 0x84 }
  - { offset: 0x6A23D, size: 0x8, addend: 0x0, symName: __RNvXs2J_NtNtCs7dfkhshTrE4_4core5slice4iterINtB6_4IterNtNtNtCs7Qj1RmEtpUo_4pyo35impl_16extract_argument31KeywordOnlyParameterDescriptionENtNtNtNtBa_4iter6traits8iterator8Iterator24___iterator_get_uncheckedBV_, symObjAddr: 0x3124, symBinAddr: 0x22694, symSize: 0x28 }
  - { offset: 0x6A298, size: 0x8, addend: 0x0, symName: __RNvXs2J_NtNtCs7dfkhshTrE4_4core5slice4iterINtB6_4IterNtNtNtCs7Qj1RmEtpUo_4pyo35impl_16extract_argument31KeywordOnlyParameterDescriptionENtNtNtNtBa_4iter6traits8iterator8Iterator9size_hintBV_, symObjAddr: 0x314C, symBinAddr: 0x226BC, symSize: 0xB4 }
  - { offset: 0x6A3C5, size: 0x8, addend: 0x0, symName: __RNvXs2J_NtNtCs7dfkhshTrE4_4core5slice4iterINtB6_4IterNtNtNtCs7Qj1RmEtpUo_4pyo35impl_7pyclass23MaybeRuntimePyMethodDefENtNtNtNtBa_4iter6traits8iterator8Iterator4nextBV_, symObjAddr: 0x3200, symBinAddr: 0x22770, symSize: 0x84 }
  - { offset: 0x6A47B, size: 0x8, addend: 0x0, symName: __RNvXs2J_NtNtCs7dfkhshTrE4_4core5slice4iterINtB6_4IterReENtNtNtNtBa_4iter6traits8iterator8Iterator4nextCs7Qj1RmEtpUo_4pyo3, symObjAddr: 0x32A4, symBinAddr: 0x227F4, symSize: 0x84 }
  - { offset: 0x6A531, size: 0x8, addend: 0x0, symName: __RNvXs2J_NtNtCs7dfkhshTrE4_4core5slice4iterINtB6_4IterReENtNtNtNtBa_4iter6traits8iterator8Iterator9size_hintCs7Qj1RmEtpUo_4pyo3, symObjAddr: 0x3328, symBinAddr: 0x22878, symSize: 0xB4 }
  - { offset: 0x6A778, size: 0x8, addend: 0x0, symName: __RNvXs2R_NtNtCs7dfkhshTrE4_4core5slice4iterINtB6_7IterMutNtNtCsgh2hkQkDkI2_8pyo3_ffi6object11PyType_SlotENtNtNtNtBa_4iter6traits8iterator8Iterator4nextCs7Qj1RmEtpUo_4pyo3, symObjAddr: 0x33DC, symBinAddr: 0x2292C, symSize: 0x84 }
  - { offset: 0x6A924, size: 0x8, addend: 0x0, symName: __RNvNvXs0_NtNtCs7dfkhshTrE4_4core5slice5indexjINtB7_10SliceIndexSpE13get_unchecked18precondition_checkCs7Qj1RmEtpUo_4pyo3, symObjAddr: 0x2A54, symBinAddr: 0x22308, symSize: 0x60 }
  - { offset: 0x6A97D, size: 0x8, addend: 0x0, symName: __RNvNvXs0_NtNtCs7dfkhshTrE4_4core5slice5indexjINtB7_10SliceIndexSpE17get_unchecked_mut18precondition_checkCs7Qj1RmEtpUo_4pyo3, symObjAddr: 0x2AB4, symBinAddr: 0x22368, symSize: 0x60 }
  - { offset: 0x6AA10, size: 0x8, addend: 0x0, symName: __RNvNvXs1_NtNtCs7dfkhshTrE4_4core5slice5indexNtNtNtBb_3ops11index_range10IndexRangeINtB7_10SliceIndexSpE17get_unchecked_mut18precondition_checkCs7Qj1RmEtpUo_4pyo3, symObjAddr: 0x2B14, symBinAddr: 0x223C8, symSize: 0x60 }
  - { offset: 0x6AB17, size: 0x8, addend: 0x0, symName: __RNvYINtNtNtCs7dfkhshTrE4_4core5slice4iter4IterINtNtB9_6option6OptionINtNtCs7Qj1RmEtpUo_4pyo38instance8BorrowedNtNtNtB19_5types3any5PyAnyEEENtNtNtNtB9_4iter8adapters3zip27TrustedRandomAccessNoCoerce4sizeB19_, symObjAddr: 0x3C84, symBinAddr: 0x22C88, symSize: 0x2C }
  - { offset: 0x6AB4E, size: 0x8, addend: 0x0, symName: __RNvYINtNtNtCs7dfkhshTrE4_4core5slice4iter4IterNtNtNtCs7Qj1RmEtpUo_4pyo35impl_16extract_argument31KeywordOnlyParameterDescriptionENtNtNtNtB9_4iter8adapters3zip27TrustedRandomAccessNoCoerce4sizeBO_, symObjAddr: 0x3CDC, symBinAddr: 0x22CB4, symSize: 0x2C }
  - { offset: 0x6AC38, size: 0x8, addend: 0x0, symName: __RINvYINtNtNtCs7dfkhshTrE4_4core5slice4iter4IterNtNtNtCs7Qj1RmEtpUo_4pyo35impl_16extract_argument31KeywordOnlyParameterDescriptionENtNtNtNtBa_4iter6traits8iterator8Iterator3zipRSINtNtBa_6option6OptionINtNtBP_8instance8BorrowedNtNtNtBP_5types3any5PyAnyEEEBP_, symObjAddr: 0x18E4, symBinAddr: 0x21FB4, symSize: 0xC8 }
  - { offset: 0x6ACAE, size: 0x8, addend: 0x0, symName: __RNvYINtNtNtCs7dfkhshTrE4_4core5slice4iter4IterReENtNtNtNtB9_4iter6traits8iterator8Iterator4takeCs7Qj1RmEtpUo_4pyo3, symObjAddr: 0x3D08, symBinAddr: 0x22CE0, symSize: 0x2C }
  - { offset: 0x6AD09, size: 0x8, addend: 0x0, symName: __RNvYINtNtNtCs7dfkhshTrE4_4core5slice4iter4IterReENtNtNtNtB9_4iter6traits8iterator8Iterator9enumerateCs7Qj1RmEtpUo_4pyo3, symObjAddr: 0x3D34, symBinAddr: 0x22D0C, symSize: 0x28 }
  - { offset: 0x6AE23, size: 0x8, addend: 0x0, symName: __RNvXsj_NtNtNtCs7dfkhshTrE4_4core7convert3num18ptr_try_from_implsjINtB9_7TryFromyE8try_fromCs7Qj1RmEtpUo_4pyo3, symObjAddr: 0x3BD4, symBinAddr: 0x22C44, symSize: 0x18 }
  - { offset: 0x6AEA2, size: 0x8, addend: 0x0, symName: __RNvYNtNtNtCs7Qj1RmEtpUo_4pyo36pycell5impl_10BorrowFlagNtNtCs7dfkhshTrE4_4core3cmp9PartialEq2neB8_, symObjAddr: 0x3D88, symBinAddr: 0x22D34, symSize: 0x30 }
  - { offset: 0x6B4DD, size: 0x8, addend: 0x0, symName: __RINvNtCskXqYSXpV4rx_3std5panic12catch_unwindNCINvNtNtCs7Qj1RmEtpUo_4pyo35impl_10trampoline10trampolineNCNvNtBN_9pymethods11__call_clear0lE0INtNtCs7dfkhshTrE4_4core6result6ResultlNtNtBP_3err5PyErrEEBP_, symObjAddr: 0x6A4, symBinAddr: 0x20D74, symSize: 0xE4 }
  - { offset: 0x6B636, size: 0x8, addend: 0x0, symName: __RINvNtCskXqYSXpV4rx_3std5panic12catch_unwindNCINvNtNtCs7Qj1RmEtpUo_4pyo35impl_10trampoline10trampolineNCNvNtNtBP_7pyclass18create_type_object22no_constructor_defined0ONtNtCsgh2hkQkDkI2_8pyo3_ffi6object8PyObjectE0INtNtCs7dfkhshTrE4_4core6result6ResultB2E_NtNtBP_3err5PyErrEEBP_, symObjAddr: 0x788, symBinAddr: 0x20E58, symSize: 0xC0 }
  - { offset: 0x6B75B, size: 0x8, addend: 0x0, symName: __RINvNtCskXqYSXpV4rx_3std5panic12catch_unwindNCINvNtNtCs7Qj1RmEtpUo_4pyo35impl_10trampoline10trampolineNCNvNvMs0_NtNtBP_7pyclass18create_type_objectNtB1M_13GetSetDefType21create_py_get_set_def13getset_getter0ONtNtCsgh2hkQkDkI2_8pyo3_ffi6object8PyObjectE0INtNtCs7dfkhshTrE4_4core6result6ResultB3j_NtNtBP_3err5PyErrEEBP_, symObjAddr: 0x848, symBinAddr: 0x20F18, symSize: 0xD0 }
  - { offset: 0x6B880, size: 0x8, addend: 0x0, symName: __RINvNtCskXqYSXpV4rx_3std5panic12catch_unwindNCINvNtNtCs7Qj1RmEtpUo_4pyo35impl_10trampoline10trampolineNCNvNvMs0_NtNtBP_7pyclass18create_type_objectNtB1M_13GetSetDefType21create_py_get_set_def13getset_setter0lE0INtNtCs7dfkhshTrE4_4core6result6ResultlNtNtBP_3err5PyErrEEBP_, symObjAddr: 0x918, symBinAddr: 0x20FE8, symSize: 0xE4 }
  - { offset: 0x6B9D9, size: 0x8, addend: 0x0, symName: __RINvNtCskXqYSXpV4rx_3std5panic12catch_unwindNCINvNtNtCs7Qj1RmEtpUo_4pyo35impl_10trampoline10trampolineNCNvNvMs0_NtNtBP_7pyclass18create_type_objectNtB1M_13GetSetDefType21create_py_get_set_def6getter0ONtNtCsgh2hkQkDkI2_8pyo3_ffi6object8PyObjectE0INtNtCs7dfkhshTrE4_4core6result6ResultB3b_NtNtBP_3err5PyErrEEBP_, symObjAddr: 0x9FC, symBinAddr: 0x210CC, symSize: 0xD0 }
  - { offset: 0x6BAFE, size: 0x8, addend: 0x0, symName: __RINvNtCskXqYSXpV4rx_3std5panic12catch_unwindNCINvNtNtCs7Qj1RmEtpUo_4pyo35impl_10trampoline10trampolineNCNvNvMs0_NtNtBP_7pyclass18create_type_objectNtB1M_13GetSetDefType21create_py_get_set_def6setter0lE0INtNtCs7dfkhshTrE4_4core6result6ResultlNtNtBP_3err5PyErrEEBP_, symObjAddr: 0xACC, symBinAddr: 0x2119C, symSize: 0xE4 }
  - { offset: 0x6BCD3, size: 0x8, addend: 0x0, symName: __RNCNvMNtNtNtNtCskXqYSXpV4rx_3std3sys4sync5mutex7pthreadNtB4_5Mutex3get0Cs7Qj1RmEtpUo_4pyo3, symObjAddr: 0x1C94, symBinAddr: 0x2207C, symSize: 0xF4 }
  - { offset: 0x6BE6D, size: 0x8, addend: 0x0, symName: __RNvXsB_NtCs2iVXuAemrgm_5alloc6stringNtNtNtB7_3ffi5c_str8NulErrorNtB5_8ToString9to_stringCs7Qj1RmEtpUo_4pyo3, symObjAddr: 0x380C, symBinAddr: 0x22A64, symSize: 0x24 }
  - { offset: 0x6BEAA, size: 0x8, addend: 0x0, symName: __RNvXsC_NtCs2iVXuAemrgm_5alloc6stringNtNtNtB7_3ffi5c_str8NulErrorNtB5_12SpecToString14spec_to_stringCs7Qj1RmEtpUo_4pyo3, symObjAddr: 0x3924, symBinAddr: 0x22A88, symSize: 0xF4 }
  - { offset: 0x6C0F5, size: 0x8, addend: 0x0, symName: __RNvXs0_NtNtCs2iVXuAemrgm_5alloc3ffi5c_strNtB5_7CStringNtNtNtCs7dfkhshTrE4_4core3ops4drop4Drop4dropCs7Qj1RmEtpUo_4pyo3, symObjAddr: 0x2C24, symBinAddr: 0x22428, symSize: 0x70 }
  - { offset: 0x6C161, size: 0x8, addend: 0x0, symName: __RNvXs1_NtNtCs2iVXuAemrgm_5alloc3ffi5c_strNtB5_7CStringNtNtNtCs7dfkhshTrE4_4core3ops5deref5Deref5derefCs7Qj1RmEtpUo_4pyo3, symObjAddr: 0x2C94, symBinAddr: 0x22498, symSize: 0x20 }
  - { offset: 0x6C1D1, size: 0x8, addend: 0x0, symName: __RNvXsX_NtNtCs2iVXuAemrgm_5alloc3ffi5c_strNtB5_8NulErrorNtNtCs7dfkhshTrE4_4core3fmt5Debug3fmtCs7Qj1RmEtpUo_4pyo3, symObjAddr: 0x3A18, symBinAddr: 0x22B7C, symSize: 0x5C }
  - { offset: 0x6C355, size: 0x8, addend: 0x0, symName: __RINvMs0_NtCs7Qj1RmEtpUo_4pyo36markerNtB6_6Python14get_type_boundNtNtB8_10exceptions11PyTypeErrorEB8_, symObjAddr: 0x1E4, symBinAddr: 0x20A78, symSize: 0x1C }
  - { offset: 0x6C38D, size: 0x8, addend: 0x0, symName: __RINvMs0_NtCs7Qj1RmEtpUo_4pyo36markerNtB6_6Python14get_type_boundNtNtB8_10exceptions15PyBaseExceptionEB8_, symObjAddr: 0x200, symBinAddr: 0x20A94, symSize: 0x1C }
  - { offset: 0x6C47D, size: 0x8, addend: 0x0, symName: __RINvMs_NtCs7Qj1RmEtpUo_4pyo36markerNtB5_6Python8with_gilNCNvXs3_NtB7_3errNtB10_5PyErrNtNtCs7dfkhshTrE4_4core3fmt5Debug3fmt0INtNtB1p_6result6ResultuNtB1n_5ErrorEEB7_, symObjAddr: 0x498, symBinAddr: 0x20C50, symSize: 0xE8 }
  - { offset: 0x6C4E6, size: 0x8, addend: 0x0, symName: __RINvMs_NtNtCs2iVXuAemrgm_5alloc3ffi5c_strNtB5_7CString3newNtNtB9_6string6StringECs7Qj1RmEtpUo_4pyo3, symObjAddr: 0x668, symBinAddr: 0x20D38, symSize: 0x14 }
  - { offset: 0x6C513, size: 0x8, addend: 0x0, symName: __RINvMs_NtNtCs2iVXuAemrgm_5alloc3ffi5c_strNtB5_7CString3newReECs7Qj1RmEtpUo_4pyo3, symObjAddr: 0x67C, symBinAddr: 0x20D4C, symSize: 0x28 }
  - { offset: 0x6CA2B, size: 0x8, addend: 0x0, symName: __RNvMs0_NtCs7Qj1RmEtpUo_4pyo36markerNtB5_6Python4NoneB7_, symObjAddr: 0x2344, symBinAddr: 0x2218C, symSize: 0x20 }
  - { offset: 0x6CA5A, size: 0x8, addend: 0x0, symName: __RNvMs1_NtNtCs7Qj1RmEtpUo_4pyo36pycell5impl_NtB5_10BorrowFlag9decrement, symObjAddr: 0x2830, symBinAddr: 0x221AC, symSize: 0x40 }
  - { offset: 0x6CA7C, size: 0x8, addend: 0x0, symName: __RNvMs1_NtNtCs7Qj1RmEtpUo_4pyo36pycell5impl_NtB5_10BorrowFlag9increment, symObjAddr: 0x2870, symBinAddr: 0x221EC, symSize: 0x40 }
  - { offset: 0x6CAAB, size: 0x8, addend: 0x0, symName: __RNvMs1i_NtNtCs7dfkhshTrE4_4core4sync6atomicNtB6_9AtomicI6416compare_exchangeCs7Qj1RmEtpUo_4pyo3, symObjAddr: 0x28B0, symBinAddr: 0x2222C, symSize: 0x30 }
  - { offset: 0x6CB0A, size: 0x8, addend: 0x0, symName: __RNvMs2_NtCs7Qj1RmEtpUo_4pyo36markerNtB5_6Python19assume_gil_acquiredB7_, symObjAddr: 0x28F8, symBinAddr: 0x2225C, symSize: 0x4 }
  - { offset: 0x6CBCC, size: 0x8, addend: 0x0, symName: __RNvMs4_NtNtCs7dfkhshTrE4_4core5slice4iterINtB5_4IterNtNtNtCs7Qj1RmEtpUo_4pyo35impl_16extract_argument31KeywordOnlyParameterDescriptionE3newBU_, symObjAddr: 0x28FC, symBinAddr: 0x22260, symSize: 0x58 }
  - { offset: 0x6CD7C, size: 0x8, addend: 0x0, symName: __RNvMs4_NtNtCs7dfkhshTrE4_4core5slice4iterINtB5_4IterReE3newCs7Qj1RmEtpUo_4pyo3, symObjAddr: 0x2954, symBinAddr: 0x222B8, symSize: 0x50 }
  - { offset: 0x6D374, size: 0x8, addend: 0x0, symName: __RINvMNtNtCs7Qj1RmEtpUo_4pyo37pyclass18create_type_objectNtB3_13PyTypeBuilder17push_raw_vec_slotNtNtCsgh2hkQkDkI2_8pyo3_ffi11descrobject11PyGetSetDefEB7_, symObjAddr: 0x0, symBinAddr: 0x22DB8, symSize: 0x1A8 }
  - { offset: 0x6D864, size: 0x8, addend: 0x0, symName: __RINvNtNtCs7Qj1RmEtpUo_4pyo35types5tuple16array_into_tupleKj1_EB6_, symObjAddr: 0x9D4, symBinAddr: 0x23764, symSize: 0x1EC }
  - { offset: 0x6D9A7, size: 0x8, addend: 0x0, symName: __RNvXsl_NtNtCs7Qj1RmEtpUo_4pyo35types5tupleTReEINtNtB9_10conversion6IntoPyINtNtB9_8instance2PyNtNtB7_3any5PyAnyEE7into_pyB9_, symObjAddr: 0x6E14, symBinAddr: 0x26A90, symSize: 0x48 }
  - { offset: 0x6DA3F, size: 0x8, addend: 0x0, symName: __RNvNtNtCs7Qj1RmEtpUo_4pyo35types4dict8dict_len, symObjAddr: 0x5044, symBinAddr: 0x25EBC, symSize: 0x28 }
  - { offset: 0x6DAA7, size: 0x8, addend: 0x0, symName: __RNvNvXs_NtNtCs7Qj1RmEtpUo_4pyo35types4listINtNtBa_8instance5BoundNtB6_6PyListENtB6_13PyListMethods6append5inner, symObjAddr: 0x65FC, symBinAddr: 0x2672C, symSize: 0x9C }
  - { offset: 0x6DAEB, size: 0x8, addend: 0x0, symName: __RNvXsa_NtNtCs7Qj1RmEtpUo_4pyo35types4listNtB5_6PyListNtNtB9_11type_object10PyTypeInfo16is_type_of_boundB9_, symObjAddr: 0x6D40, symBinAddr: 0x26A2C, symSize: 0x30 }
  - { offset: 0x6DE76, size: 0x8, addend: 0x0, symName: __RNCNCNvNtNtCs7Qj1RmEtpUo_4pyo37pyclass18create_type_object22no_constructor_defined00B9_, symObjAddr: 0x121C, symBinAddr: 0x239EC, symSize: 0x6C }
  - { offset: 0x6DEAC, size: 0x8, addend: 0x0, symName: __RNCNCNvNtNtCs7Qj1RmEtpUo_4pyo37pyclass18create_type_object22no_constructor_defined0s_0B9_, symObjAddr: 0x1288, symBinAddr: 0x23A58, symSize: 0x5C }
  - { offset: 0x6DEF4, size: 0x8, addend: 0x0, symName: __RNCNvNtNtCs7Qj1RmEtpUo_4pyo37pyclass18create_type_object22no_constructor_defined0B7_, symObjAddr: 0x1544, symBinAddr: 0x23D14, symSize: 0x144 }
  - { offset: 0x6DFCA, size: 0x8, addend: 0x0, symName: __RNCNvMNtNtCs7Qj1RmEtpUo_4pyo37pyclass18create_type_objectNtB4_13PyTypeBuilder31finalize_methods_and_properties0B8_, symObjAddr: 0x12E4, symBinAddr: 0x23AB4, symSize: 0xE8 }
  - { offset: 0x6E08B, size: 0x8, addend: 0x0, symName: __RNCNvNtNtCs7Qj1RmEtpUo_4pyo37pyclass18create_type_object16call_super_clear0B7_, symObjAddr: 0x152C, symBinAddr: 0x23CFC, symSize: 0x18 }
  - { offset: 0x6E0E2, size: 0x8, addend: 0x0, symName: __RNCNvNvMs0_NtNtCs7Qj1RmEtpUo_4pyo37pyclass18create_type_objectNtB9_13GetSetDefType21create_py_get_set_def13getset_getter0Bd_, symObjAddr: 0x1688, symBinAddr: 0x23E58, symSize: 0x34 }
  - { offset: 0x6E146, size: 0x8, addend: 0x0, symName: __RNCNvNvMs0_NtNtCs7Qj1RmEtpUo_4pyo37pyclass18create_type_objectNtB9_13GetSetDefType21create_py_get_set_def13getset_setter0Bd_, symObjAddr: 0x16BC, symBinAddr: 0x23E8C, symSize: 0x38 }
  - { offset: 0x6E1B9, size: 0x8, addend: 0x0, symName: __RNCNvNvMs0_NtNtCs7Qj1RmEtpUo_4pyo37pyclass18create_type_objectNtB9_13GetSetDefType21create_py_get_set_def6getter0Bd_, symObjAddr: 0x16F4, symBinAddr: 0x23EC4, symSize: 0x34 }
  - { offset: 0x6E21D, size: 0x8, addend: 0x0, symName: __RNCNvNvMs0_NtNtCs7Qj1RmEtpUo_4pyo37pyclass18create_type_objectNtB9_13GetSetDefType21create_py_get_set_def6setter0Bd_, symObjAddr: 0x1728, symBinAddr: 0x23EF8, symSize: 0x38 }
  - { offset: 0x6E28B, size: 0x8, addend: 0x0, symName: __RNvNvMs0_NtNtCs7Qj1RmEtpUo_4pyo37pyclass18create_type_objectNtB7_13GetSetDefType21create_py_get_set_def13getset_getter, symObjAddr: 0x54A8, symBinAddr: 0x261C8, symSize: 0x94 }
  - { offset: 0x6E304, size: 0x8, addend: 0x0, symName: __RNvNvMs0_NtNtCs7Qj1RmEtpUo_4pyo37pyclass18create_type_objectNtB7_13GetSetDefType21create_py_get_set_def13getset_setter, symObjAddr: 0x553C, symBinAddr: 0x2625C, symSize: 0xAC }
  - { offset: 0x6E38C, size: 0x8, addend: 0x0, symName: __RNvNvMs0_NtNtCs7Qj1RmEtpUo_4pyo37pyclass18create_type_objectNtB7_13GetSetDefType21create_py_get_set_def6getter, symObjAddr: 0x55E8, symBinAddr: 0x26308, symSize: 0x48 }
  - { offset: 0x6E3E7, size: 0x8, addend: 0x0, symName: __RNvNvMs0_NtNtCs7Qj1RmEtpUo_4pyo37pyclass18create_type_objectNtB7_13GetSetDefType21create_py_get_set_def6setter, symObjAddr: 0x5630, symBinAddr: 0x26350, symSize: 0x5C }
  - { offset: 0x6E549, size: 0x8, addend: 0x0, symName: __RNvNtNtCs7Qj1RmEtpUo_4pyo37pyclass18create_type_object16call_super_clear, symObjAddr: 0x5128, symBinAddr: 0x25EE4, symSize: 0x44 }
  - { offset: 0x6E577, size: 0x8, addend: 0x0, symName: __RNvNtNtCs7Qj1RmEtpUo_4pyo37pyclass18create_type_object22no_constructor_defined, symObjAddr: 0x516C, symBinAddr: 0x25F28, symSize: 0x40 }
  - { offset: 0x6E5C3, size: 0x8, addend: 0x0, symName: __RNvNtNtCs7Qj1RmEtpUo_4pyo37pyclass18create_type_object23py_class_qualified_name, symObjAddr: 0x51AC, symBinAddr: 0x25F68, symSize: 0x150 }
  - { offset: 0x6E682, size: 0x8, addend: 0x0, symName: __RNvNvNtNtCs7Qj1RmEtpUo_4pyo37pyclass18create_type_object18create_type_object5inner, symObjAddr: 0x5B88, symBinAddr: 0x26440, symSize: 0x2EC }
  - { offset: 0x6E784, size: 0x8, addend: 0x0, symName: __RNvXs1_NtNtCs7Qj1RmEtpUo_4pyo37pyclass18create_type_objectNtB5_16GetSetDefBuilderNtNtCs7dfkhshTrE4_4core7default7Default7defaultB9_, symObjAddr: 0x68AC, symBinAddr: 0x26804, symSize: 0x54 }
  - { offset: 0x6E843, size: 0x8, addend: 0x0, symName: __RNCNvMs3_NtNtCs7Qj1RmEtpUo_4pyo35impl_16extract_argumentNtB7_19FunctionDescription34missing_required_keyword_arguments0Bb_, symObjAddr: 0x13CC, symBinAddr: 0x23B9C, symSize: 0x84 }
  - { offset: 0x6E8B3, size: 0x8, addend: 0x0, symName: __RNCNvMs3_NtNtCs7Qj1RmEtpUo_4pyo35impl_16extract_argumentNtB7_19FunctionDescription37missing_required_positional_arguments0Bb_, symObjAddr: 0x1450, symBinAddr: 0x23C20, symSize: 0x78 }
  - { offset: 0x6EA68, size: 0x8, addend: 0x0, symName: __RNvNtNtCs7Qj1RmEtpUo_4pyo35impl_16extract_argument19push_parameter_list, symObjAddr: 0x48A4, symBinAddr: 0x25980, symSize: 0x16C }
  - { offset: 0x6EAF4, size: 0x8, addend: 0x0, symName: __RNvNtNtCs7Qj1RmEtpUo_4pyo35impl_16extract_argument25argument_extraction_error, symObjAddr: 0x4A10, symBinAddr: 0x6BAC0, symSize: 0x264 }
  - { offset: 0x6EBC3, size: 0x8, addend: 0x0, symName: __RNCNvNtNtCs7Qj1RmEtpUo_4pyo35impl_7pyclass17build_pyclass_doc0B7_, symObjAddr: 0x14C8, symBinAddr: 0x23C98, symSize: 0x64 }
  - { offset: 0x6ECC1, size: 0x8, addend: 0x0, symName: __RNvNtNtCs7Qj1RmEtpUo_4pyo35impl_7pyclass17build_pyclass_doc, symObjAddr: 0x4C74, symBinAddr: 0x25AEC, symSize: 0x258 }
  - { offset: 0x6EDEF, size: 0x8, addend: 0x0, symName: __RNvNtNtCs7Qj1RmEtpUo_4pyo35impl_7pyclass30get_sequence_item_from_mapping, symObjAddr: 0x4ECC, symBinAddr: 0x25D44, symSize: 0xA0 }
  - { offset: 0x6EE8B, size: 0x8, addend: 0x0, symName: __RNvNtNtCs7Qj1RmEtpUo_4pyo35impl_7pyclass33assign_sequence_item_from_mapping, symObjAddr: 0x4F6C, symBinAddr: 0x25DE4, symSize: 0xD8 }
  - { offset: 0x6EF2E, size: 0x8, addend: 0x0, symName: __RNvXs8_NtNtCs7Qj1RmEtpUo_4pyo35impl_7pyclassNtB5_16PyClassItemsIterNtNtNtNtCs7dfkhshTrE4_4core4iter6traits8iterator8Iterator4next, symObjAddr: 0x6C10, symBinAddr: 0x2690C, symSize: 0xD0 }
  - { offset: 0x6F1E4, size: 0x8, addend: 0x0, symName: __RNvXNtCs7Qj1RmEtpUo_4pyo311type_objectNtNtNtB4_5types4list6PyListNtB2_11PyTypeCheck10type_checkB4_, symObjAddr: 0x681C, symBinAddr: 0x267C8, symSize: 0x24 }
  - { offset: 0x701A6, size: 0x8, addend: 0x0, symName: __RINvXsh_NtNtCs7dfkhshTrE4_4core3ffi5c_strNtB6_4CStrNtNtBa_4hash4Hash4hashNtNtNtCskXqYSXpV4rx_3std4hash6random13DefaultHasherECs7Qj1RmEtpUo_4pyo3, symObjAddr: 0x11EC, symBinAddr: 0x239BC, symSize: 0x30 }
  - { offset: 0x701EB, size: 0x8, addend: 0x0, symName: __RNvXsf_NtNtCs7dfkhshTrE4_4core3ffi5c_strNtB5_4CStrNtNtB9_3cmp9PartialEq2eqCs7Qj1RmEtpUo_4pyo3, symObjAddr: 0x6DB0, symBinAddr: 0x26A5C, symSize: 0x34 }
  - { offset: 0x707C7, size: 0x8, addend: 0x0, symName: __RINvNtCs7dfkhshTrE4_4core3mem4dropINtNtNtNtCskXqYSXpV4rx_3std4sync6poison5mutex10MutexGuardINtNtCs2iVXuAemrgm_5alloc3vec3VecINtNtNtB4_3ptr8non_null7NonNullNtNtCsgh2hkQkDkI2_8pyo3_ffi6object8PyObjectEEEECs7Qj1RmEtpUo_4pyo3, symObjAddr: 0x808, symBinAddr: 0x235C0, symSize: 0x2C }
  - { offset: 0x7082D, size: 0x8, addend: 0x0, symName: __RINvNtCs7dfkhshTrE4_4core3mem4takeINtNtCs2iVXuAemrgm_5alloc3vec3VecINtNtBB_5boxed3BoxDG_INtNtNtB4_3ops8function2FnTRL0_NtNtNtCs7Qj1RmEtpUo_4pyo37pyclass18create_type_object13PyTypeBuilderONtNtCsgh2hkQkDkI2_8pyo3_ffi6object12PyTypeObjectEEp6OutputuEL_EEEB1Z_, symObjAddr: 0x834, symBinAddr: 0x235EC, symSize: 0x54 }
  - { offset: 0x708BD, size: 0x8, addend: 0x0, symName: __RINvNtCs7dfkhshTrE4_4core3mem4takeINtNtCs2iVXuAemrgm_5alloc3vec3VecINtNtNtB4_3ptr8non_null7NonNullNtNtCsgh2hkQkDkI2_8pyo3_ffi6object8PyObjectEEECs7Qj1RmEtpUo_4pyo3, symObjAddr: 0x888, symBinAddr: 0x23640, symSize: 0x54 }
  - { offset: 0x7094D, size: 0x8, addend: 0x0, symName: __RINvNtCs7dfkhshTrE4_4core3mem4takeINtNtCs2iVXuAemrgm_5alloc3vec3VecNtNtCsgh2hkQkDkI2_8pyo3_ffi11descrobject11PyMemberDefEECs7Qj1RmEtpUo_4pyo3, symObjAddr: 0x8DC, symBinAddr: 0x23694, symSize: 0x54 }
  - { offset: 0x709DD, size: 0x8, addend: 0x0, symName: __RINvNtCs7dfkhshTrE4_4core3mem4takeINtNtCs2iVXuAemrgm_5alloc3vec3VecNtNtCsgh2hkQkDkI2_8pyo3_ffi12methodobject11PyMethodDefEECs7Qj1RmEtpUo_4pyo3, symObjAddr: 0x930, symBinAddr: 0x236E8, symSize: 0x54 }
  - { offset: 0x70A3A, size: 0x8, addend: 0x0, symName: __RINvNtCs7dfkhshTrE4_4core3mem6forgetNtNtNtCs7Qj1RmEtpUo_4pyo35impl_5panic9PanicTrapEBE_, symObjAddr: 0x9AC, symBinAddr: 0x2373C, symSize: 0x14 }
  - { offset: 0x70A6B, size: 0x8, addend: 0x0, symName: __RINvNtCs7dfkhshTrE4_4core3mem6forgetNtNvMs0_NtNtNtCs7Qj1RmEtpUo_4pyo35impl_7pyclass16lazy_type_objectNtBG_19LazyTypeObjectInner11ensure_init19InitializationGuardEBM_, symObjAddr: 0x9C0, symBinAddr: 0x23750, symSize: 0x14 }
  - { offset: 0x7123D, size: 0x8, addend: 0x0, symName: __RINvXs3_NtNtCs7dfkhshTrE4_4core4hash5implsRNtNtNtBa_3ffi5c_str4CStrNtB8_4Hash4hashNtNtNtCskXqYSXpV4rx_3std4hash6random13DefaultHasherECs7Qj1RmEtpUo_4pyo3, symObjAddr: 0x1180, symBinAddr: 0x23950, symSize: 0x3C }
  - { offset: 0x71288, size: 0x8, addend: 0x0, symName: __RINvXs3_NtNtCs7dfkhshTrE4_4core4hash5implsRRNtNtNtBa_3ffi5c_str4CStrNtB8_4Hash4hashNtNtNtCskXqYSXpV4rx_3std4hash6random13DefaultHasherECs7Qj1RmEtpUo_4pyo3, symObjAddr: 0x11BC, symBinAddr: 0x2398C, symSize: 0x30 }
  - { offset: 0x713C9, size: 0x8, addend: 0x0, symName: __RNvNvNtCs7dfkhshTrE4_4core4hint16assert_unchecked18precondition_checkCs7Qj1RmEtpUo_4pyo3, symObjAddr: 0x568C, symBinAddr: 0x263AC, symSize: 0x58 }
  - { offset: 0x71414, size: 0x8, addend: 0x0, symName: __RNvNvNtCs7dfkhshTrE4_4core4hint21unreachable_unchecked18precondition_checkCs7Qj1RmEtpUo_4pyo3, symObjAddr: 0x56E4, symBinAddr: 0x26404, symSize: 0x3C }
  - { offset: 0x71457, size: 0x8, addend: 0x0, symName: __RNvMNtCs7dfkhshTrE4_4core5sliceSNtNtNtCs7Qj1RmEtpUo_4pyo35impl_16extract_argument31KeywordOnlyParameterDescription4iterBA_, symObjAddr: 0x1760, symBinAddr: 0x23F30, symSize: 0x28 }
  - { offset: 0x7154D, size: 0x8, addend: 0x0, symName: __RNvNtNtCs7dfkhshTrE4_4core5slice6memchr6memchrCs7Qj1RmEtpUo_4pyo3, symObjAddr: 0x52FC, symBinAddr: 0x260B8, symSize: 0x110 }
  - { offset: 0x71615, size: 0x8, addend: 0x0, symName: __RNvXs_NtNtCs7dfkhshTrE4_4core5slice4iterRSNtNtNtCs7Qj1RmEtpUo_4pyo35impl_7pyclass23MaybeRuntimePyMethodDefNtNtNtNtB8_4iter6traits7collect12IntoIterator9into_iterBK_, symObjAddr: 0x6CF0, symBinAddr: 0x269DC, symSize: 0x50 }
  - { offset: 0x71841, size: 0x8, addend: 0x0, symName: __RNvXNtNtNtCs7dfkhshTrE4_4core4iter6traits7collectNtNtNtCs7Qj1RmEtpUo_4pyo35impl_7pyclass16PyClassItemsIterNtB2_12IntoIterator9into_iterBR_, symObjAddr: 0x6874, symBinAddr: 0x267EC, symSize: 0x18 }
  - { offset: 0x718F0, size: 0x8, addend: 0x0, symName: __RNvXs1_NtNtNtCs7dfkhshTrE4_4core3ops8function5implsQNCNvMs3_NtNtCs7Qj1RmEtpUo_4pyo35impl_16extract_argumentNtBW_19FunctionDescription34missing_required_keyword_arguments0INtB7_5FnMutTTRNtBW_31KeywordOnlyParameterDescriptionRINtNtBb_6option6OptionINtNtB10_8instance8BorrowedNtNtNtB10_5types3any5PyAnyEEEEE8call_mutB10_, symObjAddr: 0x6900, symBinAddr: 0x26858, symSize: 0x38 }
  - { offset: 0x7193F, size: 0x8, addend: 0x0, symName: __RNvXs1_NtNtNtCs7dfkhshTrE4_4core3ops8function5implsQNCNvMs3_NtNtCs7Qj1RmEtpUo_4pyo35impl_16extract_argumentNtBW_19FunctionDescription37missing_required_positional_arguments0INtB7_5FnMutTTRReRINtNtBb_6option6OptionINtNtB10_8instance8BorrowedNtNtNtB10_5types3any5PyAnyEEEEE8call_mutB10_, symObjAddr: 0x6938, symBinAddr: 0x26890, symSize: 0x38 }
  - { offset: 0x71AB2, size: 0x8, addend: 0x0, symName: __RNvXs7_NtNtCs7dfkhshTrE4_4core3cmp5implsRNtNtNtB9_3ffi5c_str4CStrNtB7_9PartialEq2eqCs7Qj1RmEtpUo_4pyo3, symObjAddr: 0x6BCC, symBinAddr: 0x268C8, symSize: 0x44 }
  - { offset: 0x71E09, size: 0x8, addend: 0x0, symName: __RNvNtCsgh2hkQkDkI2_8pyo3_ffi10listobject12PyList_CheckCs7Qj1RmEtpUo_4pyo3, symObjAddr: 0x4874, symBinAddr: 0x25950, symSize: 0x30 }
  - { offset: 0x729FB, size: 0x8, addend: 0x0, symName: __RINvMNtNtCs7Qj1RmEtpUo_4pyo37pyclass18create_type_objectNtB3_13PyTypeBuilder17push_raw_vec_slotNtNtCsgh2hkQkDkI2_8pyo3_ffi11descrobject11PyGetSetDefEB7_, symObjAddr: 0x0, symBinAddr: 0x22DB8, symSize: 0x1A8 }
  - { offset: 0x72BFA, size: 0x8, addend: 0x0, symName: __RINvMNtNtCs7Qj1RmEtpUo_4pyo37pyclass18create_type_objectNtB3_13PyTypeBuilder17push_raw_vec_slotNtNtCsgh2hkQkDkI2_8pyo3_ffi11descrobject11PyMemberDefEB7_, symObjAddr: 0x1A8, symBinAddr: 0x22F60, symSize: 0x1A8 }
  - { offset: 0x72DF9, size: 0x8, addend: 0x0, symName: __RINvMNtNtCs7Qj1RmEtpUo_4pyo37pyclass18create_type_objectNtB3_13PyTypeBuilder17push_raw_vec_slotNtNtCsgh2hkQkDkI2_8pyo3_ffi12methodobject11PyMethodDefEB7_, symObjAddr: 0x350, symBinAddr: 0x23108, symSize: 0x194 }
  - { offset: 0x72F64, size: 0x8, addend: 0x0, symName: __RINvMNtNtCs7Qj1RmEtpUo_4pyo37pyclass18create_type_objectNtB3_13PyTypeBuilder9push_slotNtNtCs7dfkhshTrE4_4core3ffi6c_voidEB7_, symObjAddr: 0x4E4, symBinAddr: 0x2329C, symSize: 0x10C }
  - { offset: 0x72FAB, size: 0x8, addend: 0x0, symName: __RINvMNtNtCs7Qj1RmEtpUo_4pyo37pyclass18create_type_objectNtB3_13PyTypeBuilder9push_slotNtNtCsgh2hkQkDkI2_8pyo3_ffi6object12PyTypeObjectEB7_, symObjAddr: 0x5F0, symBinAddr: 0x233A8, symSize: 0x10C }
  - { offset: 0x72FFF, size: 0x8, addend: 0x0, symName: __RINvMNtNtCs7Qj1RmEtpUo_4pyo37pyclass18create_type_objectNtB3_13PyTypeBuilder9push_slotaEB7_, symObjAddr: 0x6FC, symBinAddr: 0x234B4, symSize: 0x10C }
  - { offset: 0x73087, size: 0x8, addend: 0x0, symName: __RNvMNtNtCs7Qj1RmEtpUo_4pyo35types4listNtB2_6PyList11empty_bound, symObjAddr: 0x1904, symBinAddr: 0x23F58, symSize: 0x30 }
  - { offset: 0x730E2, size: 0x8, addend: 0x0, symName: __RNvMNtNtCs7Qj1RmEtpUo_4pyo35types8functionNtB2_11PyCFunction12internal_new, symObjAddr: 0x1998, symBinAddr: 0x23F88, symSize: 0x23C }
  - { offset: 0x732AE, size: 0x8, addend: 0x0, symName: __RNvMNtNtCs7Qj1RmEtpUo_4pyo37pyclass18create_type_objectNtB2_13PyTypeBuilder11class_items, symObjAddr: 0x1DB8, symBinAddr: 0x241C4, symSize: 0x238 }
  - { offset: 0x73400, size: 0x8, addend: 0x0, symName: __RNvMNtNtCs7Qj1RmEtpUo_4pyo37pyclass18create_type_objectNtB2_13PyTypeBuilder12pymethod_def, symObjAddr: 0x1FF0, symBinAddr: 0x243FC, symSize: 0x1B4 }
  - { offset: 0x734A5, size: 0x8, addend: 0x0, symName: __RNvMNtNtCs7Qj1RmEtpUo_4pyo37pyclass18create_type_objectNtB2_13PyTypeBuilder15set_is_basetype, symObjAddr: 0x21A4, symBinAddr: 0x245B0, symSize: 0x54 }
  - { offset: 0x734E5, size: 0x8, addend: 0x0, symName: __RNvMNtNtCs7Qj1RmEtpUo_4pyo37pyclass18create_type_objectNtB2_13PyTypeBuilder31finalize_methods_and_properties, symObjAddr: 0x21F8, symBinAddr: 0x24604, symSize: 0x284 }
  - { offset: 0x7360B, size: 0x8, addend: 0x0, symName: __RNvMNtNtCs7Qj1RmEtpUo_4pyo37pyclass18create_type_objectNtB2_13PyTypeBuilder5build, symObjAddr: 0x247C, symBinAddr: 0x24888, symSize: 0x750 }
  - { offset: 0x7387F, size: 0x8, addend: 0x0, symName: __RNvMNtNtCs7Qj1RmEtpUo_4pyo37pyclass18create_type_objectNtB2_13PyTypeBuilder7offsets, symObjAddr: 0x2BCC, symBinAddr: 0x24FD8, symSize: 0x1E4 }
  - { offset: 0x7393E, size: 0x8, addend: 0x0, symName: __RNvMNtNtCs7Qj1RmEtpUo_4pyo37pyclass18create_type_objectNtB2_13PyTypeBuilder8type_doc, symObjAddr: 0x2DB0, symBinAddr: 0x251BC, symSize: 0xE0 }
  - { offset: 0x73994, size: 0x8, addend: 0x0, symName: __RNvMs0_NtNtCs7Qj1RmEtpUo_4pyo37pyclass18create_type_objectNtB5_13GetSetDefType21create_py_get_set_def, symObjAddr: 0x2F60, symBinAddr: 0x2529C, symSize: 0x1A4 }
  - { offset: 0x73AC2, size: 0x8, addend: 0x0, symName: __RNvMs3_NtNtCs7Qj1RmEtpUo_4pyo35impl_16extract_argumentNtB5_19FunctionDescription26missing_required_arguments, symObjAddr: 0x32D4, symBinAddr: 0x6AF7C, symSize: 0x1F8 }
  - { offset: 0x73B94, size: 0x8, addend: 0x0, symName: __RNvMs3_NtNtCs7Qj1RmEtpUo_4pyo35impl_16extract_argumentNtB5_19FunctionDescription27unexpected_keyword_argument, symObjAddr: 0x34CC, symBinAddr: 0x6B174, symSize: 0x124 }
  - { offset: 0x73C22, size: 0x8, addend: 0x0, symName: __RNvMs3_NtNtCs7Qj1RmEtpUo_4pyo35impl_16extract_argumentNtB5_19FunctionDescription28multiple_values_for_argument, symObjAddr: 0x35F0, symBinAddr: 0x6B298, symSize: 0x110 }
  - { offset: 0x73CA8, size: 0x8, addend: 0x0, symName: __RNvMs3_NtNtCs7Qj1RmEtpUo_4pyo35impl_16extract_argumentNtB5_19FunctionDescription29too_many_positional_arguments, symObjAddr: 0x3700, symBinAddr: 0x6B3A8, symSize: 0x304 }
  - { offset: 0x73DBB, size: 0x8, addend: 0x0, symName: __RNvMs3_NtNtCs7Qj1RmEtpUo_4pyo35impl_16extract_argumentNtB5_19FunctionDescription33positional_only_keyword_arguments, symObjAddr: 0x3A04, symBinAddr: 0x6B6AC, symSize: 0x148 }
  - { offset: 0x73E7E, size: 0x8, addend: 0x0, symName: __RNvMs3_NtNtCs7Qj1RmEtpUo_4pyo35impl_16extract_argumentNtB5_19FunctionDescription34missing_required_keyword_arguments, symObjAddr: 0x3B4C, symBinAddr: 0x6B7F4, symSize: 0x184 }
  - { offset: 0x73F15, size: 0x8, addend: 0x0, symName: __RNvMs3_NtNtCs7Qj1RmEtpUo_4pyo35impl_16extract_argumentNtB5_19FunctionDescription37missing_required_positional_arguments, symObjAddr: 0x3CD0, symBinAddr: 0x6B978, symSize: 0x148 }
  - { offset: 0x73F5E, size: 0x8, addend: 0x0, symName: __RNvMs3_NtNtCs7Qj1RmEtpUo_4pyo35impl_16extract_argumentNtB5_19FunctionDescription9full_name, symObjAddr: 0x3E18, symBinAddr: 0x25440, symSize: 0x10C }
  - { offset: 0x74053, size: 0x8, addend: 0x0, symName: __RNvMs3_NtNtCs7dfkhshTrE4_4core3ffi5c_strNtB5_4CStr6as_ptrCs7Qj1RmEtpUo_4pyo3, symObjAddr: 0x40F8, symBinAddr: 0x2554C, symSize: 0x18 }
  - { offset: 0x740C5, size: 0x8, addend: 0x0, symName: __RNvMs3_NtNtCs7dfkhshTrE4_4core3ffi5c_strNtB5_4CStr8to_bytesCs7Qj1RmEtpUo_4pyo3, symObjAddr: 0x418C, symBinAddr: 0x25564, symSize: 0x74 }
  - { offset: 0x74168, size: 0x8, addend: 0x0, symName: __RNvMs7_NtNtCs7Qj1RmEtpUo_4pyo35impl_7pyclassNtB5_16PyClassItemsIter3new, symObjAddr: 0x4200, symBinAddr: 0x255D8, symSize: 0x28 }
  - { offset: 0x741A7, size: 0x8, addend: 0x0, symName: __RNvMs8_NtNtCs7Qj1RmEtpUo_4pyo35types5tupleNtB5_21BorrowedTupleIterator3new, symObjAddr: 0x4228, symBinAddr: 0x25600, symSize: 0x48 }
  - { offset: 0x741E8, size: 0x8, addend: 0x0, symName: __RNvMs8_NtNtCs7Qj1RmEtpUo_4pyo35types5tupleNtB5_21BorrowedTupleIterator8get_item, symObjAddr: 0x4270, symBinAddr: 0x25648, symSize: 0x58 }
  - { offset: 0x74234, size: 0x8, addend: 0x0, symName: __RNvMs_NtNtCs7Qj1RmEtpUo_4pyo37pyclass18create_type_objectNtB4_16GetSetDefBuilder10add_getter, symObjAddr: 0x4304, symBinAddr: 0x256A0, symSize: 0x64 }
  - { offset: 0x74273, size: 0x8, addend: 0x0, symName: __RNvMs_NtNtCs7Qj1RmEtpUo_4pyo37pyclass18create_type_objectNtB4_16GetSetDefBuilder10add_setter, symObjAddr: 0x4368, symBinAddr: 0x25704, symSize: 0x64 }
  - { offset: 0x742D0, size: 0x8, addend: 0x0, symName: __RNvMs_NtNtCs7Qj1RmEtpUo_4pyo37pyclass18create_type_objectNtB4_16GetSetDefBuilder14as_get_set_def, symObjAddr: 0x43CC, symBinAddr: 0x25768, symSize: 0x1E8 }
  - { offset: 0x74A89, size: 0x8, addend: 0x0, symName: __RNCINvMs2_NtCseWmkDRwMMr9_9once_cell3impINtB8_8OnceCellNtNtCs7Qj1RmEtpUo_4pyo33gil13ReferencePoolE10initializeNCINvMs4_NtBa_4syncINtB1T_8OnceCellBR_E11get_or_initNCNvMs9_B1T_INtB1T_4LazyBR_E5force0E0NtNvMs4_B1T_IB24_pE11get_or_init4VoidE0BV_, symObjAddr: 0xEEC, symBinAddr: 0x2736C, symSize: 0x1AC }
  - { offset: 0x74C17, size: 0x8, addend: 0x0, symName: __RNCINvMs4_NtCseWmkDRwMMr9_9once_cell4syncINtB8_8OnceCellNtNtCs7Qj1RmEtpUo_4pyo33gil13ReferencePoolE11get_or_initNCNvMs9_B8_INtB8_4LazyBS_E5force0E0BW_, symObjAddr: 0x1098, symBinAddr: 0x27518, symSize: 0x44 }
  - { offset: 0x74C77, size: 0x8, addend: 0x0, symName: __RNCNvMs9_NtCseWmkDRwMMr9_9once_cell4syncINtB7_4LazyNtNtCs7Qj1RmEtpUo_4pyo33gil13ReferencePoolE5force0BR_, symObjAddr: 0x14A8, symBinAddr: 0x27928, symSize: 0x70 }
  - { offset: 0x74E20, size: 0x8, addend: 0x0, symName: __RNvXsa_NtCseWmkDRwMMr9_9once_cell4syncINtB5_4LazyNtNtCs7Qj1RmEtpUo_4pyo33gil13ReferencePoolENtNtNtCs7dfkhshTrE4_4core3ops5deref5Deref5derefBP_, symObjAddr: 0x4868, symBinAddr: 0x29880, symSize: 0x24 }
  - { offset: 0x765D1, size: 0x8, addend: 0x0, symName: __RNvXs7_NtCs7dfkhshTrE4_4core6optionINtB5_6OptionFENtNtCs7Qj1RmEtpUo_4pyo33gil13ReferencePoolENtNtB7_7default7Default7defaultBQ_, symObjAddr: 0x3FDC, symBinAddr: 0x29448, symSize: 0x8 }
  - { offset: 0x765F9, size: 0x8, addend: 0x0, symName: __RNvXs7_NtCs7dfkhshTrE4_4core6optionINtB5_6OptionFG_UINtNtCs7Qj1RmEtpUo_4pyo36marker6PythonL0_EONtNtCsgh2hkQkDkI2_8pyo3_ffi6object8PyObjectB1u_EINtNtB7_6result6ResultlNtNtBT_3err5PyErrEENtNtB7_7default7Default7defaultBT_, symObjAddr: 0x3FE4, symBinAddr: 0x29450, symSize: 0x8 }
  - { offset: 0x76621, size: 0x8, addend: 0x0, symName: __RNvXs7_NtCs7dfkhshTrE4_4core6optionINtB5_6OptionFG_UINtNtCs7Qj1RmEtpUo_4pyo36marker6PythonL0_EONtNtCsgh2hkQkDkI2_8pyo3_ffi6object8PyObjectEINtNtB7_6result6ResultB1u_NtNtBT_3err5PyErrEENtNtB7_7default7Default7defaultBT_, symObjAddr: 0x3FEC, symBinAddr: 0x29458, symSize: 0x8 }
  - { offset: 0x76649, size: 0x8, addend: 0x0, symName: __RNvXs7_NtCs7dfkhshTrE4_4core6optionINtB5_6OptionRNtNtNtB7_3ffi5c_str4CStrENtNtB7_7default7Default7defaultCs7Qj1RmEtpUo_4pyo3, symObjAddr: 0x3FF4, symBinAddr: 0x29460, symSize: 0x8 }
  - { offset: 0x76677, size: 0x8, addend: 0x0, symName: __RNvXsJ_NtCs7dfkhshTrE4_4core6optionINtB5_6OptionNtNtNtCs7Qj1RmEtpUo_4pyo33err9err_state20PyErrStateNormalizedENtNtNtB7_3ops9try_trait3Try6branchBQ_, symObjAddr: 0x4370, symBinAddr: 0x2948C, symSize: 0x40 }
  - { offset: 0x766D2, size: 0x8, addend: 0x0, symName: __RNvXsK_NtCs7dfkhshTrE4_4core6optionINtB5_6OptionNtNtCs7Qj1RmEtpUo_4pyo33err5PyErrEINtNtNtB7_3ops9try_trait12FromResidualIBy_NtNtB7_7convert10InfallibleEE13from_residualBO_, symObjAddr: 0x4464, symBinAddr: 0x2951C, symSize: 0x10 }
  - { offset: 0x7670B, size: 0x8, addend: 0x0, symName: __RNvXsR_NtCs7dfkhshTrE4_4core6optionINtB5_6OptionINtNtCs7Qj1RmEtpUo_4pyo38instance5BoundNtNtNtBP_5types9traceback11PyTracebackEENtNtB7_3fmt5Debug3fmtBP_, symObjAddr: 0x44DC, symBinAddr: 0x29584, symSize: 0x9C }
  - { offset: 0x76775, size: 0x8, addend: 0x0, symName: __RNvXsf_NtCs7dfkhshTrE4_4core6optionINtB5_6OptionFUKCONtNtCsgh2hkQkDkI2_8pyo3_ffi6object8PyObjectElENtNtB7_3cmp9PartialEq2eqCs7Qj1RmEtpUo_4pyo3, symObjAddr: 0x4AAC, symBinAddr: 0x29934, symSize: 0xAC }
  - { offset: 0x774E2, size: 0x8, addend: 0x0, symName: __RNvXsR_NtCs7dfkhshTrE4_4core4cellINtB5_6RefMutINtNtCs2iVXuAemrgm_5alloc3vec3VecNtNtNtCskXqYSXpV4rx_3std6thread2id8ThreadIdEENtNtNtB7_3ops5deref8DerefMut9deref_mutCs7Qj1RmEtpUo_4pyo3, symObjAddr: 0x44C4, symBinAddr: 0x2956C, symSize: 0x18 }
  - { offset: 0x7759D, size: 0x8, addend: 0x0, symName: __RNvXsO_NtCs7dfkhshTrE4_4core4cellNtB5_12BorrowRefMutNtNtNtB7_3ops4drop4Drop4dropCs7Qj1RmEtpUo_4pyo3, symObjAddr: 0x4484, symBinAddr: 0x2952C, symSize: 0x28 }
  - { offset: 0x7760D, size: 0x8, addend: 0x0, symName: __RNvXsQ_NtCs7dfkhshTrE4_4core4cellINtB5_6RefMutINtNtCs2iVXuAemrgm_5alloc3vec3VecNtNtNtCskXqYSXpV4rx_3std6thread2id8ThreadIdEENtNtNtB7_3ops5deref5Deref5derefCs7Qj1RmEtpUo_4pyo3, symObjAddr: 0x44AC, symBinAddr: 0x29554, symSize: 0x18 }
  - { offset: 0x78411, size: 0x8, addend: 0x0, symName: __RNvXsZ_NtNtCs7dfkhshTrE4_4core3fmt3numjNtB7_5Debug3fmtCs7Qj1RmEtpUo_4pyo3, symObjAddr: 0x4670, symBinAddr: 0x29688, symSize: 0x90 }
  - { offset: 0x78496, size: 0x8, addend: 0x0, symName: __RNvXs_NvNtNtCs7dfkhshTrE4_4core3fmt5Write9write_fmtQNtNtCs2iVXuAemrgm_5alloc6string6StringNtB4_12SpecWriteFmt14spec_write_fmtCs7Qj1RmEtpUo_4pyo3, symObjAddr: 0x47D0, symBinAddr: 0x297E8, symSize: 0x98 }
  - { offset: 0x784F8, size: 0x8, addend: 0x0, symName: __RNvYNtNtCs2iVXuAemrgm_5alloc6string6StringNtNtCs7dfkhshTrE4_4core3fmt5Write9write_fmtCs7Qj1RmEtpUo_4pyo3, symObjAddr: 0x4E00, symBinAddr: 0x29A90, symSize: 0x34 }
  - { offset: 0x7892D, size: 0x8, addend: 0x0, symName: __RNvXs_NtNtCs7dfkhshTrE4_4core5slice4iterRSINtNtB8_6option6OptionINtNtCs7Qj1RmEtpUo_4pyo38instance8BorrowedNtNtNtB15_5types3any5PyAnyEENtNtNtNtB8_4iter6traits7collect12IntoIterator9into_iterB15_, symObjAddr: 0x4780, symBinAddr: 0x29798, symSize: 0x50 }
  - { offset: 0x78B66, size: 0x8, addend: 0x0, symName: __RNvXNtCs7dfkhshTrE4_4core3anyNtNtCs2iVXuAemrgm_5alloc6string6StringNtB2_3Any7type_idCs7Qj1RmEtpUo_4pyo3, symObjAddr: 0x3ADC, symBinAddr: 0x29058, symSize: 0x20 }
  - { offset: 0x78BC0, size: 0x8, addend: 0x0, symName: __RNvXNtNtCs7dfkhshTrE4_4core3ops12control_flowINtB2_11ControlFlowReENtNtB4_9try_trait3Try11from_outputCs7Qj1RmEtpUo_4pyo3, symObjAddr: 0x3B98, symBinAddr: 0x29078, symSize: 0x10 }
  - { offset: 0x78BFE, size: 0x8, addend: 0x0, symName: __RNvXNtNtCs7dfkhshTrE4_4core3ops12control_flowINtB2_11ControlFlowReENtNtB4_9try_trait3Try6branchCs7Qj1RmEtpUo_4pyo3, symObjAddr: 0x3BA8, symBinAddr: 0x29088, symSize: 0x54 }
  - { offset: 0x78C7C, size: 0x8, addend: 0x0, symName: __RNvXs_NtNtCs7dfkhshTrE4_4core3ops12control_flowINtB4_11ControlFlowReEINtNtB6_9try_trait12FromResidualIBK_B12_NtNtB8_7convert10InfallibleEE13from_residualCs7Qj1RmEtpUo_4pyo3, symObjAddr: 0x4768, symBinAddr: 0x29780, symSize: 0x18 }
  - { offset: 0x78EC5, size: 0x8, addend: 0x0, symName: __RNvXs1_NtCs7dfkhshTrE4_4core7convertNtNtCs2iVXuAemrgm_5alloc6string6StringINtB5_4IntoINtNtBC_3vec3VechEE4intoCs7Qj1RmEtpUo_4pyo3, symObjAddr: 0x3E54, symBinAddr: 0x292C0, symSize: 0x14 }
  - { offset: 0x7929C, size: 0x8, addend: 0x0, symName: __RNvXsl_NtNtCs7Qj1RmEtpUo_4pyo35types5tupleTNtNtCs2iVXuAemrgm_5alloc6string6StringEINtNtB9_10conversion6IntoPyINtNtB9_8instance2PyNtNtB7_3any5PyAnyEE7into_pyB9_, symObjAddr: 0x4C70, symBinAddr: 0x299E0, symSize: 0x54 }
  - { offset: 0x79585, size: 0x8, addend: 0x0, symName: __RNCNCNvMs0_NtNtNtCs7Qj1RmEtpUo_4pyo35impl_7pyclass16lazy_type_objectNtB9_19LazyTypeObjectInner15get_or_try_init00Bf_, symObjAddr: 0x10DC, symBinAddr: 0x2755C, symSize: 0x2C }
  - { offset: 0x795C3, size: 0x8, addend: 0x0, symName: __RNCNvMs0_NtNtNtCs7Qj1RmEtpUo_4pyo35impl_7pyclass16lazy_type_objectNtB7_19LazyTypeObjectInner15get_or_try_init0Bd_, symObjAddr: 0x125C, symBinAddr: 0x276DC, symSize: 0x150 }
  - { offset: 0x7968B, size: 0x8, addend: 0x0, symName: __RNCNvMs0_NtNtNtCs7Qj1RmEtpUo_4pyo35impl_7pyclass16lazy_type_objectNtB7_19LazyTypeObjectInner15get_or_try_inits_0Bd_, symObjAddr: 0x13AC, symBinAddr: 0x2782C, symSize: 0xFC }
  - { offset: 0x79730, size: 0x8, addend: 0x0, symName: __RNCNvMs0_NtNtNtCs7Qj1RmEtpUo_4pyo35impl_7pyclass16lazy_type_objectNtB7_19LazyTypeObjectInner11ensure_init0Bd_, symObjAddr: 0x1108, symBinAddr: 0x27588, symSize: 0x154 }
  - { offset: 0x797BC, size: 0x8, addend: 0x0, symName: __RNCNvXNvMs0_NtNtNtCs7Qj1RmEtpUo_4pyo35impl_7pyclass16lazy_type_objectNtBa_19LazyTypeObjectInner11ensure_initNtB4_19InitializationGuardNtNtNtCs7dfkhshTrE4_4core3ops4drop4Drop4drop0Bg_, symObjAddr: 0x1530, symBinAddr: 0x279B0, symSize: 0x38 }
  - { offset: 0x797FA, size: 0x8, addend: 0x0, symName: __RNvXNvMs0_NtNtNtCs7Qj1RmEtpUo_4pyo35impl_7pyclass16lazy_type_objectNtB8_19LazyTypeObjectInner11ensure_initNtB2_19InitializationGuardNtNtNtCs7dfkhshTrE4_4core3ops4drop4Drop4drop, symObjAddr: 0x3BFC, symBinAddr: 0x290DC, symSize: 0x98 }
  - { offset: 0x798E1, size: 0x8, addend: 0x0, symName: __RNvNtNtNtCs7Qj1RmEtpUo_4pyo35impl_7pyclass16lazy_type_object18initialize_tp_dict, symObjAddr: 0x3838, symBinAddr: 0x28EA4, symSize: 0x1B4 }
  - { offset: 0x79991, size: 0x8, addend: 0x0, symName: __RNvNtNtNtCs7Qj1RmEtpUo_4pyo35impl_7pyclass16lazy_type_object21wrap_in_runtime_error, symObjAddr: 0x39EC, symBinAddr: 0x6BDA8, symSize: 0xF0 }
  - { offset: 0x79B5B, size: 0x8, addend: 0x0, symName: __RNvXs_NtNtCs7Qj1RmEtpUo_4pyo33err9err_stateNtNtCs2iVXuAemrgm_5alloc6string6StringNtB4_14PyErrArguments9argumentsB8_, symObjAddr: 0x4700, symBinAddr: 0x29718, symSize: 0x34 }
  - { offset: 0x79BAA, size: 0x8, addend: 0x0, symName: __RNvXs_NtNtCs7Qj1RmEtpUo_4pyo33err9err_stateTNtNtCs2iVXuAemrgm_5alloc6string6StringENtB4_14PyErrArguments9argumentsB8_, symObjAddr: 0x4734, symBinAddr: 0x2974C, symSize: 0x34 }
  - { offset: 0x79C57, size: 0x8, addend: 0x0, symName: __RNvXs3_NtNtNtCs7Qj1RmEtpUo_4pyo311conversions3std6stringNtNtCs2iVXuAemrgm_5alloc6string6StringNtNtBb_10conversion10ToPyObject9to_objectBb_, symObjAddr: 0x3F1C, symBinAddr: 0x29388, symSize: 0x34 }
  - { offset: 0x79CA2, size: 0x8, addend: 0x0, symName: __RNvXs6_NtNtNtCs7Qj1RmEtpUo_4pyo311conversions3std6stringNtNtCs2iVXuAemrgm_5alloc6string6StringINtNtBb_10conversion6IntoPyINtNtBb_8instance2PyNtNtNtBb_5types3any5PyAnyEE7into_py, symObjAddr: 0x3F50, symBinAddr: 0x293BC, symSize: 0x8C }
  - { offset: 0x79EE2, size: 0x8, addend: 0x0, symName: __RNCNvMs9_NtNtNtCskXqYSXpV4rx_3std4sync6poison5mutexINtB7_10MutexGuardINtNtCs2iVXuAemrgm_5alloc3vec3VecINtNtNtCs7dfkhshTrE4_4core3ptr8non_null7NonNullNtNtCsgh2hkQkDkI2_8pyo3_ffi6object8PyObjectEEE3new0Cs7Qj1RmEtpUo_4pyo3, symObjAddr: 0x1518, symBinAddr: 0x27998, symSize: 0x18 }
  - { offset: 0x79F7A, size: 0x8, addend: 0x0, symName: __RNvXsa_NtNtNtCskXqYSXpV4rx_3std4sync6poison5mutexINtB5_10MutexGuardINtNtCs2iVXuAemrgm_5alloc3vec3VecINtNtNtCs7dfkhshTrE4_4core3ptr8non_null7NonNullNtNtCsgh2hkQkDkI2_8pyo3_ffi6object8PyObjectEEENtNtNtB1H_3ops5deref5Deref5derefCs7Qj1RmEtpUo_4pyo3, symObjAddr: 0x493C, symBinAddr: 0x298A4, symSize: 0x1C }
  - { offset: 0x79FCC, size: 0x8, addend: 0x0, symName: __RNvXsb_NtNtNtCskXqYSXpV4rx_3std4sync6poison5mutexINtB5_10MutexGuardINtNtCs2iVXuAemrgm_5alloc3vec3VecINtNtNtCs7dfkhshTrE4_4core3ptr8non_null7NonNullNtNtCsgh2hkQkDkI2_8pyo3_ffi6object8PyObjectEEENtNtNtB1H_3ops5deref8DerefMut9deref_mutCs7Qj1RmEtpUo_4pyo3, symObjAddr: 0x4958, symBinAddr: 0x298C0, symSize: 0x1C }
  - { offset: 0x7A01E, size: 0x8, addend: 0x0, symName: __RNvXsc_NtNtNtCskXqYSXpV4rx_3std4sync6poison5mutexINtB5_10MutexGuardINtNtCs2iVXuAemrgm_5alloc3vec3VecINtNtNtCs7dfkhshTrE4_4core3ptr8non_null7NonNullNtNtCsgh2hkQkDkI2_8pyo3_ffi6object8PyObjectEEENtNtNtB1H_3ops4drop4Drop4dropCs7Qj1RmEtpUo_4pyo3, symObjAddr: 0x49E8, symBinAddr: 0x298DC, symSize: 0x58 }
  - { offset: 0x7A8B5, size: 0x8, addend: 0x0, symName: __RNvXNvMs_NtNtCs2iVXuAemrgm_5alloc3ffi5c_strNtB7_7CString3newNtNtBb_6string6StringNtB2_11SpecNewImpl13spec_new_implCs7Qj1RmEtpUo_4pyo3, symObjAddr: 0x3C94, symBinAddr: 0x29174, symSize: 0x12C }
  - { offset: 0x7AAAA, size: 0x8, addend: 0x0, symName: __RNvXsK_NtCs2iVXuAemrgm_5alloc6stringNtB5_6StringINtNtCs7dfkhshTrE4_4core7convert4FromReE4fromCs7Qj1RmEtpUo_4pyo3, symObjAddr: 0x4414, symBinAddr: 0x294CC, symSize: 0x50 }
  - { offset: 0x7AB97, size: 0x8, addend: 0x0, symName: __RNvXs20_NtCs2iVXuAemrgm_5alloc6stringReNtB6_12SpecToString14spec_to_stringCs7Qj1RmEtpUo_4pyo3, symObjAddr: 0x3EC0, symBinAddr: 0x2932C, symSize: 0x5C }
  - { offset: 0x7ACC0, size: 0x8, addend: 0x0, symName: __RNvXsB_NtCs2iVXuAemrgm_5alloc6stringReNtB5_8ToString9to_stringCs7Qj1RmEtpUo_4pyo3, symObjAddr: 0x4070, symBinAddr: 0x29468, symSize: 0x24 }
  - { offset: 0x7ACFD, size: 0x8, addend: 0x0, symName: __RNvXsZ_NtCs2iVXuAemrgm_5alloc6stringNtB5_6StringNtNtCs7dfkhshTrE4_4core3fmt5Write10write_charCs7Qj1RmEtpUo_4pyo3, symObjAddr: 0x4608, symBinAddr: 0x29620, symSize: 0x30 }
  - { offset: 0x7AD3A, size: 0x8, addend: 0x0, symName: __RNvXsZ_NtCs2iVXuAemrgm_5alloc6stringNtB5_6StringNtNtCs7dfkhshTrE4_4core3fmt5Write9write_strCs7Qj1RmEtpUo_4pyo3, symObjAddr: 0x4638, symBinAddr: 0x29650, symSize: 0x38 }
  - { offset: 0x7AD9B, size: 0x8, addend: 0x0, symName: __RNvXsx_NtCs2iVXuAemrgm_5alloc6stringNtB5_6StringNtNtNtCs7dfkhshTrE4_4core3ops5deref5Deref5derefCs7Qj1RmEtpUo_4pyo3, symObjAddr: 0x4DE0, symBinAddr: 0x29A70, symSize: 0x20 }
  - { offset: 0x7AE5A, size: 0x8, addend: 0x0, symName: __RNvXsq_NtCs2iVXuAemrgm_5alloc6stringNtB5_6StringNtNtCs7dfkhshTrE4_4core3fmt7Display3fmtCs7Qj1RmEtpUo_4pyo3, symObjAddr: 0x4DA4, symBinAddr: 0x29A34, symSize: 0x3C }
  - { offset: 0x7AF6B, size: 0x8, addend: 0x0, symName: __RNvXs0_NtCs2iVXuAemrgm_5alloc3strNtNtB7_6string6StringINtNtCs7dfkhshTrE4_4core6borrow6BorroweE6borrowCs7Qj1RmEtpUo_4pyo3, symObjAddr: 0x3DC0, symBinAddr: 0x292A0, symSize: 0x20 }
  - { offset: 0x7B296, size: 0x8, addend: 0x0, symName: __RNvNtCsgh2hkQkDkI2_8pyo3_ffi12methodobject17PyCFunction_NewExCs7Qj1RmEtpUo_4pyo3, symObjAddr: 0x2F28, symBinAddr: 0x28E6C, symSize: 0x38 }
  - { offset: 0x7B52F, size: 0x8, addend: 0x0, symName: __RINvMNtCs7dfkhshTrE4_4core6optionINtB3_6OptionINtNtCs7Qj1RmEtpUo_4pyo38instance2PyNtNtBN_10exceptions15PyBaseExceptionEE3mapNtNtNtBN_3err9err_state20PyErrStateNormalizedNCNvMB20_B1Y_4take0EBN_, symObjAddr: 0x70, symBinAddr: 0x26AD8, symSize: 0x50 }
  - { offset: 0x7B5BF, size: 0x8, addend: 0x0, symName: __RINvMNtCs7dfkhshTrE4_4core6optionINtB3_6OptionINtNtCs7Qj1RmEtpUo_4pyo38instance2PyNtNtBN_10exceptions15PyBaseExceptionEE6map_orONtNtCsgh2hkQkDkI2_8pyo3_ffi6object8PyObjectNvMsl_BL_BI_8into_ptrEBN_, symObjAddr: 0xC0, symBinAddr: 0x26B28, symSize: 0x9C }
  - { offset: 0x7B63E, size: 0x8, addend: 0x0, symName: __RINvMNtCs7dfkhshTrE4_4core6optionINtB3_6OptionINtNtCs7Qj1RmEtpUo_4pyo38instance2PyNtNtNtBN_5types3any5PyAnyEE3mapINtBL_5BoundB1i_ENCNvMs_BL_B1N_21from_owned_ptr_or_opt0EBN_, symObjAddr: 0x15C, symBinAddr: 0x26BC4, symSize: 0x5C }
  - { offset: 0x7B6C3, size: 0x8, addend: 0x0, symName: __RINvMNtCs7dfkhshTrE4_4core6optionINtB3_6OptionINtNtCs7Qj1RmEtpUo_4pyo38instance5BoundNtNtNtBN_5types3any5PyAnyEE3mapIBJ_NtNtB1p_9traceback11PyTracebackENCNvMNtNtBN_3err9err_stateNtB2v_20PyErrStateNormalized10ptraceback0EBN_, symObjAddr: 0x244, symBinAddr: 0x26C20, symSize: 0x50 }
  - { offset: 0x7B746, size: 0x8, addend: 0x0, symName: __RINvMNtCs7dfkhshTrE4_4core6optionINtB3_6OptionINtNtCs7Qj1RmEtpUo_4pyo38instance5BoundNtNtNtBN_5types3any5PyAnyEE3mapNtNtBN_3err5PyErrNvMs2_B1S_B1Q_16from_value_boundEBN_, symObjAddr: 0x294, symBinAddr: 0x26C70, symSize: 0x70 }
  - { offset: 0x7B7BE, size: 0x8, addend: 0x0, symName: __RINvMNtCs7dfkhshTrE4_4core6optionINtB3_6OptionINtNtNtB5_3ptr8non_null7NonNullNtNtCsgh2hkQkDkI2_8pyo3_ffi6object8PyObjectEE11map_or_elseINtNtB5_6result6ResultINtNtCs7Qj1RmEtpUo_4pyo38instance8BorrowedNtNtNtB2A_5types3any5PyAnyENtNtB2A_3err5PyErrENCNvMsa_B2y_B2v_15from_ptr_or_err0NCB3X_s_0EB2A_, symObjAddr: 0x304, symBinAddr: 0x26CE0, symSize: 0xC0 }
  - { offset: 0x7B88A, size: 0x8, addend: 0x0, symName: __RINvMNtCs7dfkhshTrE4_4core6optionINtB3_6OptionINtNtNtB5_3ptr8non_null7NonNullNtNtCsgh2hkQkDkI2_8pyo3_ffi6object8PyObjectEE14unwrap_or_elseNCNvMsa_NtCs7Qj1RmEtpUo_4pyo38instanceINtB2k_8BorrowedNtNtNtB2m_5types3any5PyAnyE8from_ptr0EB2m_, symObjAddr: 0x3C4, symBinAddr: 0x26DA0, symSize: 0x58 }
  - { offset: 0x7B8CE, size: 0x8, addend: 0x0, symName: __RINvMNtCs7dfkhshTrE4_4core6optionINtB3_6OptionINtNtNtB5_3ptr8non_null7NonNullNtNtCsgh2hkQkDkI2_8pyo3_ffi6object8PyObjectEE3mapINtNtCs7Qj1RmEtpUo_4pyo38instance2PyNtNtB25_10exceptions15PyBaseExceptionENCNvMsn_B23_B20_21from_owned_ptr_or_opt0EB25_, symObjAddr: 0x41C, symBinAddr: 0x26DF8, symSize: 0x50 }
  - { offset: 0x7B939, size: 0x8, addend: 0x0, symName: __RINvMNtCs7dfkhshTrE4_4core6optionINtB3_6OptionINtNtNtB5_3ptr8non_null7NonNullNtNtCsgh2hkQkDkI2_8pyo3_ffi6object8PyObjectEE3mapINtNtCs7Qj1RmEtpUo_4pyo38instance2PyNtNtNtB25_5types3any5PyAnyENCNvMsn_B23_B20_21from_owned_ptr_or_opt0EB25_, symObjAddr: 0x46C, symBinAddr: 0x26E48, symSize: 0x50 }
  - { offset: 0x7B9BC, size: 0x8, addend: 0x0, symName: __RINvMNtCs7dfkhshTrE4_4core6optionINtB3_6OptionNtNtCs7Qj1RmEtpUo_4pyo33err5PyErrE3mapINtNtBM_8instance2PyNtNtBM_10exceptions15PyBaseExceptionENCNvMs2_BK_BI_9set_cause0EBM_, symObjAddr: 0x540, symBinAddr: 0x26E98, symSize: 0x74 }
  - { offset: 0x7BA54, size: 0x8, addend: 0x0, symName: __RINvMNtCs7dfkhshTrE4_4core6optionINtB3_6OptionRINtNtCs7Qj1RmEtpUo_4pyo38instance2PyNtNtNtBO_5types6string8PyStringEE6map_orONtNtCsgh2hkQkDkI2_8pyo3_ffi6object8PyObjectNvMsl_BM_BJ_6as_ptrEBO_, symObjAddr: 0x740, symBinAddr: 0x26F0C, symSize: 0x9C }
  - { offset: 0x7BAF6, size: 0x8, addend: 0x0, symName: __RINvMNtCs7dfkhshTrE4_4core6optionINtB3_6OptionRINtNtCs7Qj1RmEtpUo_4pyo38instance5BoundNtNtNtBO_5types3any5PyAnyEE6map_orONtNtCsgh2hkQkDkI2_8pyo3_ffi6object8PyObjectNvMs7_BM_BJ_6as_ptrEBO_, symObjAddr: 0x82C, symBinAddr: 0x26FA8, symSize: 0x9C }
  - { offset: 0x7BBB4, size: 0x8, addend: 0x0, symName: __RINvMNtCs7dfkhshTrE4_4core6optionINtB3_6OptionRNtNtNtB5_3ffi5c_str4CStrE6map_orPaNvMs3_BL_BJ_6as_ptrECs7Qj1RmEtpUo_4pyo3, symObjAddr: 0x980, symBinAddr: 0x27044, symSize: 0xA8 }
  - { offset: 0x7BCDE, size: 0x8, addend: 0x0, symName: __RINvMNtCs7dfkhshTrE4_4core6optionINtB3_6OptionReE11map_or_elseNtNtCs2iVXuAemrgm_5alloc6string6StringNCNvNtB12_3fmt6format0NvYeNtNtB12_6borrow7ToOwned8to_ownedECs7Qj1RmEtpUo_4pyo3, symObjAddr: 0xA28, symBinAddr: 0x270EC, symSize: 0xC0 }
  - { offset: 0x7BD79, size: 0x8, addend: 0x0, symName: __RINvMNtCs7dfkhshTrE4_4core6optionINtB3_6OptionReE3mapNtNtNtCs2iVXuAemrgm_5alloc3ffi5c_str7CStringNCNvMs2_NtCs7Qj1RmEtpUo_4pyo33errNtB1F_5PyErr14new_type_bound0EB1H_, symObjAddr: 0xB60, symBinAddr: 0x271AC, symSize: 0x64 }
  - { offset: 0x7BE50, size: 0x8, addend: 0x0, symName: __RINvMs2_NtCseWmkDRwMMr9_9once_cell3impINtB6_8OnceCellNtNtCs7Qj1RmEtpUo_4pyo33gil13ReferencePoolE10initializeNCINvMs4_NtB8_4syncINtB1R_8OnceCellBP_E11get_or_initNCNvMs9_B1R_INtB1R_4LazyBP_E5force0E0NtNvMs4_B1R_IB22_pE11get_or_init4VoidEBT_, symObjAddr: 0xCC0, symBinAddr: 0x6BD24, symSize: 0x84 }
  - { offset: 0x7BF19, size: 0x8, addend: 0x0, symName: __RINvMs4_NtCseWmkDRwMMr9_9once_cell4syncINtB6_8OnceCellNtNtCs7Qj1RmEtpUo_4pyo33gil13ReferencePoolE11get_or_initNCNvMs9_B6_INtB6_4LazyBQ_E5force0EBU_, symObjAddr: 0xD44, symBinAddr: 0x27210, symSize: 0x34 }
  - { offset: 0x7BF5D, size: 0x8, addend: 0x0, symName: __RINvMs4_NtCseWmkDRwMMr9_9once_cell4syncINtB6_8OnceCellNtNtCs7Qj1RmEtpUo_4pyo33gil13ReferencePoolE15get_or_try_initNCINvB2_11get_or_initNCNvMs9_B6_INtB6_4LazyBQ_E5force0E0NtNvMs4_B6_IBC_pE11get_or_init4VoidEBU_, symObjAddr: 0xD78, symBinAddr: 0x27244, symSize: 0x128 }
  - { offset: 0x7C198, size: 0x8, addend: 0x0, symName: __RNvMNtCs2iVXuAemrgm_5alloc6stringNtB2_6String4pushCs7Qj1RmEtpUo_4pyo3, symObjAddr: 0x157C, symBinAddr: 0x279E8, symSize: 0x114 }
  - { offset: 0x7C558, size: 0x8, addend: 0x0, symName: __RNvMNtCs2iVXuAemrgm_5alloc6stringNtB2_6String8push_strCs7Qj1RmEtpUo_4pyo3, symObjAddr: 0x1690, symBinAddr: 0x27AFC, symSize: 0xDC }
  - { offset: 0x7C89C, size: 0x8, addend: 0x0, symName: __RNvMNtCs7dfkhshTrE4_4core6optionINtB2_6OptionFUKCONtNtCsgh2hkQkDkI2_8pyo3_ffi6object12PyTypeObjectiEONtBO_8PyObjectE9unwrap_orCs7Qj1RmEtpUo_4pyo3, symObjAddr: 0x176C, symBinAddr: 0x27BD8, symSize: 0x48 }
  - { offset: 0x7C8F1, size: 0x8, addend: 0x0, symName: __RNvMNtCs7dfkhshTrE4_4core6optionINtB2_6OptionINtNtCs7Qj1RmEtpUo_4pyo38instance2PyNtNtNtBM_5types10typeobject6PyTypeEE6as_refBM_, symObjAddr: 0x17B4, symBinAddr: 0x27C20, symSize: 0x4C }
  - { offset: 0x7C93B, size: 0x8, addend: 0x0, symName: __RNvMNtCs7dfkhshTrE4_4core6optionINtB2_6OptionINtNtCs7Qj1RmEtpUo_4pyo38instance2PyNtNtNtBM_5types10typeobject6PyTypeEE7is_someBM_, symObjAddr: 0x1800, symBinAddr: 0x27C6C, symSize: 0x28 }
  - { offset: 0x7C98E, size: 0x8, addend: 0x0, symName: __RNvMNtCs7dfkhshTrE4_4core6optionINtB2_6OptionINtNtCs7Qj1RmEtpUo_4pyo38instance2PyNtNtNtBM_5types6module8PyModuleEE6as_refBM_, symObjAddr: 0x189C, symBinAddr: 0x27C94, symSize: 0x4C }
  - { offset: 0x7C9D8, size: 0x8, addend: 0x0, symName: __RNvMNtCs7dfkhshTrE4_4core6optionINtB2_6OptionINtNtCs7Qj1RmEtpUo_4pyo38instance2PyNtNtNtBM_5types6module8PyModuleEE7is_someBM_, symObjAddr: 0x18E8, symBinAddr: 0x27CE0, symSize: 0x28 }
  - { offset: 0x7CA11, size: 0x8, addend: 0x0, symName: __RNvMNtCs7dfkhshTrE4_4core6optionINtB2_6OptionINtNtCs7Qj1RmEtpUo_4pyo38instance2PyNtNtNtBM_5types6string8PyStringEE6as_refBM_, symObjAddr: 0x1910, symBinAddr: 0x27D08, symSize: 0x4C }
  - { offset: 0x7CA5B, size: 0x8, addend: 0x0, symName: __RNvMNtCs7dfkhshTrE4_4core6optionINtB2_6OptionINtNtCs7Qj1RmEtpUo_4pyo38instance2PyNtNtNtBM_5types6string8PyStringEE7is_someBM_, symObjAddr: 0x195C, symBinAddr: 0x27D54, symSize: 0x28 }
  - { offset: 0x7CABD, size: 0x8, addend: 0x0, symName: __RNvMNtCs7dfkhshTrE4_4core6optionINtB2_6OptionINtNtCs7Qj1RmEtpUo_4pyo38instance8BorrowedNtNtNtBM_5types3any5PyAnyEE7is_noneBM_, symObjAddr: 0x19D0, symBinAddr: 0x27D7C, symSize: 0x28 }
  - { offset: 0x7CB07, size: 0x8, addend: 0x0, symName: __RNvMNtCs7dfkhshTrE4_4core6optionINtB2_6OptionNCINvMs4_NtCseWmkDRwMMr9_9once_cell4syncINtBQ_8OnceCellNtNtCs7Qj1RmEtpUo_4pyo33gil13ReferencePoolE11get_or_initNCNvMs9_BQ_INtBQ_4LazyB1A_E5force0E0E16unwrap_uncheckedB1E_, symObjAddr: 0x19F8, symBinAddr: 0x27DA4, symSize: 0x4C }
  - { offset: 0x7CB48, size: 0x8, addend: 0x0, symName: __RNvMNtCs7dfkhshTrE4_4core6optionINtB2_6OptionNCINvMs4_NtCseWmkDRwMMr9_9once_cell4syncINtBQ_8OnceCellNtNtCs7Qj1RmEtpUo_4pyo33gil13ReferencePoolE11get_or_initNCNvMs9_BQ_INtBQ_4LazyB1A_E5force0E0E4takeB1E_, symObjAddr: 0x1A44, symBinAddr: 0x27DF0, symSize: 0x20 }
  - { offset: 0x7CB9F, size: 0x8, addend: 0x0, symName: __RNvMNtCs7dfkhshTrE4_4core6optionINtB2_6OptionNtNtCs7Qj1RmEtpUo_4pyo33gil13ReferencePoolE6as_refBL_, symObjAddr: 0x1A64, symBinAddr: 0x27E10, symSize: 0x48 }
  - { offset: 0x7CC03, size: 0x8, addend: 0x0, symName: __RNvMNtCs7dfkhshTrE4_4core6optionINtB2_6OptionNtNtNtCs2iVXuAemrgm_5alloc3ffi5c_str7CStringE6as_refCs7Qj1RmEtpUo_4pyo3, symObjAddr: 0x1AAC, symBinAddr: 0x27E58, symSize: 0x4C }
  - { offset: 0x7CC5A, size: 0x8, addend: 0x0, symName: __RNvMNtCs7dfkhshTrE4_4core6optionINtB2_6OptionNtNtNtCs7Qj1RmEtpUo_4pyo33err9err_state10PyErrStateE4takeBN_, symObjAddr: 0x1AF8, symBinAddr: 0x27EA4, symSize: 0x3C }
  - { offset: 0x7CCA4, size: 0x8, addend: 0x0, symName: __RNvMNtCs7dfkhshTrE4_4core6optionINtB2_6OptionNtNtNtCs7Qj1RmEtpUo_4pyo33err9err_state10PyErrStateE6expectBN_, symObjAddr: 0x1B34, symBinAddr: 0x27EE0, symSize: 0x60 }
  - { offset: 0x7CCE0, size: 0x8, addend: 0x0, symName: __RNvMNtCs7dfkhshTrE4_4core6optionINtB2_6OptionNtNtNtCs7Qj1RmEtpUo_4pyo33err9err_state20PyErrStateNormalizedE6expectBN_, symObjAddr: 0x1B94, symBinAddr: 0x27F40, symSize: 0x5C }
  - { offset: 0x7CD81, size: 0x8, addend: 0x0, symName: __RNvMNtCs7dfkhshTrE4_4core6optionINtB2_6OptionNtNtNtCs7Qj1RmEtpUo_4pyo37pyclass18create_type_object17PyClassTypeObjectE6as_refBN_, symObjAddr: 0x1BF0, symBinAddr: 0x27F9C, symSize: 0x50 }
  - { offset: 0x7CDCB, size: 0x8, addend: 0x0, symName: __RNvMNtCs7dfkhshTrE4_4core6optionINtB2_6OptionNtNtNtCs7Qj1RmEtpUo_4pyo37pyclass18create_type_object17PyClassTypeObjectE7is_someBN_, symObjAddr: 0x1C40, symBinAddr: 0x27FEC, symSize: 0x2C }
  - { offset: 0x7CDF7, size: 0x8, addend: 0x0, symName: __RNvMNtCs7dfkhshTrE4_4core6optionINtB2_6OptionRNtNtCs7Qj1RmEtpUo_4pyo33gil13ReferencePoolE16unwrap_uncheckedBM_, symObjAddr: 0x1CB0, symBinAddr: 0x28018, symSize: 0x4C }
  - { offset: 0x7CE61, size: 0x8, addend: 0x0, symName: __RNvMNtCs7dfkhshTrE4_4core6optionINtB2_6OptionRNtNtNtB4_3ffi5c_str4CStrE7is_noneCs7Qj1RmEtpUo_4pyo3, symObjAddr: 0x1CFC, symBinAddr: 0x28064, symSize: 0x28 }
  - { offset: 0x7CEB8, size: 0x8, addend: 0x0, symName: __RNvMNtCs7dfkhshTrE4_4core6optionINtB2_6OptionReE7is_someCs7Qj1RmEtpUo_4pyo3, symObjAddr: 0x1D4C, symBinAddr: 0x2808C, symSize: 0x28 }
  - { offset: 0x7CEE4, size: 0x8, addend: 0x0, symName: __RNvMNtCs7dfkhshTrE4_4core6optionINtB2_6OptionReE9unwrap_orCs7Qj1RmEtpUo_4pyo3, symObjAddr: 0x1D74, symBinAddr: 0x280B4, symSize: 0x68 }
  - { offset: 0x7CF2C, size: 0x8, addend: 0x0, symName: __RNvMNtCs7dfkhshTrE4_4core6optionINtB2_6OptionRuE7is_someCs7Qj1RmEtpUo_4pyo3, symObjAddr: 0x1DDC, symBinAddr: 0x2811C, symSize: 0x28 }
  - { offset: 0x7CF65, size: 0x8, addend: 0x0, symName: __RNvMNtCs7dfkhshTrE4_4core6optionINtB2_6OptionuE6as_refCs7Qj1RmEtpUo_4pyo3, symObjAddr: 0x1E58, symBinAddr: 0x28144, symSize: 0x48 }
  - { offset: 0x7CFAF, size: 0x8, addend: 0x0, symName: __RNvMNtCs7dfkhshTrE4_4core6optionINtB2_6OptionuE7is_someCs7Qj1RmEtpUo_4pyo3, symObjAddr: 0x1EA0, symBinAddr: 0x2818C, symSize: 0x24 }
  - { offset: 0x7D0FC, size: 0x8, addend: 0x0, symName: __RNvMs0_NtNtNtCs7Qj1RmEtpUo_4pyo35impl_7pyclass16lazy_type_objectNtB5_19LazyTypeObjectInner11ensure_init, symObjAddr: 0x1EC4, symBinAddr: 0x281B0, symSize: 0x7B4 }
  - { offset: 0x7D3EC, size: 0x8, addend: 0x0, symName: __RNvMs0_NtNtNtCs7Qj1RmEtpUo_4pyo35impl_7pyclass16lazy_type_objectNtB5_19LazyTypeObjectInner15get_or_try_init, symObjAddr: 0x2678, symBinAddr: 0x28964, symSize: 0x98 }
  - { offset: 0x7D452, size: 0x8, addend: 0x0, symName: __RNvMs2_NtCseWmkDRwMMr9_9once_cell3impINtB5_8OnceCellNtNtCs7Qj1RmEtpUo_4pyo33gil13ReferencePoolE13get_uncheckedBS_, symObjAddr: 0x2710, symBinAddr: 0x289FC, symSize: 0xAC }
  - { offset: 0x7D49A, size: 0x8, addend: 0x0, symName: __RNvMs2_NtCseWmkDRwMMr9_9once_cell3impINtB5_8OnceCellNtNtCs7Qj1RmEtpUo_4pyo33gil13ReferencePoolE14is_initializedBS_, symObjAddr: 0x27BC, symBinAddr: 0x28AA8, symSize: 0x30 }
  - { offset: 0x7D4C5, size: 0x8, addend: 0x0, symName: __RNvMs4_NtCseWmkDRwMMr9_9once_cell4syncINtB5_8OnceCellNtNtCs7Qj1RmEtpUo_4pyo33gil13ReferencePoolE13get_uncheckedBT_, symObjAddr: 0x28A8, symBinAddr: 0x28AD8, symSize: 0x24 }
  - { offset: 0x7D4F1, size: 0x8, addend: 0x0, symName: __RNvMs4_NtCseWmkDRwMMr9_9once_cell4syncINtB5_8OnceCellNtNtCs7Qj1RmEtpUo_4pyo33gil13ReferencePoolE3getBT_, symObjAddr: 0x28CC, symBinAddr: 0x28AFC, symSize: 0x4C }
  - { offset: 0x7D55F, size: 0x8, addend: 0x0, symName: __RNvMs4_NtNtNtCskXqYSXpV4rx_3std4sync6poison5mutexINtB5_5MutexINtNtCs2iVXuAemrgm_5alloc3vec3VecINtNtNtCs7dfkhshTrE4_4core3ptr8non_null7NonNullNtNtCsgh2hkQkDkI2_8pyo3_ffi6object8PyObjectEEE3newCs7Qj1RmEtpUo_4pyo3, symObjAddr: 0x2918, symBinAddr: 0x28B48, symSize: 0x60 }
  - { offset: 0x7D670, size: 0x8, addend: 0x0, symName: __RNvMs5_NtNtNtCskXqYSXpV4rx_3std4sync6poison5mutexINtB5_5MutexINtNtCs2iVXuAemrgm_5alloc3vec3VecINtNtNtCs7dfkhshTrE4_4core3ptr8non_null7NonNullNtNtCsgh2hkQkDkI2_8pyo3_ffi6object8PyObjectEEE4lockCs7Qj1RmEtpUo_4pyo3, symObjAddr: 0x2C10, symBinAddr: 0x28BA8, symSize: 0x48 }
  - { offset: 0x7D72A, size: 0x8, addend: 0x0, symName: __RNvMs7_NtCs7dfkhshTrE4_4core4cellINtB5_4CellNtNtNtCs7Qj1RmEtpUo_4pyo36pycell5impl_10BorrowFlagE3setBM_, symObjAddr: 0x2C58, symBinAddr: 0x28BF0, symSize: 0x1C }
  - { offset: 0x7D7D5, size: 0x8, addend: 0x0, symName: __RNvMs7_NtCs7dfkhshTrE4_4core4cellINtB5_4CelliE3setCs7Qj1RmEtpUo_4pyo3, symObjAddr: 0x2C74, symBinAddr: 0x28C0C, symSize: 0x1C }
  - { offset: 0x7D84B, size: 0x8, addend: 0x0, symName: __RNvMs8_NtCs7dfkhshTrE4_4core4cellINtB5_4CellNtNtNtCs7Qj1RmEtpUo_4pyo36pycell5impl_10BorrowFlagE3getBM_, symObjAddr: 0x2CB4, symBinAddr: 0x28C28, symSize: 0x18 }
  - { offset: 0x7D877, size: 0x8, addend: 0x0, symName: __RNvMs8_NtCs7dfkhshTrE4_4core4cellINtB5_4CelliE3getCs7Qj1RmEtpUo_4pyo3, symObjAddr: 0x2CCC, symBinAddr: 0x28C40, symSize: 0x18 }
  - { offset: 0x7D8A3, size: 0x8, addend: 0x0, symName: __RNvMs9_NtCseWmkDRwMMr9_9once_cell4syncINtB5_4LazyNtNtCs7Qj1RmEtpUo_4pyo33gil13ReferencePoolE3getBP_, symObjAddr: 0x2CE4, symBinAddr: 0x28C58, symSize: 0x24 }
  - { offset: 0x7D8D8, size: 0x8, addend: 0x0, symName: __RNvMs9_NtCseWmkDRwMMr9_9once_cell4syncINtB5_4LazyNtNtCs7Qj1RmEtpUo_4pyo33gil13ReferencePoolE5forceBP_, symObjAddr: 0x2D08, symBinAddr: 0x28C7C, symSize: 0x2C }
  - { offset: 0x7D942, size: 0x8, addend: 0x0, symName: __RNvMsa_NtCs7dfkhshTrE4_4core4cellINtB5_4CellINtNtB7_6option6OptionFENtNtCs7Qj1RmEtpUo_4pyo33gil13ReferencePoolEE4takeB18_, symObjAddr: 0x2D34, symBinAddr: 0x28CA8, symSize: 0x3C }
  - { offset: 0x7DA17, size: 0x8, addend: 0x0, symName: __RNvMss_NtCs7dfkhshTrE4_4core4cellINtB5_7RefCellINtNtCs2iVXuAemrgm_5alloc3vec3VecNtNtNtCskXqYSXpV4rx_3std6thread2id8ThreadIdEE7replaceCs7Qj1RmEtpUo_4pyo3, symObjAddr: 0x2D70, symBinAddr: 0x28CE4, symSize: 0xDC }
  - { offset: 0x7DB97, size: 0x8, addend: 0x0, symName: __RNvMst_NtCs7dfkhshTrE4_4core4cellINtB5_7RefCellINtNtCs2iVXuAemrgm_5alloc3vec3VecNtNtNtCskXqYSXpV4rx_3std6thread2id8ThreadIdEE10borrow_mutCs7Qj1RmEtpUo_4pyo3, symObjAddr: 0x2E4C, symBinAddr: 0x28DC0, symSize: 0xAC }
  - { offset: 0x7DE14, size: 0x8, addend: 0x0, symName: __RNvXs1_NtCsfTBDVhxuWss_9hashbrown10scopeguardINtB5_10ScopeGuardNtNtB7_3raw13RawTableInnerNCINvMsa_B11_BZ_14prepare_resizeNtNtCs2iVXuAemrgm_5alloc5alloc6GlobalE0ENtNtNtCs7dfkhshTrE4_4core3ops4drop4Drop4dropCs7Qj1RmEtpUo_4pyo3, symObjAddr: 0x3E68, symBinAddr: 0x292D4, symSize: 0x2C }
  - { offset: 0x7DE4E, size: 0x8, addend: 0x0, symName: __RNvXs1_NtCsfTBDVhxuWss_9hashbrown10scopeguardINtB5_10ScopeGuardQNtNtB7_3raw13RawTableInnerNCNvMsa_B12_B10_15rehash_in_place0ENtNtNtCs7dfkhshTrE4_4core3ops4drop4Drop4dropCs7Qj1RmEtpUo_4pyo3, symObjAddr: 0x3E94, symBinAddr: 0x29300, symSize: 0x2C }
  - { offset: 0x7E63F, size: 0x8, addend: 0x0, symName: __RNCINvMs2_NtCs7Qj1RmEtpUo_4pyo33errNtB8_5PyErr3newNtNtBa_10exceptions11PyTypeErrorNtB8_24PyDowncastErrorArgumentsE0Ba_, symObjAddr: 0x1E9C, symBinAddr: 0x2A568, symSize: 0xD4 }
  - { offset: 0x7E698, size: 0x8, addend: 0x0, symName: __RNCINvMs2_NtCs7Qj1RmEtpUo_4pyo33errNtB8_5PyErr3newNtNtBa_10exceptions11PyTypeErrorNtNtCs2iVXuAemrgm_5alloc6string6StringE0Ba_, symObjAddr: 0x1F70, symBinAddr: 0x2A63C, symSize: 0xD4 }
  - { offset: 0x7E6F1, size: 0x8, addend: 0x0, symName: __RNCINvMs2_NtCs7Qj1RmEtpUo_4pyo33errNtB8_5PyErr3newNtNtBa_10exceptions12PyValueErrorNtNtNtCs2iVXuAemrgm_5alloc3ffi5c_str8NulErrorE0Ba_, symObjAddr: 0x2288, symBinAddr: 0x2A710, symSize: 0xD4 }
  - { offset: 0x7E74A, size: 0x8, addend: 0x0, symName: __RNCINvMs2_NtCs7Qj1RmEtpUo_4pyo33errNtB8_5PyErr3newNtNtBa_10exceptions12PyValueErrorReE0Ba_, symObjAddr: 0x26E8, symBinAddr: 0x2A7E4, symSize: 0xC0 }
  - { offset: 0x7E7A2, size: 0x8, addend: 0x0, symName: __RNCINvMs2_NtCs7Qj1RmEtpUo_4pyo33errNtB8_5PyErr3newNtNtBa_10exceptions13PyImportErrorReE0Ba_, symObjAddr: 0x27A8, symBinAddr: 0x2A8A4, symSize: 0xC0 }
  - { offset: 0x7E7FA, size: 0x8, addend: 0x0, symName: __RNCINvMs2_NtCs7Qj1RmEtpUo_4pyo33errNtB8_5PyErr3newNtNtBa_10exceptions14PyRuntimeErrorNtNtCs2iVXuAemrgm_5alloc6string6StringE0Ba_, symObjAddr: 0x2868, symBinAddr: 0x2A964, symSize: 0xD4 }
  - { offset: 0x7E853, size: 0x8, addend: 0x0, symName: __RNCINvMs2_NtCs7Qj1RmEtpUo_4pyo33errNtB8_5PyErr3newNtNtBa_10exceptions15PyOverflowErrorNtNtCs2iVXuAemrgm_5alloc6string6StringE0Ba_, symObjAddr: 0x29FC, symBinAddr: 0x2AA38, symSize: 0xD4 }
  - { offset: 0x7E8AC, size: 0x8, addend: 0x0, symName: __RNCINvMs2_NtCs7Qj1RmEtpUo_4pyo33errNtB8_5PyErr3newNtNtBa_5panic14PanicExceptionTNtNtCs2iVXuAemrgm_5alloc6string6StringEE0Ba_, symObjAddr: 0x36E8, symBinAddr: 0x2AB0C, symSize: 0xD4 }
  - { offset: 0x7E905, size: 0x8, addend: 0x0, symName: __RNCINvMs2_NtCs7Qj1RmEtpUo_4pyo33errNtB8_5PyErr3newNtNtBa_5panic14PanicExceptionTReEE0Ba_, symObjAddr: 0x37BC, symBinAddr: 0x2ABE0, symSize: 0xC0 }
  - { offset: 0x7E963, size: 0x8, addend: 0x0, symName: __RNCNvMs2_NtCs7Qj1RmEtpUo_4pyo33errNtB7_5PyErr14new_type_bound0B9_, symObjAddr: 0x3898, symBinAddr: 0x2ACA0, symSize: 0x50 }
  - { offset: 0x7E9A9, size: 0x8, addend: 0x0, symName: __RNCNvMs2_NtCs7Qj1RmEtpUo_4pyo33errNtB7_5PyErr5__take0B9_, symObjAddr: 0x38E8, symBinAddr: 0x2ACF0, symSize: 0x7C }
  - { offset: 0x7E9E2, size: 0x8, addend: 0x0, symName: __RNCNvMs2_NtCs7Qj1RmEtpUo_4pyo33errNtB7_5PyErr5__takes_0B9_, symObjAddr: 0x3964, symBinAddr: 0x2AD6C, symSize: 0x64 }
  - { offset: 0x7EA2C, size: 0x8, addend: 0x0, symName: __RNCNvMs2_NtCs7Qj1RmEtpUo_4pyo33errNtB7_5PyErr9set_cause0B9_, symObjAddr: 0x39C8, symBinAddr: 0x2ADD0, symSize: 0x34 }
  - { offset: 0x7F570, size: 0x8, addend: 0x0, symName: __RINvNtCs7Qj1RmEtpUo_4pyo33err17error_on_minusonelEB4_, symObjAddr: 0x1C4C, symBinAddr: 0x2A318, symSize: 0xC0 }
  - { offset: 0x7F5C2, size: 0x8, addend: 0x0, symName: __RINvNtCs7Qj1RmEtpUo_4pyo33err17error_on_minusonexEB4_, symObjAddr: 0x1D0C, symBinAddr: 0x2A3D8, symSize: 0xC0 }
  - { offset: 0x7F61E, size: 0x8, addend: 0x0, symName: __RNCNvXs3_NtCs7Qj1RmEtpUo_4pyo33errNtB7_5PyErrNtNtCs7dfkhshTrE4_4core3fmt5Debug3fmt0B9_, symObjAddr: 0x3A18, symBinAddr: 0x2AE04, symSize: 0x16C }
  - { offset: 0x7F67D, size: 0x8, addend: 0x0, symName: __RNvXs3_NtCs7Qj1RmEtpUo_4pyo33errNtB5_5PyErrNtNtCs7dfkhshTrE4_4core3fmt5Debug3fmt, symObjAddr: 0x6018, symBinAddr: 0x2C0A0, symSize: 0x38 }
  - { offset: 0x7F6BB, size: 0x8, addend: 0x0, symName: __RNvNtCs7Qj1RmEtpUo_4pyo33err17panic_after_error, symObjAddr: 0x5790, symBinAddr: 0x2BF08, symSize: 0x30 }
  - { offset: 0x7F6FB, size: 0x8, addend: 0x0, symName: __RNvXsh_NtNtCs7Qj1RmEtpUo_4pyo33err5implsNtB7_5PyErrINtNtCs7dfkhshTrE4_4core7convert4FromNtNtNtCs2iVXuAemrgm_5alloc3ffi5c_str8NulErrorE4from, symObjAddr: 0x6CA8, symBinAddr: 0x2C514, symSize: 0x34 }
  - { offset: 0x7F72F, size: 0x8, addend: 0x0, symName: __RNvXs9_NtCs7Qj1RmEtpUo_4pyo33errNtB5_24PyDowncastErrorArgumentsNtNtB5_9err_state14PyErrArguments9arguments, symObjAddr: 0x6268, symBinAddr: 0x2C108, symSize: 0x230 }
  - { offset: 0x7F819, size: 0x8, addend: 0x0, symName: __RNvXsb_NtCs7Qj1RmEtpUo_4pyo33errNtB5_5PyErrINtNtCs7dfkhshTrE4_4core7convert4FromNtB5_13DowncastErrorE4from, symObjAddr: 0x69C8, symBinAddr: 0x2C338, symSize: 0xE8 }
  - { offset: 0x7F86C, size: 0x8, addend: 0x0, symName: __RNvXse_NtCs7Qj1RmEtpUo_4pyo33errNtB5_5PyErrINtNtCs7dfkhshTrE4_4core7convert4FromNtB5_17DowncastIntoErrorE4from, symObjAddr: 0x6B3C, symBinAddr: 0x2C420, symSize: 0xF4 }
  - { offset: 0x7FE30, size: 0x8, addend: 0x0, symName: __RINvNtCs7Qj1RmEtpUo_4pyo315internal_tricks12ptr_from_refINtNtB4_8instance2PyNtNtB4_10exceptions15PyBaseExceptionEEB4_, symObjAddr: 0x19E8, symBinAddr: 0x2A200, symSize: 0x14 }
  - { offset: 0x7FE65, size: 0x8, addend: 0x0, symName: __RINvNtCs7Qj1RmEtpUo_4pyo315internal_tricks12ptr_from_refINtNtB4_8instance2PyNtNtNtB4_5types10typeobject6PyTypeEEB4_, symObjAddr: 0x19FC, symBinAddr: 0x2A214, symSize: 0x14 }
  - { offset: 0x7FE9A, size: 0x8, addend: 0x0, symName: __RINvNtCs7Qj1RmEtpUo_4pyo315internal_tricks12ptr_from_refINtNtB4_8instance2PyNtNtNtB4_5types6module8PyModuleEEB4_, symObjAddr: 0x1A24, symBinAddr: 0x2A228, symSize: 0x14 }
  - { offset: 0x7FECF, size: 0x8, addend: 0x0, symName: __RINvNtCs7Qj1RmEtpUo_4pyo315internal_tricks12ptr_from_refINtNtB4_8instance2PyNtNtNtB4_5types6string8PyStringEEB4_, symObjAddr: 0x1A38, symBinAddr: 0x2A23C, symSize: 0x14 }
  - { offset: 0x7FF04, size: 0x8, addend: 0x0, symName: __RINvNtCs7Qj1RmEtpUo_4pyo315internal_tricks12ptr_from_refINtNtB4_8instance5BoundNtNtB4_10exceptions15PyBaseExceptionEEB4_, symObjAddr: 0x1A4C, symBinAddr: 0x2A250, symSize: 0x14 }
  - { offset: 0x7FF39, size: 0x8, addend: 0x0, symName: __RINvNtCs7Qj1RmEtpUo_4pyo315internal_tricks12ptr_from_refINtNtB4_8instance5BoundNtNtNtB4_5types10typeobject6PyTypeEEB4_, symObjAddr: 0x1A60, symBinAddr: 0x2A264, symSize: 0x14 }
  - { offset: 0x7FF6E, size: 0x8, addend: 0x0, symName: __RINvNtCs7Qj1RmEtpUo_4pyo315internal_tricks12ptr_from_refINtNtB4_8instance5BoundNtNtNtB4_5types3any5PyAnyEEB4_, symObjAddr: 0x1A74, symBinAddr: 0x2A278, symSize: 0x14 }
  - { offset: 0x7FFA3, size: 0x8, addend: 0x0, symName: __RINvNtCs7Qj1RmEtpUo_4pyo315internal_tricks12ptr_from_refINtNtB4_8instance5BoundNtNtNtB4_5types6module8PyModuleEEB4_, symObjAddr: 0x1AD8, symBinAddr: 0x2A28C, symSize: 0x14 }
  - { offset: 0x7FFD8, size: 0x8, addend: 0x0, symName: __RINvNtCs7Qj1RmEtpUo_4pyo315internal_tricks12ptr_from_refINtNtB4_8instance5BoundNtNtNtB4_5types6string8PyStringEEB4_, symObjAddr: 0x1AEC, symBinAddr: 0x2A2A0, symSize: 0x14 }
  - { offset: 0x8000D, size: 0x8, addend: 0x0, symName: __RINvNtCs7Qj1RmEtpUo_4pyo315internal_tricks12ptr_from_refINtNtB4_8instance5BoundNtNtNtB4_5types8function11PyCFunctionEEB4_, symObjAddr: 0x1B00, symBinAddr: 0x2A2B4, symSize: 0x14 }
  - { offset: 0x80042, size: 0x8, addend: 0x0, symName: __RINvNtCs7Qj1RmEtpUo_4pyo315internal_tricks12ptr_from_refINtNtB4_8instance5BoundNtNtNtB4_5types9traceback11PyTracebackEEB4_, symObjAddr: 0x1B3C, symBinAddr: 0x2A2C8, symSize: 0x14 }
  - { offset: 0x80077, size: 0x8, addend: 0x0, symName: __RINvNtCs7Qj1RmEtpUo_4pyo315internal_tricks12ptr_from_refINtNtNtCs7dfkhshTrE4_4core3ptr8non_null7NonNullNtNtCsgh2hkQkDkI2_8pyo3_ffi6object8PyObjectEEB4_, symObjAddr: 0x1B50, symBinAddr: 0x2A2DC, symSize: 0x14 }
  - { offset: 0x800AC, size: 0x8, addend: 0x0, symName: __RINvNtCs7Qj1RmEtpUo_4pyo315internal_tricks12ptr_from_refNtNtNtB4_7pyclass18create_type_object15GetterAndSetterEB4_, symObjAddr: 0x1B64, symBinAddr: 0x2A2F0, symSize: 0x14 }
  - { offset: 0x800E1, size: 0x8, addend: 0x0, symName: __RINvNtCs7Qj1RmEtpUo_4pyo315internal_tricks12ptr_from_refONtNtCsgh2hkQkDkI2_8pyo3_ffi6object8PyObjectEB4_, symObjAddr: 0x1B78, symBinAddr: 0x2A304, symSize: 0x14 }
  - { offset: 0x80121, size: 0x8, addend: 0x0, symName: __RNvXNtCs7Qj1RmEtpUo_4pyo310conversiondNtB2_17FromPyObjectBound20from_py_object_boundB4_, symObjAddr: 0x5CBC, symBinAddr: 0x2BFD8, symSize: 0x34 }
  - { offset: 0x80158, size: 0x8, addend: 0x0, symName: __RNvXNtCs7Qj1RmEtpUo_4pyo310conversionjNtB2_17FromPyObjectBound20from_py_object_boundB4_, symObjAddr: 0x5D58, symBinAddr: 0x2C00C, symSize: 0x34 }
  - { offset: 0x8018F, size: 0x8, addend: 0x0, symName: __RNvXNtCs7Qj1RmEtpUo_4pyo310conversionyNtB2_17FromPyObjectBound20from_py_object_boundB4_, symObjAddr: 0x5EF8, symBinAddr: 0x2C040, symSize: 0x34 }
  - { offset: 0x801D2, size: 0x8, addend: 0x0, symName: __RNvXsm_NtCs7Qj1RmEtpUo_4pyo36pycellNtNtB7_3err5PyErrINtNtCs7dfkhshTrE4_4core7convert4FromNtB5_13PyBorrowErrorE4from, symObjAddr: 0x6D74, symBinAddr: 0x2C548, symSize: 0x38 }
  - { offset: 0x803C3, size: 0x8, addend: 0x0, symName: __RNvNvMs1_NtNtCs7dfkhshTrE4_4core3ptr8non_nullINtB7_7NonNullpE13new_unchecked18precondition_checkCs7Qj1RmEtpUo_4pyo3, symObjAddr: 0x5AA4, symBinAddr: 0x2BF80, symSize: 0x58 }
  - { offset: 0x80692, size: 0x8, addend: 0x0, symName: __RNvXs2_NtNtCs7dfkhshTrE4_4core5array4iterINtB5_8IntoIterINtNtCs7Qj1RmEtpUo_4pyo38instance2PyNtNtNtBX_5types3any5PyAnyEKj1_ENtNtNtNtB9_4iter6traits8iterator8Iterator4nextBX_, symObjAddr: 0x5F68, symBinAddr: 0x2C074, symSize: 0x2C }
  - { offset: 0x806FD, size: 0x8, addend: 0x0, symName: __RNvXs4_NtNtCs7dfkhshTrE4_4core5array4iterINtB5_8IntoIterINtNtCs7Qj1RmEtpUo_4pyo38instance2PyNtNtNtBX_5types3any5PyAnyEKj1_ENtNtNtB9_3ops4drop4Drop4dropBX_, symObjAddr: 0x60A4, symBinAddr: 0x2C0D8, symSize: 0x30 }
  - { offset: 0x807F9, size: 0x8, addend: 0x0, symName: __RNvNtNtCs7dfkhshTrE4_4core3str8converts19from_utf8_uncheckedCs7Qj1RmEtpUo_4pyo3, symObjAddr: 0x5A8C, symBinAddr: 0x2BF68, symSize: 0x18 }
  - { offset: 0x80FA2, size: 0x8, addend: 0x0, symName: __RINvXs2_NtNtCs7dfkhshTrE4_4core4hash5implsSaNtB8_4Hash4hashNtNtNtCskXqYSXpV4rx_3std4hash6random13DefaultHasherECs7Qj1RmEtpUo_4pyo3, symObjAddr: 0x1DCC, symBinAddr: 0x2A498, symSize: 0x50 }
  - { offset: 0x80FF3, size: 0x8, addend: 0x0, symName: __RINvXsc_NtNtCs7dfkhshTrE4_4core4hash5implsaNtB8_4Hash10hash_sliceNtNtNtCskXqYSXpV4rx_3std4hash6random13DefaultHasherECs7Qj1RmEtpUo_4pyo3, symObjAddr: 0x1E1C, symBinAddr: 0x2A4E8, symSize: 0x80 }
  - { offset: 0x81868, size: 0x8, addend: 0x0, symName: __RNvYINtNtNtCs7dfkhshTrE4_4core5array4iter8IntoIterINtNtCs7Qj1RmEtpUo_4pyo38instance2PyNtNtNtBR_5types3any5PyAnyEKj1_ENtNtNtNtB9_4iter6traits8iterator8Iterator9enumerateBR_, symObjAddr: 0x6E40, symBinAddr: 0x2C580, symSize: 0x18 }
  - { offset: 0x81899, size: 0x8, addend: 0x0, symName: __RNvYINtNtNtCs7dfkhshTrE4_4core5array4iter8IntoIterINtNtCs7Qj1RmEtpUo_4pyo38instance2PyNtNtNtBR_5types3any5PyAnyEKj1_ENtNtNtNtB9_4iter6traits8iterator8Iterator9enumerateBR_, symObjAddr: 0x6E40, symBinAddr: 0x2C580, symSize: 0x18 }
  - { offset: 0x8193B, size: 0x8, addend: 0x0, symName: __RNvNtCsgh2hkQkDkI2_8pyo3_ffi10longobject12PyLong_CheckCs7Qj1RmEtpUo_4pyo3, symObjAddr: 0x5970, symBinAddr: 0x2BF38, symSize: 0x30 }
  - { offset: 0x8211F, size: 0x8, addend: 0x0, symName: __RINvMs0_NtCs7Qj1RmEtpUo_4pyo33errNtB6_13DowncastError3newReEB8_, symObjAddr: 0x68, symBinAddr: 0x29AC4, symSize: 0xB0 }
  - { offset: 0x82158, size: 0x8, addend: 0x0, symName: __RINvMs1_NtCs7Qj1RmEtpUo_4pyo33errNtB6_17DowncastIntoError3newReEB8_, symObjAddr: 0x118, symBinAddr: 0x29B74, symSize: 0x98 }
  - { offset: 0x821ED, size: 0x8, addend: 0x0, symName: __RINvMs2_NtCs7Qj1RmEtpUo_4pyo33errNtB6_5PyErr14is_instance_ofNtNtB8_10exceptions16PyAttributeErrorEB8_, symObjAddr: 0x234, symBinAddr: 0x29C0C, symSize: 0x84 }
  - { offset: 0x82241, size: 0x8, addend: 0x0, symName: __RINvMs2_NtCs7Qj1RmEtpUo_4pyo33errNtB6_5PyErr3newNtNtB8_10exceptions11PyTypeErrorNtB6_24PyDowncastErrorArgumentsEB8_, symObjAddr: 0x75C, symBinAddr: 0x29C90, symSize: 0x9C }
  - { offset: 0x822A0, size: 0x8, addend: 0x0, symName: __RINvMs2_NtCs7Qj1RmEtpUo_4pyo33errNtB6_5PyErr3newNtNtB8_10exceptions11PyTypeErrorNtNtCs2iVXuAemrgm_5alloc6string6StringEB8_, symObjAddr: 0x7F8, symBinAddr: 0x29D2C, symSize: 0x9C }
  - { offset: 0x822FF, size: 0x8, addend: 0x0, symName: __RINvMs2_NtCs7Qj1RmEtpUo_4pyo33errNtB6_5PyErr3newNtNtB8_10exceptions12PyValueErrorNtNtNtCs2iVXuAemrgm_5alloc3ffi5c_str8NulErrorEB8_, symObjAddr: 0xA30, symBinAddr: 0x29DC8, symSize: 0x9C }
  - { offset: 0x8235E, size: 0x8, addend: 0x0, symName: __RINvMs2_NtCs7Qj1RmEtpUo_4pyo33errNtB6_5PyErr3newNtNtB8_10exceptions12PyValueErrorReEB8_, symObjAddr: 0xD10, symBinAddr: 0x29E64, symSize: 0x98 }
  - { offset: 0x823BC, size: 0x8, addend: 0x0, symName: __RINvMs2_NtCs7Qj1RmEtpUo_4pyo33errNtB6_5PyErr3newNtNtB8_10exceptions13PyImportErrorReEB8_, symObjAddr: 0xDA8, symBinAddr: 0x29EFC, symSize: 0x98 }
  - { offset: 0x8241A, size: 0x8, addend: 0x0, symName: __RINvMs2_NtCs7Qj1RmEtpUo_4pyo33errNtB6_5PyErr3newNtNtB8_10exceptions14PyRuntimeErrorNtNtCs2iVXuAemrgm_5alloc6string6StringEB8_, symObjAddr: 0xE40, symBinAddr: 0x29F94, symSize: 0x9C }
  - { offset: 0x82479, size: 0x8, addend: 0x0, symName: __RINvMs2_NtCs7Qj1RmEtpUo_4pyo33errNtB6_5PyErr3newNtNtB8_10exceptions15PyOverflowErrorNtNtCs2iVXuAemrgm_5alloc6string6StringEB8_, symObjAddr: 0xF68, symBinAddr: 0x2A030, symSize: 0x9C }
  - { offset: 0x824D8, size: 0x8, addend: 0x0, symName: __RINvMs2_NtCs7Qj1RmEtpUo_4pyo33errNtB6_5PyErr3newNtNtB8_5panic14PanicExceptionTNtNtCs2iVXuAemrgm_5alloc6string6StringEEB8_, symObjAddr: 0x18B4, symBinAddr: 0x2A0CC, symSize: 0x9C }
  - { offset: 0x82537, size: 0x8, addend: 0x0, symName: __RINvMs2_NtCs7Qj1RmEtpUo_4pyo33errNtB6_5PyErr3newNtNtB8_5panic14PanicExceptionTReEEB8_, symObjAddr: 0x1950, symBinAddr: 0x2A168, symSize: 0x98 }
  - { offset: 0x825D4, size: 0x8, addend: 0x0, symName: __RNvMs1_NtCs7Qj1RmEtpUo_4pyo33errNtB5_17DowncastIntoError10into_inner, symObjAddr: 0x3F94, symBinAddr: 0x2AF70, symSize: 0x28 }
  - { offset: 0x8262F, size: 0x8, addend: 0x0, symName: __RNvMs1_NtNtCs7dfkhshTrE4_4core3ptr8non_nullINtB5_7NonNullNtNtCsgh2hkQkDkI2_8pyo3_ffi6object8PyObjectE13new_uncheckedCs7Qj1RmEtpUo_4pyo3, symObjAddr: 0x3FBC, symBinAddr: 0x2AF98, symSize: 0x3C }
  - { offset: 0x82675, size: 0x8, addend: 0x0, symName: __RNvMs1_NtNtCs7dfkhshTrE4_4core3ptr8non_nullINtB5_7NonNullNtNtCsgh2hkQkDkI2_8pyo3_ffi6object8PyObjectE3newCs7Qj1RmEtpUo_4pyo3, symObjAddr: 0x3FF8, symBinAddr: 0x2AFD4, symSize: 0x58 }
  - { offset: 0x826D3, size: 0x8, addend: 0x0, symName: __RNvMs2_NtCs7Qj1RmEtpUo_4pyo33errNtB5_5PyErr10from_stateB7_, symObjAddr: 0x4050, symBinAddr: 0x2B02C, symSize: 0x44 }
  - { offset: 0x82714, size: 0x8, addend: 0x0, symName: __RNvMs2_NtCs7Qj1RmEtpUo_4pyo33errNtB5_5PyErr10into_value, symObjAddr: 0x4094, symBinAddr: 0x2B070, symSize: 0x128 }
  - { offset: 0x827A2, size: 0x8, addend: 0x0, symName: __RNvMs2_NtCs7Qj1RmEtpUo_4pyo33errNtB5_5PyErr10normalizedB7_, symObjAddr: 0x41BC, symBinAddr: 0x2B198, symSize: 0xCC }
  - { offset: 0x82803, size: 0x8, addend: 0x0, symName: __RNvMs2_NtCs7Qj1RmEtpUo_4pyo33errNtB5_5PyErr11value_bound, symObjAddr: 0x43E4, symBinAddr: 0x2B264, symSize: 0x28 }
  - { offset: 0x82841, size: 0x8, addend: 0x0, symName: __RNvMs2_NtCs7Qj1RmEtpUo_4pyo33errNtB5_5PyErr14get_type_bound, symObjAddr: 0x440C, symBinAddr: 0x2B28C, symSize: 0x28 }
  - { offset: 0x82899, size: 0x8, addend: 0x0, symName: __RNvMs2_NtCs7Qj1RmEtpUo_4pyo33errNtB5_5PyErr14new_type_bound, symObjAddr: 0x4434, symBinAddr: 0x2B2B4, symSize: 0x2D8 }
  - { offset: 0x82A52, size: 0x8, addend: 0x0, symName: __RNvMs2_NtCs7Qj1RmEtpUo_4pyo33errNtB5_5PyErr15make_normalized, symObjAddr: 0x470C, symBinAddr: 0x6BE98, symSize: 0x22C }
  - { offset: 0x82ADA, size: 0x8, addend: 0x0, symName: __RNvMs2_NtCs7Qj1RmEtpUo_4pyo33errNtB5_5PyErr15traceback_bound, symObjAddr: 0x4938, symBinAddr: 0x2B58C, symSize: 0x28 }
  - { offset: 0x82B18, size: 0x8, addend: 0x0, symName: __RNvMs2_NtCs7Qj1RmEtpUo_4pyo33errNtB5_5PyErr16from_value_bound, symObjAddr: 0x4960, symBinAddr: 0x2B5B4, symSize: 0x1B0 }
  - { offset: 0x82BBC, size: 0x8, addend: 0x0, symName: __RNvMs2_NtCs7Qj1RmEtpUo_4pyo33errNtB5_5PyErr17is_instance_boundB7_, symObjAddr: 0x4B10, symBinAddr: 0x2B764, symSize: 0xA0 }
  - { offset: 0x82C2C, size: 0x8, addend: 0x0, symName: __RNvMs2_NtCs7Qj1RmEtpUo_4pyo33errNtB5_5PyErr22print_panic_and_unwind, symObjAddr: 0x5000, symBinAddr: 0x2B804, symSize: 0x1A0 }
  - { offset: 0x82C99, size: 0x8, addend: 0x0, symName: __RNvMs2_NtCs7Qj1RmEtpUo_4pyo33errNtB5_5PyErr22write_unraisable_boundB7_, symObjAddr: 0x51A0, symBinAddr: 0x2B9A4, symSize: 0x4C }
  - { offset: 0x82CE7, size: 0x8, addend: 0x0, symName: __RNvMs2_NtCs7Qj1RmEtpUo_4pyo33errNtB5_5PyErr4take, symObjAddr: 0x5228, symBinAddr: 0x2B9F0, symSize: 0x1C }
  - { offset: 0x82D16, size: 0x8, addend: 0x0, symName: __RNvMs2_NtCs7Qj1RmEtpUo_4pyo33errNtB5_5PyErr5__take, symObjAddr: 0x5244, symBinAddr: 0x2BA0C, symSize: 0x214 }
  - { offset: 0x82DEF, size: 0x8, addend: 0x0, symName: __RNvMs2_NtCs7Qj1RmEtpUo_4pyo33errNtB5_5PyErr5cause, symObjAddr: 0x5458, symBinAddr: 0x2BC20, symSize: 0x44 }
  - { offset: 0x82E4B, size: 0x8, addend: 0x0, symName: __RNvMs2_NtCs7Qj1RmEtpUo_4pyo33errNtB5_5PyErr5fetchB7_, symObjAddr: 0x549C, symBinAddr: 0x2BC64, symSize: 0x5C }
  - { offset: 0x82E7A, size: 0x8, addend: 0x0, symName: __RNvMs2_NtCs7Qj1RmEtpUo_4pyo33errNtB5_5PyErr5print, symObjAddr: 0x54F8, symBinAddr: 0x2BCC0, symSize: 0x3C }
  - { offset: 0x82ED4, size: 0x8, addend: 0x0, symName: __RNvMs2_NtCs7Qj1RmEtpUo_4pyo33errNtB5_5PyErr7restoreB7_, symObjAddr: 0x5560, symBinAddr: 0x2BCFC, symSize: 0x68 }
  - { offset: 0x82F31, size: 0x8, addend: 0x0, symName: __RNvMs2_NtCs7Qj1RmEtpUo_4pyo33errNtB5_5PyErr9clone_refB7_, symObjAddr: 0x55C8, symBinAddr: 0x2BD64, symSize: 0x44 }
  - { offset: 0x82F6F, size: 0x8, addend: 0x0, symName: __RNvMs2_NtCs7Qj1RmEtpUo_4pyo33errNtB5_5PyErr9set_cause, symObjAddr: 0x560C, symBinAddr: 0x2BDA8, symSize: 0x160 }
  - { offset: 0x83315, size: 0x8, addend: 0x0, symName: __RINvMNtNtNtCskXqYSXpV4rx_3std3sys4sync8once_boxINtB3_7OnceBoxNtNtNtNtNtB7_3pal4unix4sync5mutex5MutexE10initializeNCNvMNtNtB5_5mutex7pthreadNtB1S_5Mutex3get0ECs7Qj1RmEtpUo_4pyo3, symObjAddr: 0x0, symBinAddr: 0x6C0C4, symSize: 0xD8 }
  - { offset: 0x83356, size: 0x8, addend: 0x0, symName: __RNCINvMs0_NtNtCskXqYSXpV4rx_3std4sync4onceNtB8_4Once15call_once_forceNCNvMNtCs7Qj1RmEtpUo_4pyo33gilNtB1a_8GILGuard7acquire0E0B1c_, symObjAddr: 0x1B40, symBinAddr: 0x2CC34, symSize: 0x68 }
  - { offset: 0x833E8, size: 0x8, addend: 0x0, symName: __RNCINvMs0_NtNtCskXqYSXpV4rx_3std4sync4onceNtB8_4Once15call_once_forceNCNvNtCs7Qj1RmEtpUo_4pyo33gil27prepare_freethreaded_python0E0B1b_, symObjAddr: 0x1BA8, symBinAddr: 0x2CC9C, symSize: 0x68 }
  - { offset: 0x835BB, size: 0x8, addend: 0x0, symName: __RNvXs1_NtNtNtCskXqYSXpV4rx_3std3sys4sync8once_boxINtB5_7OnceBoxNtNtNtNtNtB9_3pal4unix4sync5mutex5MutexENtNtNtCs7dfkhshTrE4_4core3ops4drop4Drop4dropCs7Qj1RmEtpUo_4pyo3, symObjAddr: 0x3B14, symBinAddr: 0x2DACC, symSize: 0x74 }
  - { offset: 0x845DD, size: 0x8, addend: 0x0, symName: __RNvMNtNtCs7dfkhshTrE4_4core3ptr9const_ptrPh7is_nullCs7Qj1RmEtpUo_4pyo3, symObjAddr: 0x256C, symBinAddr: 0x2CE24, symSize: 0x18 }
  - { offset: 0x8462C, size: 0x8, addend: 0x0, symName: __RNvNvMNtNtCs7dfkhshTrE4_4core3ptr9const_ptrPp20offset_from_unsigned18precondition_checkCs7Qj1RmEtpUo_4pyo3, symObjAddr: 0x38CC, symBinAddr: 0x2DA6C, symSize: 0x60 }
  - { offset: 0x858AF, size: 0x8, addend: 0x0, symName: __RNvXs9_NtNtCs7dfkhshTrE4_4core3str5errorNtB5_9Utf8ErrorNtNtB9_3fmt5Debug3fmtCs7Qj1RmEtpUo_4pyo3, symObjAddr: 0x4130, symBinAddr: 0x2DB40, symSize: 0x88 }
  - { offset: 0x85E50, size: 0x8, addend: 0x0, symName: __RNCINvMs2_NtCs7Qj1RmEtpUo_4pyo34syncINtB8_11GILOnceCellINtNtBa_8instance2PyNtNtNtBa_5types10typeobject6PyTypeEE11get_or_initNCNvMs1_NtBa_5panicNtB26_14PanicException15type_object_raw0E0Ba_, symObjAddr: 0x1C10, symBinAddr: 0x2CD04, symSize: 0x24 }
  - { offset: 0x85E8F, size: 0x8, addend: 0x0, symName: __RNCINvMs2_NtCs7Qj1RmEtpUo_4pyo34syncINtB8_11GILOnceCellINtNtBa_8instance2PyNtNtNtBa_5types6string8PyStringEE11get_or_initNCNvMs5_B8_NtB8_8Interned3get0E0Ba_, symObjAddr: 0x1C34, symBinAddr: 0x2CD28, symSize: 0x34 }
  - { offset: 0x85FEF, size: 0x8, addend: 0x0, symName: __RNCNvMs5_NtCs7Qj1RmEtpUo_4pyo34syncNtB7_8Interned3get0B9_, symObjAddr: 0x22F0, symBinAddr: 0x2CDDC, symSize: 0x34 }
  - { offset: 0x86785, size: 0x8, addend: 0x0, symName: __RNCINvXNtCs7Qj1RmEtpUo_4pyo313py_result_extINtNtCs7dfkhshTrE4_4core6result6ResultINtNtB7_8instance5BoundNtNtNtB7_5types3any5PyAnyENtNtB7_3err5PyErrENtB5_11PyResultExt23downcast_into_uncheckedNtNtB1I_6string8PyStringE0B7_, symObjAddr: 0x1E7C, symBinAddr: 0x2CD5C, symSize: 0x24 }
  - { offset: 0x867C4, size: 0x8, addend: 0x0, symName: __RNCINvXNtCs7Qj1RmEtpUo_4pyo313py_result_extINtNtCs7dfkhshTrE4_4core6result6ResultINtNtB7_8instance5BoundNtNtNtB7_5types3any5PyAnyENtNtB7_3err5PyErrENtB5_11PyResultExt23downcast_into_uncheckedNtNtB1I_8function11PyCFunctionE0B7_, symObjAddr: 0x1EA0, symBinAddr: 0x2CD80, symSize: 0x24 }
  - { offset: 0x86E8B, size: 0x8, addend: 0x0, symName: __RINvMNtNtNtCskXqYSXpV4rx_3std3sys4sync8once_boxINtB3_7OnceBoxNtNtNtNtNtB7_3pal4unix4sync5mutex5MutexE10initializeNCNvMNtNtB5_5mutex7pthreadNtB1S_5Mutex3get0ECs7Qj1RmEtpUo_4pyo3, symObjAddr: 0x0, symBinAddr: 0x6C0C4, symSize: 0xD8 }
  - { offset: 0x87062, size: 0x8, addend: 0x0, symName: __RINvMNtNtNtCskXqYSXpV4rx_3std3sys4sync8once_boxINtB3_7OnceBoxNtNtNtNtNtB7_3pal4unix4sync5mutex5MutexE11get_or_initNCNvMNtNtB5_5mutex7pthreadNtB1T_5Mutex3get0ECs7Qj1RmEtpUo_4pyo3, symObjAddr: 0xD8, symBinAddr: 0x2C598, symSize: 0xB4 }
  - { offset: 0x8719C, size: 0x8, addend: 0x0, symName: __RINvMs0_NtNtCskXqYSXpV4rx_3std4sync4onceNtB6_4Once15call_once_forceNCNvMNtCs7Qj1RmEtpUo_4pyo33gilNtB18_8GILGuard7acquire0EB1a_, symObjAddr: 0x18C, symBinAddr: 0x2C64C, symSize: 0xD4 }
  - { offset: 0x87261, size: 0x8, addend: 0x0, symName: __RINvMs0_NtNtCskXqYSXpV4rx_3std4sync4onceNtB6_4Once15call_once_forceNCNvNtCs7Qj1RmEtpUo_4pyo33gil27prepare_freethreaded_python0EB19_, symObjAddr: 0x260, symBinAddr: 0x2C720, symSize: 0xD4 }
  - { offset: 0x8738D, size: 0x8, addend: 0x0, symName: __RINvMs2_NtCs7Qj1RmEtpUo_4pyo34syncINtB6_11GILOnceCellINtNtB8_8instance2PyNtNtNtB8_5types10typeobject6PyTypeEE11get_or_initNCNvMs1_NtB8_5panicNtB24_14PanicException15type_object_raw0EB8_, symObjAddr: 0x334, symBinAddr: 0x2C7F4, symSize: 0xD8 }
  - { offset: 0x8749B, size: 0x8, addend: 0x0, symName: __RINvMs2_NtCs7Qj1RmEtpUo_4pyo34syncINtB6_11GILOnceCellINtNtB8_8instance2PyNtNtNtB8_5types10typeobject6PyTypeEE4initNCINvB2_11get_or_initNCNvMs1_NtB8_5panicNtB2h_14PanicException15type_object_raw0E0NtNtCs7dfkhshTrE4_4core7convert10InfallibleEB8_, symObjAddr: 0x4DC, symBinAddr: 0x6C19C, symSize: 0x11C }
  - { offset: 0x876D5, size: 0x8, addend: 0x0, symName: __RINvMs2_NtCs7Qj1RmEtpUo_4pyo34syncINtB6_11GILOnceCellINtNtB8_8instance2PyNtNtNtB8_5types6module8PyModuleEE15get_or_try_initNCNvMs_NtNtB8_5impl_8pymoduleNtB24_9ModuleDef11make_module0NtNtB8_3err5PyErrEB8_, symObjAddr: 0x9D0, symBinAddr: 0x2C8CC, symSize: 0xCC }
  - { offset: 0x8777A, size: 0x8, addend: 0x0, symName: __RINvMs2_NtCs7Qj1RmEtpUo_4pyo34syncINtB6_11GILOnceCellINtNtB8_8instance2PyNtNtNtB8_5types6module8PyModuleEE4initNCNvMs_NtNtB8_5impl_8pymoduleNtB1S_9ModuleDef11make_module0NtNtB8_3err5PyErrEB8_, symObjAddr: 0xA9C, symBinAddr: 0x6C2B8, symSize: 0x18C }
  - { offset: 0x878AD, size: 0x8, addend: 0x0, symName: __RINvMs2_NtCs7Qj1RmEtpUo_4pyo34syncINtB6_11GILOnceCellINtNtB8_8instance2PyNtNtNtB8_5types6string8PyStringEE11get_or_initNCNvMs5_B6_NtB6_8Interned3get0EB8_, symObjAddr: 0xC28, symBinAddr: 0x2C998, symSize: 0xE8 }
  - { offset: 0x87966, size: 0x8, addend: 0x0, symName: __RINvMs2_NtCs7Qj1RmEtpUo_4pyo34syncINtB6_11GILOnceCellINtNtB8_8instance2PyNtNtNtB8_5types6string8PyStringEE4initNCINvB2_11get_or_initNCNvMs5_B6_NtB6_8Interned3get0E0NtNtCs7dfkhshTrE4_4core7convert10InfallibleEB8_, symObjAddr: 0xD10, symBinAddr: 0x6C444, symSize: 0x120 }
  - { offset: 0x87AA8, size: 0x8, addend: 0x0, symName: __RINvMs2_NtCs7Qj1RmEtpUo_4pyo34syncINtB6_11GILOnceCellNtNtNtB8_7pyclass18create_type_object17PyClassTypeObjectE15get_or_try_initNCNCNvMs0_NtNtNtB8_5impl_7pyclass16lazy_type_objectNtB2b_19LazyTypeObjectInner15get_or_try_init00NtNtB8_3err5PyErrEB8_, symObjAddr: 0xE30, symBinAddr: 0x2CA80, symSize: 0xCC }
  - { offset: 0x87B4D, size: 0x8, addend: 0x0, symName: __RINvMs2_NtCs7Qj1RmEtpUo_4pyo34syncINtB6_11GILOnceCellNtNtNtB8_7pyclass18create_type_object17PyClassTypeObjectE4initNCNCNvMs0_NtNtNtB8_5impl_7pyclass16lazy_type_objectNtB1Z_19LazyTypeObjectInner15get_or_try_init00NtNtB8_3err5PyErrEB8_, symObjAddr: 0xEFC, symBinAddr: 0x6C564, symSize: 0x1B8 }
  - { offset: 0x87CA9, size: 0x8, addend: 0x0, symName: __RINvMs2_NtCs7Qj1RmEtpUo_4pyo34syncINtB6_11GILOnceCelluE15get_or_try_initNCNvMs0_NtNtNtB8_5impl_7pyclass16lazy_type_objectNtB1g_19LazyTypeObjectInner11ensure_init0NtNtB8_3err5PyErrEB8_, symObjAddr: 0x10B4, symBinAddr: 0x2CB4C, symSize: 0xE8 }
  - { offset: 0x87D4E, size: 0x8, addend: 0x0, symName: __RINvMs2_NtCs7Qj1RmEtpUo_4pyo34syncINtB6_11GILOnceCelluE4initNCNvMs0_NtNtNtB8_5impl_7pyclass16lazy_type_objectNtB14_19LazyTypeObjectInner11ensure_init0NtNtB8_3err5PyErrEB8_, symObjAddr: 0x119C, symBinAddr: 0x6C71C, symSize: 0x158 }
  - { offset: 0x87ED4, size: 0x8, addend: 0x0, symName: __RNCNvMNtCsfTBDVhxuWss_9hashbrown11rustc_entryINtNtB6_3map7HashMapRNtNtNtCs7dfkhshTrE4_4core3ffi5c_str4CStrNtNtNtCs7Qj1RmEtpUo_4pyo37pyclass18create_type_object16GetSetDefBuilderNtNtNtCskXqYSXpV4rx_3std4hash6random11RandomStateE11rustc_entry0B1M_, symObjAddr: 0x2030, symBinAddr: 0x2CDA4, symSize: 0x38 }
  - { offset: 0x87FFC, size: 0x8, addend: 0x0, symName: __RNvMNtCs7Qj1RmEtpUo_4pyo34syncINtB2_12GILProtectedINtNtCs7dfkhshTrE4_4core4cell7RefCellINtNtCs2iVXuAemrgm_5alloc3vec3VecNtNtNtCskXqYSXpV4rx_3std6thread2id8ThreadIdEEE3getB4_, symObjAddr: 0x2540, symBinAddr: 0x2CE10, symSize: 0x14 }
  - { offset: 0x8804D, size: 0x8, addend: 0x0, symName: __RNvMNtNtNtCs7dfkhshTrE4_4core4iter8adapters7step_byINtB2_6StepByINtNtNtB8_3ops5range5RangejEE3newCs7Qj1RmEtpUo_4pyo3, symObjAddr: 0x259C, symBinAddr: 0x2CE3C, symSize: 0xE0 }
  - { offset: 0x88129, size: 0x8, addend: 0x0, symName: __RNvMNtNtNtCsfTBDVhxuWss_9hashbrown7control5group4neonNtB2_5Group10match_fullCs7Qj1RmEtpUo_4pyo3, symObjAddr: 0x267C, symBinAddr: 0x2CF1C, symSize: 0xA8 }
  - { offset: 0x88257, size: 0x8, addend: 0x0, symName: __RNvMNtNtNtCsfTBDVhxuWss_9hashbrown7control5group4neonNtB2_5Group22match_empty_or_deletedCs7Qj1RmEtpUo_4pyo3, symObjAddr: 0x2724, symBinAddr: 0x2CFC4, symSize: 0xA8 }
  - { offset: 0x88397, size: 0x8, addend: 0x0, symName: __RNvMNtNtNtCsfTBDVhxuWss_9hashbrown7control5group4neonNtB2_5Group44convert_special_to_empty_and_full_to_deletedCs7Qj1RmEtpUo_4pyo3, symObjAddr: 0x27CC, symBinAddr: 0x2D06C, symSize: 0xC0 }
  - { offset: 0x884EC, size: 0x8, addend: 0x0, symName: __RNvMNtNtNtCsfTBDVhxuWss_9hashbrown7control5group4neonNtB2_5Group9match_tagCs7Qj1RmEtpUo_4pyo3, symObjAddr: 0x288C, symBinAddr: 0x2D12C, symSize: 0x68 }
  - { offset: 0x885D8, size: 0x8, addend: 0x0, symName: __RNvMs2_NtCs7Qj1RmEtpUo_4pyo34syncINtB5_11GILOnceCellINtNtB7_8instance2PyNtNtNtB7_5types10typeobject6PyTypeEE3getB7_, symObjAddr: 0x290C, symBinAddr: 0x2D194, symSize: 0x70 }
  - { offset: 0x88652, size: 0x8, addend: 0x0, symName: __RNvMs2_NtCs7Qj1RmEtpUo_4pyo34syncINtB5_11GILOnceCellINtNtB7_8instance2PyNtNtNtB7_5types10typeobject6PyTypeEE3setB7_, symObjAddr: 0x2990, symBinAddr: 0x2D204, symSize: 0x140 }
  - { offset: 0x886D6, size: 0x8, addend: 0x0, symName: __RNvMs2_NtCs7Qj1RmEtpUo_4pyo34syncINtB5_11GILOnceCellINtNtB7_8instance2PyNtNtNtB7_5types6module8PyModuleEE3getB7_, symObjAddr: 0x2C80, symBinAddr: 0x2D344, symSize: 0x70 }
  - { offset: 0x88750, size: 0x8, addend: 0x0, symName: __RNvMs2_NtCs7Qj1RmEtpUo_4pyo34syncINtB5_11GILOnceCellINtNtB7_8instance2PyNtNtNtB7_5types6module8PyModuleEE3setB7_, symObjAddr: 0x2D04, symBinAddr: 0x2D3B4, symSize: 0x140 }
  - { offset: 0x887D4, size: 0x8, addend: 0x0, symName: __RNvMs2_NtCs7Qj1RmEtpUo_4pyo34syncINtB5_11GILOnceCellINtNtB7_8instance2PyNtNtNtB7_5types6string8PyStringEE3getB7_, symObjAddr: 0x2E44, symBinAddr: 0x2D4F4, symSize: 0x70 }
  - { offset: 0x8884E, size: 0x8, addend: 0x0, symName: __RNvMs2_NtCs7Qj1RmEtpUo_4pyo34syncINtB5_11GILOnceCellINtNtB7_8instance2PyNtNtNtB7_5types6string8PyStringEE3setB7_, symObjAddr: 0x2EC8, symBinAddr: 0x2D564, symSize: 0x140 }
  - { offset: 0x888D2, size: 0x8, addend: 0x0, symName: __RNvMs2_NtCs7Qj1RmEtpUo_4pyo34syncINtB5_11GILOnceCellNtNtNtB7_7pyclass18create_type_object17PyClassTypeObjectE3getB7_, symObjAddr: 0x3008, symBinAddr: 0x2D6A4, symSize: 0x70 }
  - { offset: 0x8894C, size: 0x8, addend: 0x0, symName: __RNvMs2_NtCs7Qj1RmEtpUo_4pyo34syncINtB5_11GILOnceCellNtNtNtB7_7pyclass18create_type_object17PyClassTypeObjectE3setB7_, symObjAddr: 0x3078, symBinAddr: 0x2D714, symSize: 0x194 }
  - { offset: 0x889D1, size: 0x8, addend: 0x0, symName: __RNvMs2_NtCs7Qj1RmEtpUo_4pyo34syncINtB5_11GILOnceCelluE3getB7_, symObjAddr: 0x320C, symBinAddr: 0x2D8A8, symSize: 0x74 }
  - { offset: 0x88A4B, size: 0x8, addend: 0x0, symName: __RNvMs2_NtCs7Qj1RmEtpUo_4pyo34syncINtB5_11GILOnceCelluE3setB7_, symObjAddr: 0x3280, symBinAddr: 0x2D91C, symSize: 0x108 }
  - { offset: 0x88AE9, size: 0x8, addend: 0x0, symName: __RNvMs5_NtCs7Qj1RmEtpUo_4pyo34syncNtB5_8Interned3getB7_, symObjAddr: 0x33F8, symBinAddr: 0x2DA24, symSize: 0x48 }
  - { offset: 0x88C9A, size: 0x8, addend: 0x0, symName: __RINvNtCs7dfkhshTrE4_4core3ptr10swap_chunkKj1_ECs7Qj1RmEtpUo_4pyo3, symObjAddr: 0x0, symBinAddr: 0x2DBC8, symSize: 0x3C }
  - { offset: 0x88E05, size: 0x8, addend: 0x0, symName: __RINvNtNtNtCs7Qj1RmEtpUo_4pyo311conversions3std3num20err_if_invalid_valueyEB8_, symObjAddr: 0x484, symBinAddr: 0x2DE90, symSize: 0xC8 }
  - { offset: 0x88E8E, size: 0x8, addend: 0x0, symName: __RNCNvXso_NtNtNtCs7Qj1RmEtpUo_4pyo311conversions3std3numjNtNtBd_10conversion12FromPyObject13extract_bound0Bd_, symObjAddr: 0xEBC, symBinAddr: 0x2E494, symSize: 0x38 }
  - { offset: 0x88ED7, size: 0x8, addend: 0x0, symName: __RNvXso_NtNtNtCs7Qj1RmEtpUo_4pyo311conversions3std3numjNtNtBb_10conversion12FromPyObject13extract_bound, symObjAddr: 0x44E8, symBinAddr: 0x2F674, symSize: 0x9C }
  - { offset: 0x88F44, size: 0x8, addend: 0x0, symName: __RNvXsn_NtNtNtCs7Qj1RmEtpUo_4pyo311conversions3std3numjINtNtBb_10conversion6IntoPyINtNtBb_8instance2PyNtNtNtBb_5types3any5PyAnyEE7into_py, symObjAddr: 0x4448, symBinAddr: 0x2F654, symSize: 0x20 }
  - { offset: 0x88F8F, size: 0x8, addend: 0x0, symName: __RNvXsq_NtNtNtCs7Qj1RmEtpUo_4pyo311conversions3std3numyINtNtBb_10conversion6IntoPyINtNtBb_8instance2PyNtNtNtBb_5types3any5PyAnyEE7into_pyBb_, symObjAddr: 0x4694, symBinAddr: 0x2F710, symSize: 0x2C }
  - { offset: 0x88FDA, size: 0x8, addend: 0x0, symName: __RNvXsr_NtNtNtCs7Qj1RmEtpUo_4pyo311conversions3std3numyNtNtBb_10conversion12FromPyObject13extract_bound, symObjAddr: 0x46C0, symBinAddr: 0x2F73C, symSize: 0x1D8 }
  - { offset: 0x8907A, size: 0x8, addend: 0x0, symName: __RNvXs_NtNtNtCs7Qj1RmEtpUo_4pyo311conversions3std6stringReINtNtBa_10conversion6IntoPyINtNtBa_8instance2PyNtNtNtBa_5types3any5PyAnyEE7into_pyBa_, symObjAddr: 0x35D0, symBinAddr: 0x2F564, symSize: 0x34 }
  - { offset: 0x891DE, size: 0x8, addend: 0x0, symName: __RNvXs_NtNtCs7Qj1RmEtpUo_4pyo35impl_5panicNtB4_9PanicTrapNtNtNtCs7dfkhshTrE4_4core3ops4drop4Drop4drop, symObjAddr: 0x352C, symBinAddr: 0x2F4F4, symSize: 0x20 }
  - { offset: 0x89802, size: 0x8, addend: 0x0, symName: __RNvNvMNtNtCs7dfkhshTrE4_4core3ptr9alignmentNtB4_9Alignment13new_unchecked18precondition_checkCs7Qj1RmEtpUo_4pyo3, symObjAddr: 0x15A0, symBinAddr: 0x2E90C, symSize: 0x70 }
  - { offset: 0x898C9, size: 0x8, addend: 0x0, symName: __RINvNtCs7dfkhshTrE4_4core3ptr10swap_chunkKj1_ECs7Qj1RmEtpUo_4pyo3, symObjAddr: 0x0, symBinAddr: 0x2DBC8, symSize: 0x3C }
  - { offset: 0x89902, size: 0x8, addend: 0x0, symName: __RINvNtCs7dfkhshTrE4_4core3ptr10swap_chunkKj2_ECs7Qj1RmEtpUo_4pyo3, symObjAddr: 0x3C, symBinAddr: 0x2DC04, symSize: 0x3C }
  - { offset: 0x8993B, size: 0x8, addend: 0x0, symName: __RINvNtCs7dfkhshTrE4_4core3ptr10swap_chunkKj4_ECs7Qj1RmEtpUo_4pyo3, symObjAddr: 0x78, symBinAddr: 0x2DC40, symSize: 0x3C }
  - { offset: 0x89974, size: 0x8, addend: 0x0, symName: __RINvNtCs7dfkhshTrE4_4core3ptr10swap_chunkKj8_ECs7Qj1RmEtpUo_4pyo3, symObjAddr: 0xB4, symBinAddr: 0x2DC7C, symSize: 0x3C }
  - { offset: 0x89A70, size: 0x8, addend: 0x0, symName: __RINvNtCs7dfkhshTrE4_4core3ptr14read_unalignedNtNtNtNtB4_9core_arch10arm_shared4neon9uint8x8_tECs7Qj1RmEtpUo_4pyo3, symObjAddr: 0xF0, symBinAddr: 0x2DCB8, symSize: 0x9C }
  - { offset: 0x89BBB, size: 0x8, addend: 0x0, symName: __RINvNtCs7dfkhshTrE4_4core3ptr15write_unalignedNtNtNtNtB4_9core_arch10arm_shared4neon9uint8x8_tECs7Qj1RmEtpUo_4pyo3, symObjAddr: 0x18C, symBinAddr: 0x2DD54, symSize: 0x78 }
  - { offset: 0x89D53, size: 0x8, addend: 0x0, symName: __RINvNvNtCs7dfkhshTrE4_4core3ptr25swap_nonoverlapping_bytes26swap_nonoverlapping_chunksKj8_ECs7Qj1RmEtpUo_4pyo3, symObjAddr: 0x54C, symBinAddr: 0x2DF58, symSize: 0xC0 }
  - { offset: 0x89ED0, size: 0x8, addend: 0x0, symName: __RNvNvNtCs7dfkhshTrE4_4core3ptr25swap_nonoverlapping_bytes25swap_nonoverlapping_shortCs7Qj1RmEtpUo_4pyo3, symObjAddr: 0x1B94, symBinAddr: 0x2ECA0, symSize: 0x11C }
  - { offset: 0x8A05D, size: 0x8, addend: 0x0, symName: __RNvNtCs7dfkhshTrE4_4core3ptr25swap_nonoverlapping_bytesCs7Qj1RmEtpUo_4pyo3, symObjAddr: 0x12DC, symBinAddr: 0x2E834, symSize: 0xD8 }
  - { offset: 0x8A206, size: 0x8, addend: 0x0, symName: __RNvNvNtCs7dfkhshTrE4_4core3ptr11write_bytes18precondition_checkCs7Qj1RmEtpUo_4pyo3, symObjAddr: 0x1824, symBinAddr: 0x2EA9C, symSize: 0x9C }
  - { offset: 0x8A2DE, size: 0x8, addend: 0x0, symName: __RNvNvNtCs7dfkhshTrE4_4core3ptr19copy_nonoverlapping18precondition_checkCs7Qj1RmEtpUo_4pyo3, symObjAddr: 0x18C0, symBinAddr: 0x2EB38, symSize: 0x168 }
  - { offset: 0x8A498, size: 0x8, addend: 0x0, symName: __RNvNvNtCs7dfkhshTrE4_4core3ptr4copy18precondition_checkCs7Qj1RmEtpUo_4pyo3, symObjAddr: 0x1CB0, symBinAddr: 0x2EDBC, symSize: 0x130 }
  - { offset: 0x8A5E4, size: 0x8, addend: 0x0, symName: __RNvNvNtCs7dfkhshTrE4_4core3ptr7replace18precondition_checkCs7Qj1RmEtpUo_4pyo3, symObjAddr: 0x1DE0, symBinAddr: 0x2EEEC, symSize: 0x9C }
  - { offset: 0x8A6BC, size: 0x8, addend: 0x0, symName: __RNvXs1_NtCs7dfkhshTrE4_4core3ptrFUKCONtNtCsgh2hkQkDkI2_8pyo3_ffi6object8PyObjectElNtNtB7_3cmp9PartialEq2eqCs7Qj1RmEtpUo_4pyo3, symObjAddr: 0x205C, symBinAddr: 0x2EF88, symSize: 0x50 }
  - { offset: 0x8B12D, size: 0x8, addend: 0x0, symName: __RNvXs7_NtNtCs7dfkhshTrE4_4core3cmp5implsReNtB7_9PartialEq2eqCs7Qj1RmEtpUo_4pyo3, symObjAddr: 0x2E34, symBinAddr: 0x2F3C0, symSize: 0x44 }
  - { offset: 0x8B182, size: 0x8, addend: 0x0, symName: __RNvXsn_NtNtCs7dfkhshTrE4_4core3cmp5implsyNtB7_9PartialEq2eqCs7Qj1RmEtpUo_4pyo3, symObjAddr: 0x441C, symBinAddr: 0x2F628, symSize: 0x2C }
  - { offset: 0x8B1C5, size: 0x8, addend: 0x0, symName: __RNvXss_NtNtCs7dfkhshTrE4_4core3cmp5implslNtB7_9PartialEq2neCs7Qj1RmEtpUo_4pyo3, symObjAddr: 0x48C4, symBinAddr: 0x2F914, symSize: 0x2C }
  - { offset: 0x8B208, size: 0x8, addend: 0x0, symName: __RNvXst_NtNtCs7dfkhshTrE4_4core3cmp5implsxNtB7_9PartialEq2neCs7Qj1RmEtpUo_4pyo3, symObjAddr: 0x495C, symBinAddr: 0x2F940, symSize: 0x2C }
  - { offset: 0x8B7FE, size: 0x8, addend: 0x0, symName: __RNvXs1_NtNtNtCs7dfkhshTrE4_4core4iter8adapters3zipINtB5_3ZipINtNtB7_4take4TakeINtNtNtBb_5slice4iter4IterReEEIB1f_INtNtBb_6option6OptionINtNtCs7Qj1RmEtpUo_4pyo38instance8BorrowedNtNtNtB2e_5types3any5PyAnyEEEEINtB5_7ZipImplBW_B1I_E3newB2e_, symObjAddr: 0x2134, symBinAddr: 0x2EFD8, symSize: 0x3C }
  - { offset: 0x8B84A, size: 0x8, addend: 0x0, symName: __RNvXs1_NtNtNtCs7dfkhshTrE4_4core4iter8adapters3zipINtB5_3ZipINtNtB7_4take4TakeINtNtNtBb_5slice4iter4IterReEEIB1f_INtNtBb_6option6OptionINtNtCs7Qj1RmEtpUo_4pyo38instance8BorrowedNtNtNtB2e_5types3any5PyAnyEEEEINtB5_7ZipImplBW_B1I_E4nextB2e_, symObjAddr: 0x2170, symBinAddr: 0x2F014, symSize: 0xE0 }
  - { offset: 0x8B9AB, size: 0x8, addend: 0x0, symName: __RNvXs1_NtNtNtCs7dfkhshTrE4_4core4iter8adapters3zipINtB5_3ZipINtNtB7_4take4TakeINtNtNtBb_5slice4iter4IterReEEIB1f_INtNtBb_6option6OptionINtNtCs7Qj1RmEtpUo_4pyo38instance8BorrowedNtNtNtB2e_5types3any5PyAnyEEEEINtB5_7ZipImplBW_B1I_E9size_hintB2e_, symObjAddr: 0x2250, symBinAddr: 0x2F0F4, symSize: 0x12C }
  - { offset: 0x8BAFE, size: 0x8, addend: 0x0, symName: __RNvXs3_NtNtNtCs7dfkhshTrE4_4core4iter8adapters3zipINtB5_3ZipINtNtNtBb_5slice4iter4IterNtNtNtCs7Qj1RmEtpUo_4pyo35impl_16extract_argument31KeywordOnlyParameterDescriptionEIBX_INtNtBb_6option6OptionINtNtB1s_8instance8BorrowedNtNtNtB1s_5types3any5PyAnyEEEEINtB5_7ZipImplBW_B2H_E3newB1s_, symObjAddr: 0x26D0, symBinAddr: 0x2F220, symSize: 0xBC }
  - { offset: 0x8BB91, size: 0x8, addend: 0x0, symName: __RNvXs3_NtNtNtCs7dfkhshTrE4_4core4iter8adapters3zipINtB5_3ZipINtNtNtBb_5slice4iter4IterNtNtNtCs7Qj1RmEtpUo_4pyo35impl_16extract_argument31KeywordOnlyParameterDescriptionEIBX_INtNtBb_6option6OptionINtNtB1s_8instance8BorrowedNtNtNtB1s_5types3any5PyAnyEEEEINtB5_7ZipImplBW_B2H_E4nextB1s_, symObjAddr: 0x278C, symBinAddr: 0x2F2DC, symSize: 0xB0 }
  - { offset: 0x8BBE7, size: 0x8, addend: 0x0, symName: __RNvXs3_NtNtNtCs7dfkhshTrE4_4core4iter8adapters3zipINtB5_3ZipINtNtNtBb_5slice4iter4IterNtNtNtCs7Qj1RmEtpUo_4pyo35impl_16extract_argument31KeywordOnlyParameterDescriptionEIBX_INtNtBb_6option6OptionINtNtB1s_8instance8BorrowedNtNtNtB1s_5types3any5PyAnyEEEEINtB5_7ZipImplBW_B2H_E9size_hintB1s_, symObjAddr: 0x283C, symBinAddr: 0x2F38C, symSize: 0x34 }
  - { offset: 0x8BC2D, size: 0x8, addend: 0x0, symName: __RNvXs_NtNtNtCs7dfkhshTrE4_4core4iter8adapters3zipINtB4_3ZipINtNtB6_4take4TakeINtNtNtBa_5slice4iter4IterReEEIB1e_INtNtBa_6option6OptionINtNtCs7Qj1RmEtpUo_4pyo38instance8BorrowedNtNtNtB2d_5types3any5PyAnyEEEENtNtNtB8_6traits8iterator8Iterator4nextB2d_, symObjAddr: 0x3628, symBinAddr: 0x2F598, symSize: 0x24 }
  - { offset: 0x8BC6B, size: 0x8, addend: 0x0, symName: __RNvXs_NtNtNtCs7dfkhshTrE4_4core4iter8adapters3zipINtB4_3ZipINtNtB6_4take4TakeINtNtNtBa_5slice4iter4IterReEEIB1e_INtNtBa_6option6OptionINtNtCs7Qj1RmEtpUo_4pyo38instance8BorrowedNtNtNtB2d_5types3any5PyAnyEEEENtNtNtB8_6traits8iterator8Iterator9size_hintB2d_, symObjAddr: 0x364C, symBinAddr: 0x2F5BC, symSize: 0x24 }
  - { offset: 0x8BCA9, size: 0x8, addend: 0x0, symName: __RNvXs_NtNtNtCs7dfkhshTrE4_4core4iter8adapters3zipINtB4_3ZipINtNtNtBa_5slice4iter4IterNtNtNtCs7Qj1RmEtpUo_4pyo35impl_16extract_argument31KeywordOnlyParameterDescriptionEIBW_INtNtBa_6option6OptionINtNtB1r_8instance8BorrowedNtNtNtB1r_5types3any5PyAnyEEEENtNtNtB8_6traits8iterator8Iterator4nextB1r_, symObjAddr: 0x3670, symBinAddr: 0x2F5E0, symSize: 0x24 }
  - { offset: 0x8BCE7, size: 0x8, addend: 0x0, symName: __RNvXs_NtNtNtCs7dfkhshTrE4_4core4iter8adapters3zipINtB4_3ZipINtNtNtBa_5slice4iter4IterNtNtNtCs7Qj1RmEtpUo_4pyo35impl_16extract_argument31KeywordOnlyParameterDescriptionEIBW_INtNtBa_6option6OptionINtNtB1r_8instance8BorrowedNtNtNtB1r_5types3any5PyAnyEEEENtNtNtB8_6traits8iterator8Iterator9size_hintB1r_, symObjAddr: 0x3694, symBinAddr: 0x2F604, symSize: 0x24 }
  - { offset: 0x8BD67, size: 0x8, addend: 0x0, symName: __RINvYINtNtNtNtCs7dfkhshTrE4_4core4iter8adapters3zip3ZipINtNtB8_4take4TakeINtNtNtBc_5slice4iter4IterReEEIB1a_INtNtBc_6option6OptionINtNtCs7Qj1RmEtpUo_4pyo38instance8BorrowedNtNtNtB29_5types3any5PyAnyEEEENtNtNtBa_6traits8iterator8Iterator10filter_mapB1z_NCNvMs3_NtNtB29_5impl_16extract_argumentNtB4a_19FunctionDescription37missing_required_positional_arguments0EB29_, symObjAddr: 0x60C, symBinAddr: 0x2E018, symSize: 0x30 }
  - { offset: 0x8BDD5, size: 0x8, addend: 0x0, symName: __RINvYINtNtNtNtCs7dfkhshTrE4_4core4iter8adapters3zip3ZipINtNtB8_4take4TakeINtNtNtBc_5slice4iter4IterReEEIB1a_INtNtBc_6option6OptionINtNtCs7Qj1RmEtpUo_4pyo38instance8BorrowedNtNtNtB29_5types3any5PyAnyEEEENtNtNtBa_6traits8iterator8Iterator8find_mapB1z_QNCNvMs3_NtNtB29_5impl_16extract_argumentNtB48_19FunctionDescription37missing_required_positional_arguments0EB29_, symObjAddr: 0x63C, symBinAddr: 0x2E048, symSize: 0x8C }
  - { offset: 0x8BE5D, size: 0x8, addend: 0x0, symName: __RINvYINtNtNtNtCs7dfkhshTrE4_4core4iter8adapters3zip3ZipINtNtB8_4take4TakeINtNtNtBc_5slice4iter4IterReEEIB1a_INtNtBc_6option6OptionINtNtCs7Qj1RmEtpUo_4pyo38instance8BorrowedNtNtNtB29_5types3any5PyAnyEEEENtNtNtBa_6traits8iterator8Iterator8try_folduNCINvNvB3e_8find_map5checkTRB1z_RB1I_EB1z_QNCNvMs3_NtNtB29_5impl_16extract_argumentNtB4L_19FunctionDescription37missing_required_positional_arguments0E0INtNtNtBc_3ops12control_flow11ControlFlowB1z_EEB29_, symObjAddr: 0x6C8, symBinAddr: 0x2E0D4, symSize: 0x164 }
  - { offset: 0x8BF10, size: 0x8, addend: 0x0, symName: __RINvYINtNtNtNtCs7dfkhshTrE4_4core4iter8adapters3zip3ZipINtNtNtBc_5slice4iter4IterNtNtNtCs7Qj1RmEtpUo_4pyo35impl_16extract_argument31KeywordOnlyParameterDescriptionEIBS_INtNtBc_6option6OptionINtNtB1n_8instance8BorrowedNtNtNtB1n_5types3any5PyAnyEEEENtNtNtBa_6traits8iterator8Iterator10filter_mapReNCNvMs3_B1j_NtB1j_19FunctionDescription34missing_required_keyword_arguments0EB1n_, symObjAddr: 0x82C, symBinAddr: 0x2E238, symSize: 0x30 }
  - { offset: 0x8BF7E, size: 0x8, addend: 0x0, symName: __RINvYINtNtNtNtCs7dfkhshTrE4_4core4iter8adapters3zip3ZipINtNtNtBc_5slice4iter4IterNtNtNtCs7Qj1RmEtpUo_4pyo35impl_16extract_argument31KeywordOnlyParameterDescriptionEIBS_INtNtBc_6option6OptionINtNtB1n_8instance8BorrowedNtNtNtB1n_5types3any5PyAnyEEEENtNtNtBa_6traits8iterator8Iterator8find_mapReQNCNvMs3_B1j_NtB1j_19FunctionDescription34missing_required_keyword_arguments0EB1n_, symObjAddr: 0x85C, symBinAddr: 0x2E268, symSize: 0x8C }
  - { offset: 0x8C006, size: 0x8, addend: 0x0, symName: __RINvYINtNtNtNtCs7dfkhshTrE4_4core4iter8adapters3zip3ZipINtNtNtBc_5slice4iter4IterNtNtNtCs7Qj1RmEtpUo_4pyo35impl_16extract_argument31KeywordOnlyParameterDescriptionEIBS_INtNtBc_6option6OptionINtNtB1n_8instance8BorrowedNtNtNtB1n_5types3any5PyAnyEEEENtNtNtBa_6traits8iterator8Iterator8try_folduNCINvNvB3X_8find_map5checkTRB1h_RB2G_EReQNCNvMs3_B1j_NtB1j_19FunctionDescription34missing_required_keyword_arguments0E0INtNtNtBc_3ops12control_flow11ControlFlowB5h_EEB1n_, symObjAddr: 0x8E8, symBinAddr: 0x2E2F4, symSize: 0x164 }
  - { offset: 0x8C886, size: 0x8, addend: 0x0, symName: __RNvNvMNtNtCs7dfkhshTrE4_4core5alloc6layoutNtB4_6Layout25from_size_align_unchecked18precondition_checkCs7Qj1RmEtpUo_4pyo3, symObjAddr: 0x1610, symBinAddr: 0x2E97C, symSize: 0xB8 }
  - { offset: 0x8C9B4, size: 0x8, addend: 0x0, symName: __RNvNvMNtNtCs7dfkhshTrE4_4core5alloc6layoutNtB4_6Layout29from_size_alignment_unchecked18precondition_checkCs7Qj1RmEtpUo_4pyo3, symObjAddr: 0x16C8, symBinAddr: 0x2EA34, symSize: 0x68 }
  - { offset: 0x8D1FD, size: 0x8, addend: 0x0, symName: __RNCINvNtCsfTBDVhxuWss_9hashbrown3map11make_hasherRNtNtNtCs7dfkhshTrE4_4core3ffi5c_str4CStrNtNtNtCs7Qj1RmEtpUo_4pyo37pyclass18create_type_object16GetSetDefBuilderNtNtNtCskXqYSXpV4rx_3std4hash6random11RandomStateE0B1w_, symObjAddr: 0xB08, symBinAddr: 0x2E458, symSize: 0x3C }
  - { offset: 0x8D3E3, size: 0x8, addend: 0x0, symName: __RNvXsG_NtCsfTBDVhxuWss_9hashbrown3mapINtB5_4IterRNtNtNtCs7dfkhshTrE4_4core3ffi5c_str4CStrNtNtNtCs7Qj1RmEtpUo_4pyo37pyclass18create_type_object16GetSetDefBuilderENtNtNtNtBR_4iter6traits8iterator8Iterator4nextB1v_, symObjAddr: 0x3388, symBinAddr: 0x2F404, symSize: 0xF0 }
  - { offset: 0x8D6B3, size: 0x8, addend: 0x0, symName: __RINvNtNtCskXqYSXpV4rx_3std4sync6poison10map_resultNtB2_5GuardINtNtB2_5mutex10MutexGuardINtNtCs2iVXuAemrgm_5alloc3vec3VecINtNtNtCs7dfkhshTrE4_4core3ptr8non_null7NonNullNtNtCsgh2hkQkDkI2_8pyo3_ffi6object8PyObjectEEENCNvMs9_B10_BX_3new0ECs7Qj1RmEtpUo_4pyo3, symObjAddr: 0x2F8, symBinAddr: 0x2DDCC, symSize: 0xC4 }
  - { offset: 0x8D7D4, size: 0x8, addend: 0x0, symName: __RNvXs_NtNtCskXqYSXpV4rx_3std4sync6poisonINtB4_11PoisonErrorINtNtB4_5mutex10MutexGuardINtNtCs2iVXuAemrgm_5alloc3vec3VecINtNtNtCs7dfkhshTrE4_4core3ptr8non_null7NonNullNtNtCsgh2hkQkDkI2_8pyo3_ffi6object8PyObjectEEEENtNtB1Z_3fmt5Debug3fmtCs7Qj1RmEtpUo_4pyo3, symObjAddr: 0x354C, symBinAddr: 0x2F514, symSize: 0x50 }
  - { offset: 0x8DCBD, size: 0x8, addend: 0x0, symName: __RNvMNtCsfTBDVhxuWss_9hashbrown11rustc_entryINtNtB4_3map7HashMapRNtNtNtCs7dfkhshTrE4_4core3ffi5c_str4CStrNtNtNtCs7Qj1RmEtpUo_4pyo37pyclass18create_type_object16GetSetDefBuilderNtNtNtCskXqYSXpV4rx_3std4hash6random11RandomStateE11rustc_entryB1K_, symObjAddr: 0xF4C, symBinAddr: 0x2E4CC, symSize: 0x128 }
  - { offset: 0x8DD7F, size: 0x8, addend: 0x0, symName: __RNvMNtNtCs7Qj1RmEtpUo_4pyo35impl_5panicNtB2_9PanicTrap3newB6_, symObjAddr: 0x1074, symBinAddr: 0x2E5F4, symSize: 0x18 }
  - { offset: 0x8DDA1, size: 0x8, addend: 0x0, symName: __RNvMNtNtCs7Qj1RmEtpUo_4pyo35impl_5panicNtB2_9PanicTrap6disarmB6_, symObjAddr: 0x108C, symBinAddr: 0x2E60C, symSize: 0x28 }
  - { offset: 0x8DE44, size: 0x8, addend: 0x0, symName: __RNvMNtNtCskXqYSXpV4rx_3std4sync6poisonNtB2_4Flag4doneCs7Qj1RmEtpUo_4pyo3, symObjAddr: 0x10DC, symBinAddr: 0x2E634, symSize: 0x8C }
  - { offset: 0x8DF32, size: 0x8, addend: 0x0, symName: __RNvMNtNtCskXqYSXpV4rx_3std4sync6poisonNtB2_4Flag5guardCs7Qj1RmEtpUo_4pyo3, symObjAddr: 0x1168, symBinAddr: 0x2E6C0, symSize: 0xCC }
  - { offset: 0x8E14A, size: 0x8, addend: 0x0, symName: __RNvMs0_NtCsfTBDVhxuWss_9hashbrown3mapINtB5_7HashMapRNtNtNtCs7dfkhshTrE4_4core3ffi5c_str4CStrNtNtNtCs7Qj1RmEtpUo_4pyo37pyclass18create_type_object16GetSetDefBuilderNtNtNtCskXqYSXpV4rx_3std4hash6random11RandomStateE4iterB1y_, symObjAddr: 0x1234, symBinAddr: 0x2E78C, symSize: 0xA8 }
  - { offset: 0x8E6FE, size: 0x8, addend: 0x0, symName: __RINvMs_NtCs2iVXuAemrgm_5alloc3vecINtB5_3VecNtNtNtCskXqYSXpV4rx_3std6thread2id8ThreadIdE10retain_mutNCINvB2_6retainNCNvXNvMs0_NtNtNtCs7Qj1RmEtpUo_4pyo35impl_7pyclass16lazy_type_objectNtB1Z_19LazyTypeObjectInner11ensure_initNtB1T_19InitializationGuardNtNtNtCs7dfkhshTrE4_4core3ops4drop4Drop4drop0E0EB25_, symObjAddr: 0x0, symBinAddr: 0x2F96C, symSize: 0x31C }
  - { offset: 0x8E74D, size: 0x8, addend: 0x0, symName: __RNvXsX_NtCs2iVXuAemrgm_5alloc6stringINtNtB7_3vec3VechEINtNtCs7dfkhshTrE4_4core7convert4FromNtB5_6StringE4fromCs7Qj1RmEtpUo_4pyo3, symObjAddr: 0x28F8, symBinAddr: 0x31C70, symSize: 0x18 }
  - { offset: 0x8EAC2, size: 0x8, addend: 0x0, symName: __RNCINvMs_NtCs2iVXuAemrgm_5alloc3vecINtB7_3VecNtNtNtCskXqYSXpV4rx_3std6thread2id8ThreadIdE6retainNCNvXNvMs0_NtNtNtCs7Qj1RmEtpUo_4pyo35impl_7pyclass16lazy_type_objectNtB1H_19LazyTypeObjectInner11ensure_initNtB1B_19InitializationGuardNtNtNtCs7dfkhshTrE4_4core3ops4drop4Drop4drop0E0B1N_, symObjAddr: 0x954, symBinAddr: 0x302C0, symSize: 0x30 }
  - { offset: 0x8EB23, size: 0x8, addend: 0x0, symName: __RNvNvMs_NtCs2iVXuAemrgm_5alloc3vecINtB6_3VecppE7set_len18precondition_checkCs7Qj1RmEtpUo_4pyo3, symObjAddr: 0x1D3C, symBinAddr: 0x3141C, symSize: 0x60 }
  - { offset: 0x8EB81, size: 0x8, addend: 0x0, symName: __RNvXNvMs_NtCs2iVXuAemrgm_5alloc3vecINtB7_3VecppE10retain_mutINtB2_10PanicGuardNtNtNtCskXqYSXpV4rx_3std6thread2id8ThreadIdNtNtB9_5alloc6GlobalENtNtNtCs7dfkhshTrE4_4core3ops4drop4Drop4dropCs7Qj1RmEtpUo_4pyo3, symObjAddr: 0x255C, symBinAddr: 0x6C874, symSize: 0x180 }
  - { offset: 0x8F376, size: 0x8, addend: 0x0, symName: __RINvXse_NtCs2iVXuAemrgm_5alloc3vecINtB6_3VecNtNtCsgh2hkQkDkI2_8pyo3_ffi11descrobject11PyGetSetDefEINtNtNtNtCs7dfkhshTrE4_4core4iter6traits7collect12FromIteratorBG_E9from_iterINtNtNtB1F_8adapters3map3MapINtNtNtNtCskXqYSXpV4rx_3std11collections4hash3map4IterRNtNtNtB1H_3ffi5c_str4CStrNtNtNtCs7Qj1RmEtpUo_4pyo37pyclass18create_type_object16GetSetDefBuilderENCNvMB4y_NtB4y_13PyTypeBuilder31finalize_methods_and_properties0EEB4C_, symObjAddr: 0x8B8, symBinAddr: 0x30224, symSize: 0x34 }
  - { offset: 0x8F3B7, size: 0x8, addend: 0x0, symName: __RINvXse_NtCs2iVXuAemrgm_5alloc3vecINtB6_3VecReEINtNtNtNtCs7dfkhshTrE4_4core4iter6traits7collect12FromIteratorBG_E9from_iterINtNtNtBQ_8adapters10filter_map9FilterMapINtNtB22_3zip3ZipINtNtB22_4take4TakeINtNtNtBS_5slice4iter4IterBG_EEIB3d_INtNtBS_6option6OptionINtNtCs7Qj1RmEtpUo_4pyo38instance8BorrowedNtNtNtB4d_5types3any5PyAnyEEEENCNvMs3_NtNtB4d_5impl_16extract_argumentNtB5q_19FunctionDescription37missing_required_positional_arguments0EEB4d_, symObjAddr: 0x8EC, symBinAddr: 0x30258, symSize: 0x34 }
  - { offset: 0x8F3F8, size: 0x8, addend: 0x0, symName: __RINvXse_NtCs2iVXuAemrgm_5alloc3vecINtB6_3VecReEINtNtNtNtCs7dfkhshTrE4_4core4iter6traits7collect12FromIteratorBG_E9from_iterINtNtNtBQ_8adapters10filter_map9FilterMapINtNtB22_3zip3ZipINtNtNtBS_5slice4iter4IterNtNtNtCs7Qj1RmEtpUo_4pyo35impl_16extract_argument31KeywordOnlyParameterDescriptionEIB2U_INtNtBS_6option6OptionINtNtB3p_8instance8BorrowedNtNtNtB3p_5types3any5PyAnyEEEENCNvMs3_B3l_NtB3l_19FunctionDescription34missing_required_keyword_arguments0EEB3p_, symObjAddr: 0x920, symBinAddr: 0x3028C, symSize: 0x34 }
  - { offset: 0x8FB00, size: 0x8, addend: 0x0, symName: __RNvXNtNtCs2iVXuAemrgm_5alloc3vec11spec_extendINtB4_3VecNtNtCsgh2hkQkDkI2_8pyo3_ffi11descrobject11PyGetSetDefEINtB2_10SpecExtendBR_INtNtNtNtCs7dfkhshTrE4_4core4iter8adapters3map3MapINtNtNtNtCskXqYSXpV4rx_3std11collections4hash3map4IterRNtNtNtB2d_3ffi5c_str4CStrNtNtNtCs7Qj1RmEtpUo_4pyo37pyclass18create_type_object16GetSetDefBuilderENCNvMB4c_NtB4c_13PyTypeBuilder31finalize_methods_and_properties0EE11spec_extendB4g_, symObjAddr: 0x1DD8, symBinAddr: 0x3147C, symSize: 0x24 }
  - { offset: 0x8FB52, size: 0x8, addend: 0x0, symName: __RNvXNtNtCs2iVXuAemrgm_5alloc3vec11spec_extendINtB4_3VecReEINtB2_10SpecExtendBR_INtNtNtNtCs7dfkhshTrE4_4core4iter8adapters10filter_map9FilterMapINtNtB1k_3zip3ZipINtNtB1k_4take4TakeINtNtNtB1o_5slice4iter4IterBR_EEIB2S_INtNtB1o_6option6OptionINtNtCs7Qj1RmEtpUo_4pyo38instance8BorrowedNtNtNtB3U_5types3any5PyAnyEEEENCNvMs3_NtNtB3U_5impl_16extract_argumentNtB57_19FunctionDescription37missing_required_positional_arguments0EE11spec_extendB3U_, symObjAddr: 0x1DFC, symBinAddr: 0x314A0, symSize: 0x24 }
  - { offset: 0x8FBA4, size: 0x8, addend: 0x0, symName: __RNvXNtNtCs2iVXuAemrgm_5alloc3vec11spec_extendINtB4_3VecReEINtB2_10SpecExtendBR_INtNtNtNtCs7dfkhshTrE4_4core4iter8adapters10filter_map9FilterMapINtNtB1k_3zip3ZipINtNtNtB1o_5slice4iter4IterNtNtNtCs7Qj1RmEtpUo_4pyo35impl_16extract_argument31KeywordOnlyParameterDescriptionEIB2z_INtNtB1o_6option6OptionINtNtB35_8instance8BorrowedNtNtNtB35_5types3any5PyAnyEEEENCNvMs3_B31_NtB31_19FunctionDescription34missing_required_keyword_arguments0EE11spec_extendB35_, symObjAddr: 0x1E20, symBinAddr: 0x314C4, symSize: 0x24 }
  - { offset: 0x8FC02, size: 0x8, addend: 0x0, symName: __RNvXNtNtCs2iVXuAemrgm_5alloc3vec14spec_from_iterINtB4_3VecNtNtCsgh2hkQkDkI2_8pyo3_ffi11descrobject11PyGetSetDefEINtB2_12SpecFromIterBU_INtNtNtNtCs7dfkhshTrE4_4core4iter8adapters3map3MapINtNtNtNtCskXqYSXpV4rx_3std11collections4hash3map4IterRNtNtNtB2i_3ffi5c_str4CStrNtNtNtCs7Qj1RmEtpUo_4pyo37pyclass18create_type_object16GetSetDefBuilderENCNvMB4h_NtB4h_13PyTypeBuilder31finalize_methods_and_properties0EE9from_iterB4l_, symObjAddr: 0x1E44, symBinAddr: 0x314E8, symSize: 0x14 }
  - { offset: 0x8FC41, size: 0x8, addend: 0x0, symName: __RNvXNtNtCs2iVXuAemrgm_5alloc3vec14spec_from_iterINtB4_3VecReEINtB2_12SpecFromIterBU_INtNtNtNtCs7dfkhshTrE4_4core4iter8adapters10filter_map9FilterMapINtNtB1p_3zip3ZipINtNtB1p_4take4TakeINtNtNtB1t_5slice4iter4IterBU_EEIB2X_INtNtB1t_6option6OptionINtNtCs7Qj1RmEtpUo_4pyo38instance8BorrowedNtNtNtB3Z_5types3any5PyAnyEEEENCNvMs3_NtNtB3Z_5impl_16extract_argumentNtB5c_19FunctionDescription37missing_required_positional_arguments0EE9from_iterB3Z_, symObjAddr: 0x1E58, symBinAddr: 0x314FC, symSize: 0x14 }
  - { offset: 0x8FC80, size: 0x8, addend: 0x0, symName: __RNvXNtNtCs2iVXuAemrgm_5alloc3vec14spec_from_iterINtB4_3VecReEINtB2_12SpecFromIterBU_INtNtNtNtCs7dfkhshTrE4_4core4iter8adapters10filter_map9FilterMapINtNtB1p_3zip3ZipINtNtNtB1t_5slice4iter4IterNtNtNtCs7Qj1RmEtpUo_4pyo35impl_16extract_argument31KeywordOnlyParameterDescriptionEIB2E_INtNtB1t_6option6OptionINtNtB3a_8instance8BorrowedNtNtNtB3a_5types3any5PyAnyEEEENCNvMs3_B36_NtB36_19FunctionDescription34missing_required_keyword_arguments0EE9from_iterB3a_, symObjAddr: 0x1E6C, symBinAddr: 0x31510, symSize: 0x14 }
  - { offset: 0x8FCCB, size: 0x8, addend: 0x0, symName: __RNvXNtNtCs2iVXuAemrgm_5alloc3vec21spec_from_iter_nestedINtB4_3VecNtNtCsgh2hkQkDkI2_8pyo3_ffi11descrobject11PyGetSetDefEINtB2_18SpecFromIterNestedB11_INtNtNtNtCs7dfkhshTrE4_4core4iter8adapters3map3MapINtNtNtNtCskXqYSXpV4rx_3std11collections4hash3map4IterRNtNtNtB2w_3ffi5c_str4CStrNtNtNtCs7Qj1RmEtpUo_4pyo37pyclass18create_type_object16GetSetDefBuilderENCNvMB4v_NtB4v_13PyTypeBuilder31finalize_methods_and_properties0EE9from_iterB4z_, symObjAddr: 0x1E80, symBinAddr: 0x31524, symSize: 0x244 }
  - { offset: 0x8FF29, size: 0x8, addend: 0x0, symName: __RNvXNtNtCs2iVXuAemrgm_5alloc3vec21spec_from_iter_nestedINtB4_3VecReEINtB2_18SpecFromIterNestedB11_INtNtNtNtCs7dfkhshTrE4_4core4iter8adapters10filter_map9FilterMapINtNtB1D_3zip3ZipINtNtB1D_4take4TakeINtNtNtB1H_5slice4iter4IterB11_EEIB3b_INtNtB1H_6option6OptionINtNtCs7Qj1RmEtpUo_4pyo38instance8BorrowedNtNtNtB4e_5types3any5PyAnyEEEENCNvMs3_NtNtB4e_5impl_16extract_argumentNtB5r_19FunctionDescription37missing_required_positional_arguments0EE9from_iterB4e_, symObjAddr: 0x20C4, symBinAddr: 0x31768, symSize: 0x24C }
  - { offset: 0x90188, size: 0x8, addend: 0x0, symName: __RNvXNtNtCs2iVXuAemrgm_5alloc3vec21spec_from_iter_nestedINtB4_3VecReEINtB2_18SpecFromIterNestedB11_INtNtNtNtCs7dfkhshTrE4_4core4iter8adapters10filter_map9FilterMapINtNtB1D_3zip3ZipINtNtNtB1H_5slice4iter4IterNtNtNtCs7Qj1RmEtpUo_4pyo35impl_16extract_argument31KeywordOnlyParameterDescriptionEIB2S_INtNtB1H_6option6OptionINtNtB3o_8instance8BorrowedNtNtNtB3o_5types3any5PyAnyEEEENCNvMs3_B3k_NtB3k_19FunctionDescription34missing_required_keyword_arguments0EE9from_iterB3o_, symObjAddr: 0x2310, symBinAddr: 0x319B4, symSize: 0x24C }
  - { offset: 0x903EE, size: 0x8, addend: 0x0, symName: __RNvXs7_NtCs2iVXuAemrgm_5alloc3vecINtB5_3VecNtNtNtCskXqYSXpV4rx_3std6thread2id8ThreadIdENtNtNtCs7dfkhshTrE4_4core3ops5deref5Deref5derefCs7Qj1RmEtpUo_4pyo3, symObjAddr: 0x27A0, symBinAddr: 0x31C30, symSize: 0x20 }
  - { offset: 0x904AB, size: 0x8, addend: 0x0, symName: __RNvXs7_NtCs2iVXuAemrgm_5alloc3vecINtB5_3VecReENtNtNtCs7dfkhshTrE4_4core3ops5deref5Deref5derefCs7Qj1RmEtpUo_4pyo3, symObjAddr: 0x27C0, symBinAddr: 0x31C50, symSize: 0x20 }
  - { offset: 0x9056E, size: 0x8, addend: 0x0, symName: __RNvXsf_NtCs2iVXuAemrgm_5alloc3vecINtB5_3VecINtNtB7_5boxed3BoxDG_INtNtNtCs7dfkhshTrE4_4core3ops8function2FnTRL0_NtNtNtCs7Qj1RmEtpUo_4pyo37pyclass18create_type_object13PyTypeBuilderONtNtCsgh2hkQkDkI2_8pyo3_ffi6object12PyTypeObjectEEp6OutputuEL_EENtNtNtNtB17_4iter6traits7collect12IntoIterator9into_iterB1R_, symObjAddr: 0x2930, symBinAddr: 0x31C88, symSize: 0xA8 }
  - { offset: 0x90765, size: 0x8, addend: 0x0, symName: __RNvXsf_NtCs2iVXuAemrgm_5alloc3vecINtB5_3VecINtNtNtCs7dfkhshTrE4_4core3ptr8non_null7NonNullNtNtCsgh2hkQkDkI2_8pyo3_ffi6object8PyObjectEENtNtNtNtBM_4iter6traits7collect12IntoIterator9into_iterCs7Qj1RmEtpUo_4pyo3, symObjAddr: 0x29D8, symBinAddr: 0x31D30, symSize: 0xA8 }
  - { offset: 0x9095C, size: 0x8, addend: 0x0, symName: __RNvXsf_NtCs2iVXuAemrgm_5alloc3vecINtB5_3VecTRNtNtNtCs7dfkhshTrE4_4core3ffi5c_str4CStrINtNtCs7Qj1RmEtpUo_4pyo38instance2PyNtNtNtB1q_5types3any5PyAnyEEENtNtNtNtBN_4iter6traits7collect12IntoIterator9into_iterB1q_, symObjAddr: 0x2A80, symBinAddr: 0x31DD8, symSize: 0xB0 }
  - { offset: 0x90B59, size: 0x8, addend: 0x0, symName: __RNvXsh_NtCs2iVXuAemrgm_5alloc3vecQINtB5_3VecNtNtCsgh2hkQkDkI2_8pyo3_ffi6object11PyType_SlotENtNtNtNtCs7dfkhshTrE4_4core4iter6traits7collect12IntoIterator9into_iterCs7Qj1RmEtpUo_4pyo3, symObjAddr: 0x2B30, symBinAddr: 0x31E88, symSize: 0x60 }
  - { offset: 0x90D44, size: 0x8, addend: 0x0, symName: __RNvXso_NtCs2iVXuAemrgm_5alloc3vecINtB5_3VecINtNtB7_5boxed3BoxDG_INtNtNtCs7dfkhshTrE4_4core3ops8function2FnTRL0_NtNtNtCs7Qj1RmEtpUo_4pyo37pyclass18create_type_object13PyTypeBuilderONtNtCsgh2hkQkDkI2_8pyo3_ffi6object12PyTypeObjectEEp6OutputuEL_EENtNtB15_4drop4Drop4dropB1R_, symObjAddr: 0x2B90, symBinAddr: 0x31EE8, symSize: 0x38 }
  - { offset: 0x90DF4, size: 0x8, addend: 0x0, symName: __RNvXso_NtCs2iVXuAemrgm_5alloc3vecINtB5_3VecINtNtNtCs7dfkhshTrE4_4core3ptr8non_null7NonNullNtNtCsgh2hkQkDkI2_8pyo3_ffi6object8PyObjectEENtNtNtBM_3ops4drop4Drop4dropCs7Qj1RmEtpUo_4pyo3, symObjAddr: 0x2BC8, symBinAddr: 0x31F20, symSize: 0x24 }
  - { offset: 0x90EA4, size: 0x8, addend: 0x0, symName: __RNvXso_NtCs2iVXuAemrgm_5alloc3vecINtB5_3VecNtNtCsgh2hkQkDkI2_8pyo3_ffi11descrobject11PyGetSetDefENtNtNtCs7dfkhshTrE4_4core3ops4drop4Drop4dropCs7Qj1RmEtpUo_4pyo3, symObjAddr: 0x2BEC, symBinAddr: 0x31F44, symSize: 0x24 }
  - { offset: 0x90F54, size: 0x8, addend: 0x0, symName: __RNvXso_NtCs2iVXuAemrgm_5alloc3vecINtB5_3VecNtNtCsgh2hkQkDkI2_8pyo3_ffi11descrobject11PyMemberDefENtNtNtCs7dfkhshTrE4_4core3ops4drop4Drop4dropCs7Qj1RmEtpUo_4pyo3, symObjAddr: 0x2C10, symBinAddr: 0x31F68, symSize: 0x24 }
  - { offset: 0x91004, size: 0x8, addend: 0x0, symName: __RNvXso_NtCs2iVXuAemrgm_5alloc3vecINtB5_3VecNtNtCsgh2hkQkDkI2_8pyo3_ffi12methodobject11PyMethodDefENtNtNtCs7dfkhshTrE4_4core3ops4drop4Drop4dropCs7Qj1RmEtpUo_4pyo3, symObjAddr: 0x2C34, symBinAddr: 0x31F8C, symSize: 0x24 }
  - { offset: 0x910B4, size: 0x8, addend: 0x0, symName: __RNvXso_NtCs2iVXuAemrgm_5alloc3vecINtB5_3VecNtNtCsgh2hkQkDkI2_8pyo3_ffi6object11PyType_SlotENtNtNtCs7dfkhshTrE4_4core3ops4drop4Drop4dropCs7Qj1RmEtpUo_4pyo3, symObjAddr: 0x2C58, symBinAddr: 0x31FB0, symSize: 0x24 }
  - { offset: 0x91164, size: 0x8, addend: 0x0, symName: __RNvXso_NtCs2iVXuAemrgm_5alloc3vecINtB5_3VecNtNtNtCs7Qj1RmEtpUo_4pyo37pyclass18create_type_object19GetSetDefDestructorENtNtNtCs7dfkhshTrE4_4core3ops4drop4Drop4dropBL_, symObjAddr: 0x2C7C, symBinAddr: 0x31FD4, symSize: 0x38 }
  - { offset: 0x91214, size: 0x8, addend: 0x0, symName: __RNvXso_NtCs2iVXuAemrgm_5alloc3vecINtB5_3VecNtNtNtCskXqYSXpV4rx_3std6thread2id8ThreadIdENtNtNtCs7dfkhshTrE4_4core3ops4drop4Drop4dropCs7Qj1RmEtpUo_4pyo3, symObjAddr: 0x2CB4, symBinAddr: 0x3200C, symSize: 0x24 }
  - { offset: 0x912C4, size: 0x8, addend: 0x0, symName: __RNvXso_NtCs2iVXuAemrgm_5alloc3vecINtB5_3VecReENtNtNtCs7dfkhshTrE4_4core3ops4drop4Drop4dropCs7Qj1RmEtpUo_4pyo3, symObjAddr: 0x2CD8, symBinAddr: 0x32030, symSize: 0x24 }
  - { offset: 0x91374, size: 0x8, addend: 0x0, symName: __RNvXso_NtCs2iVXuAemrgm_5alloc3vecINtB5_3VecTRNtNtNtCs7dfkhshTrE4_4core3ffi5c_str4CStrINtNtCs7Qj1RmEtpUo_4pyo38instance2PyNtNtNtB1q_5types3any5PyAnyEEENtNtNtBN_3ops4drop4Drop4dropB1q_, symObjAddr: 0x2CFC, symBinAddr: 0x32054, symSize: 0x38 }
  - { offset: 0x9142A, size: 0x8, addend: 0x0, symName: __RNvXsp_NtCs2iVXuAemrgm_5alloc3vecINtB5_3VecINtNtB7_5boxed3BoxDG_INtNtNtCs7dfkhshTrE4_4core3ops8function2FnTRL0_NtNtNtCs7Qj1RmEtpUo_4pyo37pyclass18create_type_object13PyTypeBuilderONtNtCsgh2hkQkDkI2_8pyo3_ffi6object12PyTypeObjectEEp6OutputuEL_EENtNtB17_7default7Default7defaultB1R_, symObjAddr: 0x2D58, symBinAddr: 0x3208C, symSize: 0x14 }
  - { offset: 0x9144C, size: 0x8, addend: 0x0, symName: __RNvXsp_NtCs2iVXuAemrgm_5alloc3vecINtB5_3VecINtNtB7_5boxed3BoxDG_INtNtNtCs7dfkhshTrE4_4core3ops8function2FnTRL0_NtNtNtCs7Qj1RmEtpUo_4pyo37pyclass18create_type_object13PyTypeBuilderONtNtCsgh2hkQkDkI2_8pyo3_ffi6object12PyTypeObjectEEp6OutputuEL_EENtNtB17_7default7Default7defaultB1R_, symObjAddr: 0x2D58, symBinAddr: 0x3208C, symSize: 0x14 }
  - { offset: 0x91467, size: 0x8, addend: 0x0, symName: __RNvXsp_NtCs2iVXuAemrgm_5alloc3vecINtB5_3VecINtNtNtCs7dfkhshTrE4_4core3ptr8non_null7NonNullNtNtCsgh2hkQkDkI2_8pyo3_ffi6object8PyObjectEENtNtBM_7default7Default7defaultCs7Qj1RmEtpUo_4pyo3, symObjAddr: 0x2D6C, symBinAddr: 0x320A0, symSize: 0x14 }
  - { offset: 0x91489, size: 0x8, addend: 0x0, symName: __RNvXsp_NtCs2iVXuAemrgm_5alloc3vecINtB5_3VecINtNtNtCs7dfkhshTrE4_4core3ptr8non_null7NonNullNtNtCsgh2hkQkDkI2_8pyo3_ffi6object8PyObjectEENtNtBM_7default7Default7defaultCs7Qj1RmEtpUo_4pyo3, symObjAddr: 0x2D6C, symBinAddr: 0x320A0, symSize: 0x14 }
  - { offset: 0x914A4, size: 0x8, addend: 0x0, symName: __RNvXsp_NtCs2iVXuAemrgm_5alloc3vecINtB5_3VecNtNtCsgh2hkQkDkI2_8pyo3_ffi11descrobject11PyMemberDefENtNtCs7dfkhshTrE4_4core7default7Default7defaultCs7Qj1RmEtpUo_4pyo3, symObjAddr: 0x2D80, symBinAddr: 0x320B4, symSize: 0x14 }
  - { offset: 0x914C6, size: 0x8, addend: 0x0, symName: __RNvXsp_NtCs2iVXuAemrgm_5alloc3vecINtB5_3VecNtNtCsgh2hkQkDkI2_8pyo3_ffi11descrobject11PyMemberDefENtNtCs7dfkhshTrE4_4core7default7Default7defaultCs7Qj1RmEtpUo_4pyo3, symObjAddr: 0x2D80, symBinAddr: 0x320B4, symSize: 0x14 }
  - { offset: 0x914E1, size: 0x8, addend: 0x0, symName: __RNvXsp_NtCs2iVXuAemrgm_5alloc3vecINtB5_3VecNtNtCsgh2hkQkDkI2_8pyo3_ffi12methodobject11PyMethodDefENtNtCs7dfkhshTrE4_4core7default7Default7defaultCs7Qj1RmEtpUo_4pyo3, symObjAddr: 0x2D94, symBinAddr: 0x320C8, symSize: 0x14 }
  - { offset: 0x91503, size: 0x8, addend: 0x0, symName: __RNvXsp_NtCs2iVXuAemrgm_5alloc3vecINtB5_3VecNtNtCsgh2hkQkDkI2_8pyo3_ffi12methodobject11PyMethodDefENtNtCs7dfkhshTrE4_4core7default7Default7defaultCs7Qj1RmEtpUo_4pyo3, symObjAddr: 0x2D94, symBinAddr: 0x320C8, symSize: 0x14 }
  - { offset: 0x94BCE, size: 0x8, addend: 0x0, symName: __RNvXs1g_NtCs7dfkhshTrE4_4core3fmtRINtNtCs2iVXuAemrgm_5alloc3vec3VechENtB6_5Debug3fmtCs7Qj1RmEtpUo_4pyo3, symObjAddr: 0x2720, symBinAddr: 0x31C00, symSize: 0x30 }
  - { offset: 0x9550B, size: 0x8, addend: 0x0, symName: __RINvMs_NtCs2iVXuAemrgm_5alloc3vecINtB5_3VecNtNtNtCskXqYSXpV4rx_3std6thread2id8ThreadIdE10retain_mutNCINvB2_6retainNCNvXNvMs0_NtNtNtCs7Qj1RmEtpUo_4pyo35impl_7pyclass16lazy_type_objectNtB1Z_19LazyTypeObjectInner11ensure_initNtB1T_19InitializationGuardNtNtNtCs7dfkhshTrE4_4core3ops4drop4Drop4drop0E0EB25_, symObjAddr: 0x0, symBinAddr: 0x2F96C, symSize: 0x31C }
  - { offset: 0x95986, size: 0x8, addend: 0x0, symName: __RINvMs_NtCs2iVXuAemrgm_5alloc3vecINtB5_3VecNtNtNtCskXqYSXpV4rx_3std6thread2id8ThreadIdE6retainNCNvXNvMs0_NtNtNtCs7Qj1RmEtpUo_4pyo35impl_7pyclass16lazy_type_objectNtB1F_19LazyTypeObjectInner11ensure_initNtB1z_19InitializationGuardNtNtNtCs7dfkhshTrE4_4core3ops4drop4Drop4drop0EB1L_, symObjAddr: 0x31C, symBinAddr: 0x2FC88, symSize: 0x4C }
  - { offset: 0x95E86, size: 0x8, addend: 0x0, symName: __RINvMsj_NtCs2iVXuAemrgm_5alloc3vecINtB6_3VecNtNtCsgh2hkQkDkI2_8pyo3_ffi11descrobject11PyGetSetDefE16extend_desugaredINtNtNtNtCs7dfkhshTrE4_4core4iter8adapters3map3MapINtNtNtNtCskXqYSXpV4rx_3std11collections4hash3map4IterRNtNtNtB1Z_3ffi5c_str4CStrNtNtNtCs7Qj1RmEtpUo_4pyo37pyclass18create_type_object16GetSetDefBuilderENCNvMB3Y_NtB3Y_13PyTypeBuilder31finalize_methods_and_properties0EEB42_, symObjAddr: 0x368, symBinAddr: 0x2FCD4, symSize: 0x1C8 }
  - { offset: 0x962F1, size: 0x8, addend: 0x0, symName: __RINvMsj_NtCs2iVXuAemrgm_5alloc3vecINtB6_3VecReE16extend_desugaredINtNtNtNtCs7dfkhshTrE4_4core4iter8adapters10filter_map9FilterMapINtNtB16_3zip3ZipINtNtB16_4take4TakeINtNtNtB1a_5slice4iter4IterBG_EEIB2E_INtNtB1a_6option6OptionINtNtCs7Qj1RmEtpUo_4pyo38instance8BorrowedNtNtNtB3G_5types3any5PyAnyEEEENCNvMs3_NtNtB3G_5impl_16extract_argumentNtB4T_19FunctionDescription37missing_required_positional_arguments0EEB3G_, symObjAddr: 0x530, symBinAddr: 0x2FE9C, symSize: 0x1C4 }
  - { offset: 0x966DB, size: 0x8, addend: 0x0, symName: __RINvMsj_NtCs2iVXuAemrgm_5alloc3vecINtB6_3VecReE16extend_desugaredINtNtNtNtCs7dfkhshTrE4_4core4iter8adapters10filter_map9FilterMapINtNtB16_3zip3ZipINtNtNtB1a_5slice4iter4IterNtNtNtCs7Qj1RmEtpUo_4pyo35impl_16extract_argument31KeywordOnlyParameterDescriptionEIB2l_INtNtB1a_6option6OptionINtNtB2R_8instance8BorrowedNtNtNtB2R_5types3any5PyAnyEEEENCNvMs3_B2N_NtB2N_19FunctionDescription34missing_required_keyword_arguments0EEB2R_, symObjAddr: 0x6F4, symBinAddr: 0x30060, symSize: 0x1C4 }
  - { offset: 0x96998, size: 0x8, addend: 0x0, symName: __RNvMNtCs2iVXuAemrgm_5alloc3vecINtB2_3VecINtNtB4_5boxed3BoxDG_INtNtNtCs7dfkhshTrE4_4core3ops8function2FnTRL0_NtNtNtCs7Qj1RmEtpUo_4pyo37pyclass18create_type_object13PyTypeBuilderONtNtCsgh2hkQkDkI2_8pyo3_ffi6object12PyTypeObjectEEp6OutputuEL_EE3newB1O_, symObjAddr: 0x984, symBinAddr: 0x302F0, symSize: 0x14 }
  - { offset: 0x969B5, size: 0x8, addend: 0x0, symName: __RNvMNtCs2iVXuAemrgm_5alloc3vecINtB2_3VecINtNtNtCs7dfkhshTrE4_4core3ptr8non_null7NonNullNtNtCsgh2hkQkDkI2_8pyo3_ffi6object8PyObjectEE3newCs7Qj1RmEtpUo_4pyo3, symObjAddr: 0x998, symBinAddr: 0x30304, symSize: 0x14 }
  - { offset: 0x969D2, size: 0x8, addend: 0x0, symName: __RNvMNtCs2iVXuAemrgm_5alloc3vecINtB2_3VecNtNtCsgh2hkQkDkI2_8pyo3_ffi11descrobject11PyMemberDefE3newCs7Qj1RmEtpUo_4pyo3, symObjAddr: 0x9AC, symBinAddr: 0x30318, symSize: 0x14 }
  - { offset: 0x96A5D, size: 0x8, addend: 0x0, symName: __RNvMNtCs2iVXuAemrgm_5alloc3vecINtB2_3VecNtNtCsgh2hkQkDkI2_8pyo3_ffi12methodobject11PyMethodDefE3newCs7Qj1RmEtpUo_4pyo3, symObjAddr: 0x9C0, symBinAddr: 0x3032C, symSize: 0x14 }
  - { offset: 0x96A7A, size: 0x8, addend: 0x0, symName: __RNvMNtCs2iVXuAemrgm_5alloc3vecINtB2_3VecNtNtCsgh2hkQkDkI2_8pyo3_ffi6object11PyType_SlotE3newCs7Qj1RmEtpUo_4pyo3, symObjAddr: 0x9D4, symBinAddr: 0x30340, symSize: 0x14 }
  - { offset: 0x96AF9, size: 0x8, addend: 0x0, symName: __RNvMNtCs2iVXuAemrgm_5alloc3vecINtB2_3VecNtNtNtCs7Qj1RmEtpUo_4pyo37pyclass18create_type_object19GetSetDefDestructorE13with_capacityBI_, symObjAddr: 0x9E8, symBinAddr: 0x30354, symSize: 0x44 }
  - { offset: 0x96B71, size: 0x8, addend: 0x0, symName: __RNvMNtCs2iVXuAemrgm_5alloc3vecINtB2_3VecNtNtNtCskXqYSXpV4rx_3std6thread2id8ThreadIdE3newCs7Qj1RmEtpUo_4pyo3, symObjAddr: 0xA2C, symBinAddr: 0x30398, symSize: 0x14 }
  - { offset: 0x96BAC, size: 0x8, addend: 0x0, symName: __RNvMNtCs2iVXuAemrgm_5alloc3vecINtB2_3VecTRNtNtNtCs7dfkhshTrE4_4core3ffi5c_str4CStrINtNtCs7Qj1RmEtpUo_4pyo38instance2PyNtNtNtB1n_5types3any5PyAnyEEE3newB1n_, symObjAddr: 0xA40, symBinAddr: 0x303AC, symSize: 0x14 }
  - { offset: 0x96BD6, size: 0x8, addend: 0x0, symName: __RNvMNtNtCs7Qj1RmEtpUo_4pyo35types4noneNtB2_6PyNone9get_boundB6_, symObjAddr: 0xC80, symBinAddr: 0x303C0, symSize: 0x2C }
  - { offset: 0x96C10, size: 0x8, addend: 0x0, symName: __RNvMsF_NtCs2iVXuAemrgm_5alloc3vecINtB5_3VecINtNtNtCs7dfkhshTrE4_4core3ptr8non_null7NonNullNtNtCsgh2hkQkDkI2_8pyo3_ffi6object8PyObjectEE4pushCs7Qj1RmEtpUo_4pyo3, symObjAddr: 0xCAC, symBinAddr: 0x303EC, symSize: 0x2C }
  - { offset: 0x96D68, size: 0x8, addend: 0x0, symName: __RNvMsF_NtCs2iVXuAemrgm_5alloc3vecINtB5_3VecINtNtNtCs7dfkhshTrE4_4core3ptr8non_null7NonNullNtNtCsgh2hkQkDkI2_8pyo3_ffi6object8PyObjectEE8push_mutCs7Qj1RmEtpUo_4pyo3, symObjAddr: 0xCD8, symBinAddr: 0x30418, symSize: 0xD0 }
  - { offset: 0x96EEA, size: 0x8, addend: 0x0, symName: __RNvMsF_NtCs2iVXuAemrgm_5alloc3vecINtB5_3VecNtNtCsgh2hkQkDkI2_8pyo3_ffi11descrobject11PyGetSetDefE4pushCs7Qj1RmEtpUo_4pyo3, symObjAddr: 0xDA8, symBinAddr: 0x304E8, symSize: 0x24 }
  - { offset: 0x9701C, size: 0x8, addend: 0x0, symName: __RNvMsF_NtCs2iVXuAemrgm_5alloc3vecINtB5_3VecNtNtCsgh2hkQkDkI2_8pyo3_ffi11descrobject11PyGetSetDefE8push_mutCs7Qj1RmEtpUo_4pyo3, symObjAddr: 0xDCC, symBinAddr: 0x3050C, symSize: 0xF8 }
  - { offset: 0x971AC, size: 0x8, addend: 0x0, symName: __RNvMsF_NtCs2iVXuAemrgm_5alloc3vecINtB5_3VecNtNtCsgh2hkQkDkI2_8pyo3_ffi11descrobject11PyMemberDefE4pushCs7Qj1RmEtpUo_4pyo3, symObjAddr: 0xEC4, symBinAddr: 0x30604, symSize: 0x24 }
  - { offset: 0x97305, size: 0x8, addend: 0x0, symName: __RNvMsF_NtCs2iVXuAemrgm_5alloc3vecINtB5_3VecNtNtCsgh2hkQkDkI2_8pyo3_ffi11descrobject11PyMemberDefE8push_mutCs7Qj1RmEtpUo_4pyo3, symObjAddr: 0xEE8, symBinAddr: 0x30628, symSize: 0xF8 }
  - { offset: 0x97495, size: 0x8, addend: 0x0, symName: __RNvMsF_NtCs2iVXuAemrgm_5alloc3vecINtB5_3VecNtNtCsgh2hkQkDkI2_8pyo3_ffi12methodobject11PyMethodDefE4pushCs7Qj1RmEtpUo_4pyo3, symObjAddr: 0xFE0, symBinAddr: 0x30720, symSize: 0x24 }
  - { offset: 0x975EE, size: 0x8, addend: 0x0, symName: __RNvMsF_NtCs2iVXuAemrgm_5alloc3vecINtB5_3VecNtNtCsgh2hkQkDkI2_8pyo3_ffi12methodobject11PyMethodDefE8push_mutCs7Qj1RmEtpUo_4pyo3, symObjAddr: 0x1004, symBinAddr: 0x30744, symSize: 0xDC }
  - { offset: 0x97780, size: 0x8, addend: 0x0, symName: __RNvMsF_NtCs2iVXuAemrgm_5alloc3vecINtB5_3VecNtNtCsgh2hkQkDkI2_8pyo3_ffi6object11PyType_SlotE4pushCs7Qj1RmEtpUo_4pyo3, symObjAddr: 0x10E0, symBinAddr: 0x30820, symSize: 0x30 }
  - { offset: 0x978D8, size: 0x8, addend: 0x0, symName: __RNvMsF_NtCs2iVXuAemrgm_5alloc3vecINtB5_3VecNtNtCsgh2hkQkDkI2_8pyo3_ffi6object11PyType_SlotE8push_mutCs7Qj1RmEtpUo_4pyo3, symObjAddr: 0x1110, symBinAddr: 0x30850, symSize: 0xE0 }
  - { offset: 0x97A5B, size: 0x8, addend: 0x0, symName: __RNvMsF_NtCs2iVXuAemrgm_5alloc3vecINtB5_3VecNtNtNtCs7Qj1RmEtpUo_4pyo37pyclass18create_type_object19GetSetDefDestructorE4pushBL_, symObjAddr: 0x11F0, symBinAddr: 0x30930, symSize: 0x30 }
  - { offset: 0x97BB3, size: 0x8, addend: 0x0, symName: __RNvMsF_NtCs2iVXuAemrgm_5alloc3vecINtB5_3VecNtNtNtCs7Qj1RmEtpUo_4pyo37pyclass18create_type_object19GetSetDefDestructorE8push_mutBL_, symObjAddr: 0x1220, symBinAddr: 0x30960, symSize: 0xE4 }
  - { offset: 0x97D37, size: 0x8, addend: 0x0, symName: __RNvMsF_NtCs2iVXuAemrgm_5alloc3vecINtB5_3VecNtNtNtCskXqYSXpV4rx_3std6thread2id8ThreadIdE4pushCs7Qj1RmEtpUo_4pyo3, symObjAddr: 0x1304, symBinAddr: 0x30A44, symSize: 0x28 }
  - { offset: 0x97E5B, size: 0x8, addend: 0x0, symName: __RNvMsF_NtCs2iVXuAemrgm_5alloc3vecINtB5_3VecNtNtNtCskXqYSXpV4rx_3std6thread2id8ThreadIdE8push_mutCs7Qj1RmEtpUo_4pyo3, symObjAddr: 0x132C, symBinAddr: 0x30A6C, symSize: 0xCC }
  - { offset: 0x97FEA, size: 0x8, addend: 0x0, symName: __RNvMsF_NtCs2iVXuAemrgm_5alloc3vecINtB5_3VecTRNtNtNtCs7dfkhshTrE4_4core3ffi5c_str4CStrINtNtCs7Qj1RmEtpUo_4pyo38instance2PyNtNtNtB1q_5types3any5PyAnyEEE4pushB1q_, symObjAddr: 0x13F8, symBinAddr: 0x30B38, symSize: 0x24 }
  - { offset: 0x98143, size: 0x8, addend: 0x0, symName: __RNvMsF_NtCs2iVXuAemrgm_5alloc3vecINtB5_3VecTRNtNtNtCs7dfkhshTrE4_4core3ffi5c_str4CStrINtNtCs7Qj1RmEtpUo_4pyo38instance2PyNtNtNtB1q_5types3any5PyAnyEEE8push_mutB1q_, symObjAddr: 0x141C, symBinAddr: 0x30B5C, symSize: 0xF4 }
  - { offset: 0x982FA, size: 0x8, addend: 0x0, symName: __RNvMs_NtCs2iVXuAemrgm_5alloc3vecINtB4_3VecINtNtNtCs7dfkhshTrE4_4core3ptr8non_null7NonNullNtNtCsgh2hkQkDkI2_8pyo3_ffi6object8PyObjectEE8is_emptyCs7Qj1RmEtpUo_4pyo3, symObjAddr: 0x1510, symBinAddr: 0x30C50, symSize: 0x20 }
  - { offset: 0x98734, size: 0x8, addend: 0x0, symName: __RNvMs_NtCs2iVXuAemrgm_5alloc3vecINtB4_3VecNtNtCsgh2hkQkDkI2_8pyo3_ffi11descrobject11PyGetSetDefE16into_boxed_sliceCs7Qj1RmEtpUo_4pyo3, symObjAddr: 0x1530, symBinAddr: 0x30C70, symSize: 0x1EC }
  - { offset: 0x98C2B, size: 0x8, addend: 0x0, symName: __RNvMs_NtCs2iVXuAemrgm_5alloc3vecINtB4_3VecNtNtCsgh2hkQkDkI2_8pyo3_ffi11descrobject11PyGetSetDefE7reserveCs7Qj1RmEtpUo_4pyo3, symObjAddr: 0x171C, symBinAddr: 0x30E5C, symSize: 0xA8 }
  - { offset: 0x98D9E, size: 0x8, addend: 0x0, symName: __RNvMs_NtCs2iVXuAemrgm_5alloc3vecINtB4_3VecNtNtCsgh2hkQkDkI2_8pyo3_ffi11descrobject11PyGetSetDefE8is_emptyCs7Qj1RmEtpUo_4pyo3, symObjAddr: 0x17C4, symBinAddr: 0x30F04, symSize: 0x20 }
  - { offset: 0x991AD, size: 0x8, addend: 0x0, symName: __RNvMs_NtCs2iVXuAemrgm_5alloc3vecINtB4_3VecNtNtCsgh2hkQkDkI2_8pyo3_ffi11descrobject11PyMemberDefE16into_boxed_sliceCs7Qj1RmEtpUo_4pyo3, symObjAddr: 0x17E4, symBinAddr: 0x30F24, symSize: 0x1EC }
  - { offset: 0x995B3, size: 0x8, addend: 0x0, symName: __RNvMs_NtCs2iVXuAemrgm_5alloc3vecINtB4_3VecNtNtCsgh2hkQkDkI2_8pyo3_ffi11descrobject11PyMemberDefE8is_emptyCs7Qj1RmEtpUo_4pyo3, symObjAddr: 0x19D0, symBinAddr: 0x31110, symSize: 0x20 }
  - { offset: 0x999C2, size: 0x8, addend: 0x0, symName: __RNvMs_NtCs2iVXuAemrgm_5alloc3vecINtB4_3VecNtNtCsgh2hkQkDkI2_8pyo3_ffi12methodobject11PyMethodDefE16into_boxed_sliceCs7Qj1RmEtpUo_4pyo3, symObjAddr: 0x19F0, symBinAddr: 0x31130, symSize: 0x1EC }
  - { offset: 0x99DC8, size: 0x8, addend: 0x0, symName: __RNvMs_NtCs2iVXuAemrgm_5alloc3vecINtB4_3VecNtNtCsgh2hkQkDkI2_8pyo3_ffi12methodobject11PyMethodDefE8is_emptyCs7Qj1RmEtpUo_4pyo3, symObjAddr: 0x1BDC, symBinAddr: 0x3131C, symSize: 0x20 }
  - { offset: 0x99E66, size: 0x8, addend: 0x0, symName: __RNvMs_NtCs2iVXuAemrgm_5alloc3vecINtB4_3VecNtNtCsgh2hkQkDkI2_8pyo3_ffi6object11PyType_SlotE10as_mut_ptrCs7Qj1RmEtpUo_4pyo3, symObjAddr: 0x1BFC, symBinAddr: 0x3133C, symSize: 0x18 }
  - { offset: 0x99FF2, size: 0x8, addend: 0x0, symName: __RNvMs_NtCs2iVXuAemrgm_5alloc3vecINtB4_3VecReE7reserveCs7Qj1RmEtpUo_4pyo3, symObjAddr: 0x1C14, symBinAddr: 0x31354, symSize: 0xA8 }
  - { offset: 0x9A165, size: 0x8, addend: 0x0, symName: __RNvMs_NtCs2iVXuAemrgm_5alloc3vecINtB4_3VecReE8is_emptyCs7Qj1RmEtpUo_4pyo3, symObjAddr: 0x1CBC, symBinAddr: 0x313FC, symSize: 0x20 }
  - { offset: 0x9B54F, size: 0x8, addend: 0x0, symName: __RINvMs2_NtNtCskXqYSXpV4rx_3std6thread5localINtB6_8LocalKeyINtNtCs7dfkhshTrE4_4core4cell4CellTyyEEE4withNCNvMNtNtBa_4hash6randomNtB1I_11RandomState3new0B21_ECs7Qj1RmEtpUo_4pyo3, symObjAddr: 0x0, symBinAddr: 0x320DC, symSize: 0x50 }
  - { offset: 0x9C5BF, size: 0x8, addend: 0x0, symName: __RNvXs5_NtNtCs7dfkhshTrE4_4core3num5errorNtB5_15TryFromIntErrorNtNtB9_3fmt5Debug3fmtCs7Qj1RmEtpUo_4pyo3, symObjAddr: 0x2DA8, symBinAddr: 0x33124, symSize: 0x54 }
  - { offset: 0x9C698, size: 0x8, addend: 0x0, symName: __RNvNvMs9_NtCs7dfkhshTrE4_4core3numj13unchecked_add18precondition_checkCs7Qj1RmEtpUo_4pyo3, symObjAddr: 0x20D8, symBinAddr: 0x32D94, symSize: 0x64 }
  - { offset: 0x9C741, size: 0x8, addend: 0x0, symName: __RNvNvMs9_NtCs7dfkhshTrE4_4core3numj13unchecked_mul18precondition_checkCs7Qj1RmEtpUo_4pyo3, symObjAddr: 0x213C, symBinAddr: 0x32DF8, symSize: 0x60 }
  - { offset: 0x9C85F, size: 0x8, addend: 0x0, symName: __RNvYNtNtNtCskXqYSXpV4rx_3std6thread2id8ThreadIdNtNtCs7dfkhshTrE4_4core3cmp9PartialEq2neCs7Qj1RmEtpUo_4pyo3, symObjAddr: 0x4170, symBinAddr: 0x333F8, symSize: 0x30 }
  - { offset: 0x9D4D0, size: 0x8, addend: 0x0, symName: __RNvMNtCs7dfkhshTrE4_4core5sliceSNtNtNtCskXqYSXpV4rx_3std6thread2id8ThreadId8containsCs7Qj1RmEtpUo_4pyo3, symObjAddr: 0xB40, symBinAddr: 0x3247C, symSize: 0x48 }
  - { offset: 0x9D650, size: 0x8, addend: 0x0, symName: __RNvXsf_NtNtCs7dfkhshTrE4_4core5slice3cmpNtNtNtCskXqYSXpV4rx_3std6thread2id8ThreadIdNtB5_13SliceContains14slice_containsCs7Qj1RmEtpUo_4pyo3, symObjAddr: 0x39BC, symBinAddr: 0x33380, symSize: 0x78 }
  - { offset: 0x9DAA1, size: 0x8, addend: 0x0, symName: __RNvXs_NtNtCs7dfkhshTrE4_4core3str6traitseNtNtB8_3cmp9PartialEq2eqCs7Qj1RmEtpUo_4pyo3, symObjAddr: 0x3208, symBinAddr: 0x33290, symSize: 0xA4 }
  - { offset: 0x9DC28, size: 0x8, addend: 0x0, symName: __RNvXNtNtNtCs7dfkhshTrE4_4core5array4iter10iter_innerSINtNtNtB8_3mem12maybe_uninit11MaybeUninitINtNtCs7Qj1RmEtpUo_4pyo38instance2PyNtNtNtB1z_5types3any5PyAnyEENtB2_11PartialDrop12partial_dropB1z_, symObjAddr: 0x2304, symBinAddr: 0x32E58, symSize: 0xA0 }
  - { offset: 0x9DD28, size: 0x8, addend: 0x0, symName: __RNvXs_NtNtNtCs7dfkhshTrE4_4core5array4iter10iter_innerAINtNtNtBa_3mem12maybe_uninit11MaybeUninitINtNtCs7Qj1RmEtpUo_4pyo38instance2PyNtNtNtB1B_5types3any5PyAnyEEj1_NtB4_11PartialDrop12partial_dropB1B_, symObjAddr: 0x32AC, symBinAddr: 0x33334, symSize: 0x4C }
  - { offset: 0x9DFB6, size: 0x8, addend: 0x0, symName: __RNvNtCsgh2hkQkDkI2_8pyo3_ffi7objimpl12PyType_IS_GCCs7Qj1RmEtpUo_4pyo3, symObjAddr: 0x20AC, symBinAddr: 0x32D68, symSize: 0x2C }
  - { offset: 0x9E0A4, size: 0x8, addend: 0x0, symName: __RNvXsB_NtCs2iVXuAemrgm_5alloc6stringNtNtNtCs7dfkhshTrE4_4core3num5error15TryFromIntErrorNtB5_8ToString9to_stringCs7Qj1RmEtpUo_4pyo3, symObjAddr: 0x2EE4, symBinAddr: 0x33178, symSize: 0x24 }
  - { offset: 0x9E0E1, size: 0x8, addend: 0x0, symName: __RNvXsC_NtCs2iVXuAemrgm_5alloc6stringNtNtNtCs7dfkhshTrE4_4core3num5error15TryFromIntErrorNtB5_12SpecToString14spec_to_stringCs7Qj1RmEtpUo_4pyo3, symObjAddr: 0x3020, symBinAddr: 0x3319C, symSize: 0xF4 }
  - { offset: 0x9E62F, size: 0x8, addend: 0x0, symName: __RNvXs1_NtCs2iVXuAemrgm_5alloc7raw_vecINtB5_6RawVecINtNtB7_5boxed3BoxDG_INtNtNtCs7dfkhshTrE4_4core3ops8function2FnTRL0_NtNtNtCs7Qj1RmEtpUo_4pyo37pyclass18create_type_object13PyTypeBuilderONtNtCsgh2hkQkDkI2_8pyo3_ffi6object12PyTypeObjectEEp6OutputuEL_EENtNtB1c_4drop4Drop4dropB1Y_, symObjAddr: 0x2678, symBinAddr: 0x32EF8, symSize: 0x34 }
  - { offset: 0x9E66B, size: 0x8, addend: 0x0, symName: __RNvXs1_NtCs2iVXuAemrgm_5alloc7raw_vecINtB5_6RawVecINtNtNtCs7dfkhshTrE4_4core3ptr8non_null7NonNullNtNtCsgh2hkQkDkI2_8pyo3_ffi6object8PyObjectEENtNtNtBT_3ops4drop4Drop4dropCs7Qj1RmEtpUo_4pyo3, symObjAddr: 0x26AC, symBinAddr: 0x32F2C, symSize: 0x30 }
  - { offset: 0x9E6A7, size: 0x8, addend: 0x0, symName: __RNvXs1_NtCs2iVXuAemrgm_5alloc7raw_vecINtB5_6RawVecNtNtCsgh2hkQkDkI2_8pyo3_ffi11descrobject11PyGetSetDefENtNtNtCs7dfkhshTrE4_4core3ops4drop4Drop4dropCs7Qj1RmEtpUo_4pyo3, symObjAddr: 0x26DC, symBinAddr: 0x32F5C, symSize: 0x34 }
  - { offset: 0x9E6E3, size: 0x8, addend: 0x0, symName: __RNvXs1_NtCs2iVXuAemrgm_5alloc7raw_vecINtB5_6RawVecNtNtCsgh2hkQkDkI2_8pyo3_ffi11descrobject11PyMemberDefENtNtNtCs7dfkhshTrE4_4core3ops4drop4Drop4dropCs7Qj1RmEtpUo_4pyo3, symObjAddr: 0x2710, symBinAddr: 0x32F90, symSize: 0x34 }
  - { offset: 0x9E71F, size: 0x8, addend: 0x0, symName: __RNvXs1_NtCs2iVXuAemrgm_5alloc7raw_vecINtB5_6RawVecNtNtCsgh2hkQkDkI2_8pyo3_ffi12methodobject11PyMethodDefENtNtNtCs7dfkhshTrE4_4core3ops4drop4Drop4dropCs7Qj1RmEtpUo_4pyo3, symObjAddr: 0x2744, symBinAddr: 0x32FC4, symSize: 0x34 }
  - { offset: 0x9E75B, size: 0x8, addend: 0x0, symName: __RNvXs1_NtCs2iVXuAemrgm_5alloc7raw_vecINtB5_6RawVecNtNtCsgh2hkQkDkI2_8pyo3_ffi6object11PyType_SlotENtNtNtCs7dfkhshTrE4_4core3ops4drop4Drop4dropCs7Qj1RmEtpUo_4pyo3, symObjAddr: 0x2778, symBinAddr: 0x32FF8, symSize: 0x34 }
  - { offset: 0x9E797, size: 0x8, addend: 0x0, symName: __RNvXs1_NtCs2iVXuAemrgm_5alloc7raw_vecINtB5_6RawVecNtNtNtCs7Qj1RmEtpUo_4pyo37pyclass18create_type_object19GetSetDefDestructorENtNtNtCs7dfkhshTrE4_4core3ops4drop4Drop4dropBS_, symObjAddr: 0x27AC, symBinAddr: 0x3302C, symSize: 0x34 }
  - { offset: 0x9E7D3, size: 0x8, addend: 0x0, symName: __RNvXs1_NtCs2iVXuAemrgm_5alloc7raw_vecINtB5_6RawVecNtNtNtCskXqYSXpV4rx_3std6thread2id8ThreadIdENtNtNtCs7dfkhshTrE4_4core3ops4drop4Drop4dropCs7Qj1RmEtpUo_4pyo3, symObjAddr: 0x27E0, symBinAddr: 0x33060, symSize: 0x30 }
  - { offset: 0x9E80F, size: 0x8, addend: 0x0, symName: __RNvXs1_NtCs2iVXuAemrgm_5alloc7raw_vecINtB5_6RawVecReENtNtNtCs7dfkhshTrE4_4core3ops4drop4Drop4dropCs7Qj1RmEtpUo_4pyo3, symObjAddr: 0x2810, symBinAddr: 0x33090, symSize: 0x34 }
  - { offset: 0x9E84B, size: 0x8, addend: 0x0, symName: __RNvXs1_NtCs2iVXuAemrgm_5alloc7raw_vecINtB5_6RawVecTRNtNtNtCs7dfkhshTrE4_4core3ffi5c_str4CStrINtNtCs7Qj1RmEtpUo_4pyo38instance2PyNtNtNtB1x_5types3any5PyAnyEEENtNtNtBU_3ops4drop4Drop4dropB1x_, symObjAddr: 0x2844, symBinAddr: 0x330C4, symSize: 0x34 }
  - { offset: 0x9ED89, size: 0x8, addend: 0x0, symName: __RNvXs1_NtNtCskXqYSXpV4rx_3std6thread2idNtB5_8ThreadIdNtNtCs7dfkhshTrE4_4core3cmp9PartialEq2eqCs7Qj1RmEtpUo_4pyo3, symObjAddr: 0x28DC, symBinAddr: 0x330F8, symSize: 0x2C }
  - { offset: 0x9EF53, size: 0x8, addend: 0x0, symName: __RINvMs2_NtNtCskXqYSXpV4rx_3std6thread5localINtB6_8LocalKeyINtNtCs7dfkhshTrE4_4core4cell4CellTyyEEE4withNCNvMNtNtBa_4hash6randomNtB1I_11RandomState3new0B21_ECs7Qj1RmEtpUo_4pyo3, symObjAddr: 0x0, symBinAddr: 0x320DC, symSize: 0x50 }
  - { offset: 0x9F00C, size: 0x8, addend: 0x0, symName: __RINvMs2_NtNtCskXqYSXpV4rx_3std6thread5localINtB6_8LocalKeyINtNtCs7dfkhshTrE4_4core4cell4CellTyyEEE8try_withNCNvMNtNtBa_4hash6randomNtB1M_11RandomState3new0B25_ECs7Qj1RmEtpUo_4pyo3, symObjAddr: 0x50, symBinAddr: 0x3212C, symSize: 0xE8 }
  - { offset: 0x9F1EE, size: 0x8, addend: 0x0, symName: __RINvMs2_NtNtCskXqYSXpV4rx_3std6thread5localINtB6_8LocalKeyINtNtCs7dfkhshTrE4_4core4cell4CelliEE8try_withNCNvNtCs7Qj1RmEtpUo_4pyo33gil15gil_is_acquired0bEB1K_, symObjAddr: 0x424, symBinAddr: 0x32214, symSize: 0xD0 }
  - { offset: 0x9F370, size: 0x8, addend: 0x0, symName: __RINvMs2_NtNtCskXqYSXpV4rx_3std6thread5localINtB6_8LocalKeyINtNtCs7dfkhshTrE4_4core4cell4CelliEE8try_withNCNvNtCs7Qj1RmEtpUo_4pyo33gil19decrement_gil_count0uEB1K_, symObjAddr: 0x4F4, symBinAddr: 0x322E4, symSize: 0xCC }
  - { offset: 0x9F4F1, size: 0x8, addend: 0x0, symName: __RINvMs2_NtNtCskXqYSXpV4rx_3std6thread5localINtB6_8LocalKeyINtNtCs7dfkhshTrE4_4core4cell4CelliEE8try_withNCNvNtCs7Qj1RmEtpUo_4pyo33gil19increment_gil_count0uEB1K_, symObjAddr: 0x5C0, symBinAddr: 0x323B0, symSize: 0xCC }
  - { offset: 0x9F75C, size: 0x8, addend: 0x0, symName: __RNvMs2_NtCs2iVXuAemrgm_5alloc7raw_vecNtB5_11RawVecInner14current_memoryCs7Qj1RmEtpUo_4pyo3, symObjAddr: 0xE24, symBinAddr: 0x324C4, symSize: 0x10C }
  - { offset: 0x9F9E7, size: 0x8, addend: 0x0, symName: __RNvMs2_NtCs2iVXuAemrgm_5alloc7raw_vecNtB5_11RawVecInner16shrink_uncheckedCs7Qj1RmEtpUo_4pyo3, symObjAddr: 0xF30, symBinAddr: 0x325D0, symSize: 0x28C }
  - { offset: 0x9FD3F, size: 0x8, addend: 0x0, symName: __RNvMs2_NtCs2iVXuAemrgm_5alloc7raw_vecNtB5_11RawVecInner6shrinkCs7Qj1RmEtpUo_4pyo3, symObjAddr: 0x11BC, symBinAddr: 0x3285C, symSize: 0xB8 }
  - { offset: 0x9FE27, size: 0x8, addend: 0x0, symName: __RNvMs3_NtCs2iVXuAemrgm_5alloc7raw_vecINtB5_6RawVecINtNtNtCs7dfkhshTrE4_4core3ptr8non_null7NonNullNtNtCsgh2hkQkDkI2_8pyo3_ffi6object8PyObjectEE8grow_oneCs7Qj1RmEtpUo_4pyo3, symObjAddr: 0x1274, symBinAddr: 0x32914, symSize: 0x84 }
  - { offset: 0x9FF44, size: 0x8, addend: 0x0, symName: __RNvMs3_NtCs2iVXuAemrgm_5alloc7raw_vecINtB5_6RawVecNtNtCsgh2hkQkDkI2_8pyo3_ffi11descrobject11PyGetSetDefE8grow_oneCs7Qj1RmEtpUo_4pyo3, symObjAddr: 0x12F8, symBinAddr: 0x32998, symSize: 0x88 }
  - { offset: 0x9FFF4, size: 0x8, addend: 0x0, symName: __RNvMs3_NtCs2iVXuAemrgm_5alloc7raw_vecINtB5_6RawVecNtNtCsgh2hkQkDkI2_8pyo3_ffi11descrobject11PyMemberDefE8grow_oneCs7Qj1RmEtpUo_4pyo3, symObjAddr: 0x1380, symBinAddr: 0x32A20, symSize: 0x88 }
  - { offset: 0xA0112, size: 0x8, addend: 0x0, symName: __RNvMs3_NtCs2iVXuAemrgm_5alloc7raw_vecINtB5_6RawVecNtNtCsgh2hkQkDkI2_8pyo3_ffi12methodobject11PyMethodDefE8grow_oneCs7Qj1RmEtpUo_4pyo3, symObjAddr: 0x1408, symBinAddr: 0x32AA8, symSize: 0x88 }
  - { offset: 0xA01C2, size: 0x8, addend: 0x0, symName: __RNvMs3_NtCs2iVXuAemrgm_5alloc7raw_vecINtB5_6RawVecNtNtCsgh2hkQkDkI2_8pyo3_ffi6object11PyType_SlotE8grow_oneCs7Qj1RmEtpUo_4pyo3, symObjAddr: 0x1490, symBinAddr: 0x32B30, symSize: 0x88 }
  - { offset: 0xA0306, size: 0x8, addend: 0x0, symName: __RNvMs3_NtCs2iVXuAemrgm_5alloc7raw_vecINtB5_6RawVecNtNtNtCs7Qj1RmEtpUo_4pyo37pyclass18create_type_object19GetSetDefDestructorE8grow_oneBS_, symObjAddr: 0x1518, symBinAddr: 0x32BB8, symSize: 0x88 }
  - { offset: 0xA03B6, size: 0x8, addend: 0x0, symName: __RNvMs3_NtCs2iVXuAemrgm_5alloc7raw_vecINtB5_6RawVecNtNtNtCskXqYSXpV4rx_3std6thread2id8ThreadIdE8grow_oneCs7Qj1RmEtpUo_4pyo3, symObjAddr: 0x15A0, symBinAddr: 0x32C40, symSize: 0x84 }
  - { offset: 0xA0484, size: 0x8, addend: 0x0, symName: __RNvMs3_NtCs2iVXuAemrgm_5alloc7raw_vecINtB5_6RawVecTRNtNtNtCs7dfkhshTrE4_4core3ffi5c_str4CStrINtNtCs7Qj1RmEtpUo_4pyo38instance2PyNtNtNtB1x_5types3any5PyAnyEEE8grow_oneB1x_, symObjAddr: 0x1624, symBinAddr: 0x32CC4, symSize: 0x88 }
  - { offset: 0xA05A8, size: 0x8, addend: 0x0, symName: __RNvMs_NtNtCskXqYSXpV4rx_3std6thread6threadNtB4_6Thread2idCs7Qj1RmEtpUo_4pyo3, symObjAddr: 0x1890, symBinAddr: 0x32D4C, symSize: 0x1C }
  - { offset: 0xA0936, size: 0x8, addend: 0x0, symName: __RINvNtCs7dfkhshTrE4_4core3ptr13drop_in_placeAINtNtCs7Qj1RmEtpUo_4pyo38instance2PyNtNtNtBM_5types3any5PyAnyEj1_EBM_, symObjAddr: 0x0, symBinAddr: 0x33428, symSize: 0xA4 }
  - { offset: 0xA1070, size: 0x8, addend: 0x0, symName: __RNvXs1_NtNtCs7Qj1RmEtpUo_4pyo35types3numNtB5_6PyLongNtNtB9_11type_object10PyTypeInfo16is_type_of_boundB9_, symObjAddr: 0x5E90, symBinAddr: 0x36A6C, symSize: 0x30 }
  - { offset: 0xA11DD, size: 0x8, addend: 0x0, symName: __RINvNtNtCs7Qj1RmEtpUo_4pyo35impl_10trampoline10trampolineNCNvNtB4_9pymethods11__call_clear0lEB6_, symObjAddr: 0x2D1C, symBinAddr: 0x35164, symSize: 0x15C }
  - { offset: 0xA1280, size: 0x8, addend: 0x0, symName: __RINvNtNtCs7Qj1RmEtpUo_4pyo35impl_10trampoline10trampolineNCNvNtNtB6_7pyclass18create_type_object22no_constructor_defined0ONtNtCsgh2hkQkDkI2_8pyo3_ffi6object8PyObjectEB6_, symObjAddr: 0x2E78, symBinAddr: 0x352C0, symSize: 0x14C }
  - { offset: 0xA1322, size: 0x8, addend: 0x0, symName: __RINvNtNtCs7Qj1RmEtpUo_4pyo35impl_10trampoline10trampolineNCNvNvMs0_NtNtB6_7pyclass18create_type_objectNtB13_13GetSetDefType21create_py_get_set_def13getset_getter0ONtNtCsgh2hkQkDkI2_8pyo3_ffi6object8PyObjectEB6_, symObjAddr: 0x2FC4, symBinAddr: 0x3540C, symSize: 0x158 }
  - { offset: 0xA13C5, size: 0x8, addend: 0x0, symName: __RINvNtNtCs7Qj1RmEtpUo_4pyo35impl_10trampoline10trampolineNCNvNvMs0_NtNtB6_7pyclass18create_type_objectNtB13_13GetSetDefType21create_py_get_set_def13getset_setter0lEB6_, symObjAddr: 0x311C, symBinAddr: 0x35564, symSize: 0x15C }
  - { offset: 0xA1468, size: 0x8, addend: 0x0, symName: __RINvNtNtCs7Qj1RmEtpUo_4pyo35impl_10trampoline10trampolineNCNvNvMs0_NtNtB6_7pyclass18create_type_objectNtB13_13GetSetDefType21create_py_get_set_def6getter0ONtNtCsgh2hkQkDkI2_8pyo3_ffi6object8PyObjectEB6_, symObjAddr: 0x3278, symBinAddr: 0x356C0, symSize: 0x158 }
  - { offset: 0xA150B, size: 0x8, addend: 0x0, symName: __RINvNtNtCs7Qj1RmEtpUo_4pyo35impl_10trampoline10trampolineNCNvNvMs0_NtNtB6_7pyclass18create_type_objectNtB13_13GetSetDefType21create_py_get_set_def6setter0lEB6_, symObjAddr: 0x33D0, symBinAddr: 0x35818, symSize: 0x15C }
  - { offset: 0xA15AE, size: 0x8, addend: 0x0, symName: __RINvNtNtCs7Qj1RmEtpUo_4pyo35impl_10trampoline33panic_result_into_callback_outputONtNtCsgh2hkQkDkI2_8pyo3_ffi6object8PyObjectEB6_, symObjAddr: 0x352C, symBinAddr: 0x35974, symSize: 0xF8 }
  - { offset: 0xA1671, size: 0x8, addend: 0x0, symName: __RINvNtNtCs7Qj1RmEtpUo_4pyo35impl_10trampoline33panic_result_into_callback_outputlEB6_, symObjAddr: 0x3624, symBinAddr: 0x35A6C, symSize: 0x104 }
  - { offset: 0xA1739, size: 0x8, addend: 0x0, symName: __RNCINvNtNtCs7Qj1RmEtpUo_4pyo35impl_10trampoline10trampolineNCNvNtB6_9pymethods11__call_clear0lE0B8_, symObjAddr: 0x3864, symBinAddr: 0x35C54, symSize: 0x34 }
  - { offset: 0xA1788, size: 0x8, addend: 0x0, symName: __RNCINvNtNtCs7Qj1RmEtpUo_4pyo35impl_10trampoline10trampolineNCNvNtNtB8_7pyclass18create_type_object22no_constructor_defined0ONtNtCsgh2hkQkDkI2_8pyo3_ffi6object8PyObjectE0B8_, symObjAddr: 0x3898, symBinAddr: 0x35C88, symSize: 0x24 }
  - { offset: 0xA17D6, size: 0x8, addend: 0x0, symName: __RNCINvNtNtCs7Qj1RmEtpUo_4pyo35impl_10trampoline10trampolineNCNvNvMs0_NtNtB8_7pyclass18create_type_objectNtB15_13GetSetDefType21create_py_get_set_def13getset_getter0ONtNtCsgh2hkQkDkI2_8pyo3_ffi6object8PyObjectE0B8_, symObjAddr: 0x38BC, symBinAddr: 0x35CAC, symSize: 0x2C }
  - { offset: 0xA1824, size: 0x8, addend: 0x0, symName: __RNCINvNtNtCs7Qj1RmEtpUo_4pyo35impl_10trampoline10trampolineNCNvNvMs0_NtNtB8_7pyclass18create_type_objectNtB15_13GetSetDefType21create_py_get_set_def13getset_setter0lE0B8_, symObjAddr: 0x38E8, symBinAddr: 0x35CD8, symSize: 0x34 }
  - { offset: 0xA1873, size: 0x8, addend: 0x0, symName: __RNCINvNtNtCs7Qj1RmEtpUo_4pyo35impl_10trampoline10trampolineNCNvNvMs0_NtNtB8_7pyclass18create_type_objectNtB15_13GetSetDefType21create_py_get_set_def6getter0ONtNtCsgh2hkQkDkI2_8pyo3_ffi6object8PyObjectE0B8_, symObjAddr: 0x391C, symBinAddr: 0x35D0C, symSize: 0x2C }
  - { offset: 0xA18C1, size: 0x8, addend: 0x0, symName: __RNCINvNtNtCs7Qj1RmEtpUo_4pyo35impl_10trampoline10trampolineNCNvNvMs0_NtNtB8_7pyclass18create_type_objectNtB15_13GetSetDefType21create_py_get_set_def6setter0lE0B8_, symObjAddr: 0x3948, symBinAddr: 0x35D38, symSize: 0x34 }
  - { offset: 0xA1E1E, size: 0x8, addend: 0x0, symName: __RNvXNtCs7Qj1RmEtpUo_4pyo311ffi_ptr_extONtNtCsgh2hkQkDkI2_8pyo3_ffi6object8PyObjectNtB2_9FfiPtrExt12assume_ownedB4_, symObjAddr: 0x5428, symBinAddr: 0x36704, symSize: 0x24 }
  - { offset: 0xA1E63, size: 0x8, addend: 0x0, symName: __RNvXNtCs7Qj1RmEtpUo_4pyo311ffi_ptr_extONtNtCsgh2hkQkDkI2_8pyo3_ffi6object8PyObjectNtB2_9FfiPtrExt15assume_borrowedB4_, symObjAddr: 0x544C, symBinAddr: 0x36728, symSize: 0x24 }
  - { offset: 0xA1EA8, size: 0x8, addend: 0x0, symName: __RNvXNtCs7Qj1RmEtpUo_4pyo311ffi_ptr_extONtNtCsgh2hkQkDkI2_8pyo3_ffi6object8PyObjectNtB2_9FfiPtrExt19assume_owned_or_errB4_, symObjAddr: 0x5470, symBinAddr: 0x3674C, symSize: 0x24 }
  - { offset: 0xA1EED, size: 0x8, addend: 0x0, symName: __RNvXNtCs7Qj1RmEtpUo_4pyo311ffi_ptr_extONtNtCsgh2hkQkDkI2_8pyo3_ffi6object8PyObjectNtB2_9FfiPtrExt19assume_owned_or_optB4_, symObjAddr: 0x5494, symBinAddr: 0x36770, symSize: 0x24 }
  - { offset: 0xA1F32, size: 0x8, addend: 0x0, symName: __RNvXNtCs7Qj1RmEtpUo_4pyo311ffi_ptr_extONtNtCsgh2hkQkDkI2_8pyo3_ffi6object8PyObjectNtB2_9FfiPtrExt22assume_borrowed_or_errB4_, symObjAddr: 0x54B8, symBinAddr: 0x36794, symSize: 0x24 }
  - { offset: 0xA1F77, size: 0x8, addend: 0x0, symName: __RNvXNtCs7Qj1RmEtpUo_4pyo311ffi_ptr_extONtNtCsgh2hkQkDkI2_8pyo3_ffi6object8PyObjectNtB2_9FfiPtrExt25assume_borrowed_uncheckedB4_, symObjAddr: 0x54DC, symBinAddr: 0x367B8, symSize: 0x24 }
  - { offset: 0xA1FC8, size: 0x8, addend: 0x0, symName: __RNvXNtCs7Qj1RmEtpUo_4pyo311type_objectNtNtNtB4_5types3num6PyLongNtB2_11PyTypeCheck10type_checkB4_, symObjAddr: 0x5500, symBinAddr: 0x367DC, symSize: 0x24 }
  - { offset: 0xA3388, size: 0x8, addend: 0x0, symName: __RINvNtCs7dfkhshTrE4_4core3ptr13drop_in_placeAINtNtCs7Qj1RmEtpUo_4pyo38instance2PyNtNtNtBM_5types3any5PyAnyEj1_EBM_, symObjAddr: 0x0, symBinAddr: 0x33428, symSize: 0xA4 }
  - { offset: 0xA33B7, size: 0x8, addend: 0x0, symName: __RINvNtCs7dfkhshTrE4_4core3ptr13drop_in_placeINtNtB4_3pin3PinINtNtCs2iVXuAemrgm_5alloc5boxed3BoxNtNtNtNtNtNtCskXqYSXpV4rx_3std3sys3pal4unix4sync5mutex5MutexEEECs7Qj1RmEtpUo_4pyo3, symObjAddr: 0x3F8, symBinAddr: 0x334CC, symSize: 0x24 }
  - { offset: 0xA33E6, size: 0x8, addend: 0x0, symName: __RINvNtCs7dfkhshTrE4_4core3ptr13drop_in_placeINtNtB4_4cell10UnsafeCellINtNtB4_6option6OptionNtNtNtCs7Qj1RmEtpUo_4pyo33err9err_state10PyErrStateEEEB1x_, symObjAddr: 0x4AC, symBinAddr: 0x334F0, symSize: 0x24 }
  - { offset: 0xA3415, size: 0x8, addend: 0x0, symName: __RINvNtCs7dfkhshTrE4_4core3ptr13drop_in_placeINtNtB4_4cell10UnsafeCellINtNtCs2iVXuAemrgm_5alloc3vec3VecINtNtB2_8non_null7NonNullNtNtCsgh2hkQkDkI2_8pyo3_ffi6object8PyObjectEEEECs7Qj1RmEtpUo_4pyo3, symObjAddr: 0x4D0, symBinAddr: 0x33514, symSize: 0x24 }
  - { offset: 0xA3444, size: 0x8, addend: 0x0, symName: __RINvNtCs7dfkhshTrE4_4core3ptr13drop_in_placeINtNtB4_4cell6RefMutINtNtCs2iVXuAemrgm_5alloc3vec3VecNtNtNtCskXqYSXpV4rx_3std6thread2id8ThreadIdEEECs7Qj1RmEtpUo_4pyo3, symObjAddr: 0x4F4, symBinAddr: 0x33538, symSize: 0x24 }
  - { offset: 0xA3473, size: 0x8, addend: 0x0, symName: __RINvNtCs7dfkhshTrE4_4core3ptr13drop_in_placeINtNtB4_6option6OptionINtNtB4_3pin3PinINtNtCs2iVXuAemrgm_5alloc5boxed3BoxNtNtNtNtNtNtCskXqYSXpV4rx_3std3sys3pal4unix4sync5mutex5MutexEEEECs7Qj1RmEtpUo_4pyo3, symObjAddr: 0x518, symBinAddr: 0x3355C, symSize: 0x44 }
  - { offset: 0xA34A2, size: 0x8, addend: 0x0, symName: __RINvNtCs7dfkhshTrE4_4core3ptr13drop_in_placeINtNtB4_6option6OptionINtNtCs7Qj1RmEtpUo_4pyo38instance2PyNtNtB17_10exceptions15PyBaseExceptionEEEB17_, symObjAddr: 0x55C, symBinAddr: 0x335A0, symSize: 0x44 }
  - { offset: 0xA34D1, size: 0x8, addend: 0x0, symName: __RINvNtCs7dfkhshTrE4_4core3ptr13drop_in_placeINtNtB4_6option6OptionINtNtCs7Qj1RmEtpUo_4pyo38instance2PyNtNtNtB17_5types10typeobject6PyTypeEEEB17_, symObjAddr: 0x5A0, symBinAddr: 0x335E4, symSize: 0x44 }
  - { offset: 0xA3500, size: 0x8, addend: 0x0, symName: __RINvNtCs7dfkhshTrE4_4core3ptr13drop_in_placeINtNtB4_6option6OptionINtNtCs7Qj1RmEtpUo_4pyo38instance2PyNtNtNtB17_5types3any5PyAnyEEEB17_, symObjAddr: 0x5E4, symBinAddr: 0x33628, symSize: 0x44 }
  - { offset: 0xA352F, size: 0x8, addend: 0x0, symName: __RINvNtCs7dfkhshTrE4_4core3ptr13drop_in_placeINtNtB4_6option6OptionINtNtCs7Qj1RmEtpUo_4pyo38instance2PyNtNtNtB17_5types6module8PyModuleEEEB17_, symObjAddr: 0x628, symBinAddr: 0x3366C, symSize: 0x44 }
  - { offset: 0xA355E, size: 0x8, addend: 0x0, symName: __RINvNtCs7dfkhshTrE4_4core3ptr13drop_in_placeINtNtB4_6option6OptionINtNtCs7Qj1RmEtpUo_4pyo38instance2PyNtNtNtB17_5types6string8PyStringEEEB17_, symObjAddr: 0x66C, symBinAddr: 0x336B0, symSize: 0x44 }
  - { offset: 0xA358D, size: 0x8, addend: 0x0, symName: __RINvNtCs7dfkhshTrE4_4core3ptr13drop_in_placeINtNtB4_6option6OptionINtNtCs7Qj1RmEtpUo_4pyo38instance5BoundNtNtNtB17_5types9traceback11PyTracebackEEEB17_, symObjAddr: 0x6B0, symBinAddr: 0x336F4, symSize: 0x44 }
  - { offset: 0xA35BC, size: 0x8, addend: 0x0, symName: __RINvNtCs7dfkhshTrE4_4core3ptr13drop_in_placeINtNtB4_6option6OptionNtNtCs7Qj1RmEtpUo_4pyo33err5PyErrEEB16_, symObjAddr: 0x6F4, symBinAddr: 0x33738, symSize: 0x40 }
  - { offset: 0xA35EB, size: 0x8, addend: 0x0, symName: __RINvNtCs7dfkhshTrE4_4core3ptr13drop_in_placeINtNtB4_6option6OptionNtNtCs7Qj1RmEtpUo_4pyo33gil13ReferencePoolEEB16_, symObjAddr: 0x734, symBinAddr: 0x33778, symSize: 0x40 }
  - { offset: 0xA361A, size: 0x8, addend: 0x0, symName: __RINvNtCs7dfkhshTrE4_4core3ptr13drop_in_placeINtNtB4_6option6OptionNtNtNtCs2iVXuAemrgm_5alloc3ffi5c_str7CStringEECs7Qj1RmEtpUo_4pyo3, symObjAddr: 0x774, symBinAddr: 0x337B8, symSize: 0x44 }
  - { offset: 0xA3649, size: 0x8, addend: 0x0, symName: __RINvNtCs7dfkhshTrE4_4core3ptr13drop_in_placeINtNtB4_6option6OptionNtNtNtCs7Qj1RmEtpUo_4pyo33err9err_state10PyErrStateEEB18_, symObjAddr: 0x7B8, symBinAddr: 0x337FC, symSize: 0x40 }
  - { offset: 0xA3678, size: 0x8, addend: 0x0, symName: __RINvNtCs7dfkhshTrE4_4core3ptr13drop_in_placeINtNtB4_6option6OptionNtNtNtCs7Qj1RmEtpUo_4pyo37pyclass18create_type_object17PyClassTypeObjectEEB18_, symObjAddr: 0x7F8, symBinAddr: 0x3383C, symSize: 0x48 }
  - { offset: 0xA36A7, size: 0x8, addend: 0x0, symName: __RINvNtCs7dfkhshTrE4_4core3ptr13drop_in_placeINtNtB4_6result6ResultINtNtCs2iVXuAemrgm_5alloc6borrow3CoweENtNtCs7Qj1RmEtpUo_4pyo33err5PyErrEEB1I_, symObjAddr: 0x8C0, symBinAddr: 0x33884, symSize: 0x50 }
  - { offset: 0xA36D6, size: 0x8, addend: 0x0, symName: __RINvNtCs7dfkhshTrE4_4core3ptr13drop_in_placeINtNtB4_6result6ResultINtNtCs7Qj1RmEtpUo_4pyo38instance5BoundNtNtNtB17_5types6string8PyStringENtNtB17_3err5PyErrEEB17_, symObjAddr: 0x960, symBinAddr: 0x338D4, symSize: 0x50 }
  - { offset: 0xA3705, size: 0x8, addend: 0x0, symName: __RINvNtCs7dfkhshTrE4_4core3ptr13drop_in_placeINtNtB4_6result6ResultRINtNtCs7Qj1RmEtpUo_4pyo38instance5BoundNtNtNtB18_5types3num6PyLongENtNtB18_3err13DowncastErrorEEB18_, symObjAddr: 0x9F8, symBinAddr: 0x33924, symSize: 0x48 }
  - { offset: 0xA3734, size: 0x8, addend: 0x0, symName: __RINvNtCs7dfkhshTrE4_4core3ptr13drop_in_placeINtNtB4_6result6ResultReNtNtCs7Qj1RmEtpUo_4pyo33err5PyErrEEB18_, symObjAddr: 0xAD0, symBinAddr: 0x3396C, symSize: 0x40 }
  - { offset: 0xA3763, size: 0x8, addend: 0x0, symName: __RINvNtCs7dfkhshTrE4_4core3ptr13drop_in_placeINtNtB4_6result6ResultuINtNtCs7Qj1RmEtpUo_4pyo38instance2PyNtNtNtB18_5types10typeobject6PyTypeEEEB18_, symObjAddr: 0xB10, symBinAddr: 0x339AC, symSize: 0x44 }
  - { offset: 0xA3792, size: 0x8, addend: 0x0, symName: __RINvNtCs7dfkhshTrE4_4core3ptr13drop_in_placeINtNtB4_6result6ResultuINtNtCs7Qj1RmEtpUo_4pyo38instance2PyNtNtNtB18_5types6module8PyModuleEEEB18_, symObjAddr: 0xB98, symBinAddr: 0x339F0, symSize: 0x44 }
  - { offset: 0xA37C1, size: 0x8, addend: 0x0, symName: __RINvNtCs7dfkhshTrE4_4core3ptr13drop_in_placeINtNtB4_6result6ResultuINtNtCs7Qj1RmEtpUo_4pyo38instance2PyNtNtNtB18_5types6string8PyStringEEEB18_, symObjAddr: 0xBDC, symBinAddr: 0x33A34, symSize: 0x44 }
  - { offset: 0xA37F0, size: 0x8, addend: 0x0, symName: __RINvNtCs7dfkhshTrE4_4core3ptr13drop_in_placeINtNtB4_6result6ResultuNtNtCs7Qj1RmEtpUo_4pyo33err5PyErrEEB17_, symObjAddr: 0xC20, symBinAddr: 0x33A78, symSize: 0x40 }
  - { offset: 0xA381F, size: 0x8, addend: 0x0, symName: __RINvNtCs7dfkhshTrE4_4core3ptr13drop_in_placeINtNtB4_6result6ResultuNtNtNtCs7Qj1RmEtpUo_4pyo37pyclass18create_type_object17PyClassTypeObjectEEB19_, symObjAddr: 0xC60, symBinAddr: 0x33AB8, symSize: 0x48 }
  - { offset: 0xA384E, size: 0x8, addend: 0x0, symName: __RINvNtCs7dfkhshTrE4_4core3ptr13drop_in_placeINtNtCs2iVXuAemrgm_5alloc3vec3VecINtNtB2_8non_null7NonNullNtNtCsgh2hkQkDkI2_8pyo3_ffi6object8PyObjectEEECs7Qj1RmEtpUo_4pyo3, symObjAddr: 0xCA8, symBinAddr: 0x33B00, symSize: 0x5C }
  - { offset: 0xA387D, size: 0x8, addend: 0x0, symName: __RINvNtCs7dfkhshTrE4_4core3ptr13drop_in_placeINtNtCs2iVXuAemrgm_5alloc3vec3VecINtNtBL_5boxed3BoxDG_INtNtNtB4_3ops8function2FnTRL0_NtNtNtCs7Qj1RmEtpUo_4pyo37pyclass18create_type_object13PyTypeBuilderONtNtCsgh2hkQkDkI2_8pyo3_ffi6object12PyTypeObjectEEp6OutputuEL_EEEB29_, symObjAddr: 0xD04, symBinAddr: 0x33B5C, symSize: 0x5C }
  - { offset: 0xA38AC, size: 0x8, addend: 0x0, symName: __RINvNtCs7dfkhshTrE4_4core3ptr13drop_in_placeINtNtCs2iVXuAemrgm_5alloc3vec3VecNtNtCsgh2hkQkDkI2_8pyo3_ffi11descrobject11PyGetSetDefEECs7Qj1RmEtpUo_4pyo3, symObjAddr: 0xD60, symBinAddr: 0x33BB8, symSize: 0x5C }
  - { offset: 0xA38DB, size: 0x8, addend: 0x0, symName: __RINvNtCs7dfkhshTrE4_4core3ptr13drop_in_placeINtNtCs2iVXuAemrgm_5alloc3vec3VecNtNtCsgh2hkQkDkI2_8pyo3_ffi11descrobject11PyMemberDefEECs7Qj1RmEtpUo_4pyo3, symObjAddr: 0xDBC, symBinAddr: 0x33C14, symSize: 0x5C }
  - { offset: 0xA390A, size: 0x8, addend: 0x0, symName: __RINvNtCs7dfkhshTrE4_4core3ptr13drop_in_placeINtNtCs2iVXuAemrgm_5alloc3vec3VecNtNtCsgh2hkQkDkI2_8pyo3_ffi12methodobject11PyMethodDefEECs7Qj1RmEtpUo_4pyo3, symObjAddr: 0xE18, symBinAddr: 0x33C70, symSize: 0x5C }
  - { offset: 0xA3939, size: 0x8, addend: 0x0, symName: __RINvNtCs7dfkhshTrE4_4core3ptr13drop_in_placeINtNtCs2iVXuAemrgm_5alloc3vec3VecNtNtCsgh2hkQkDkI2_8pyo3_ffi6object11PyType_SlotEECs7Qj1RmEtpUo_4pyo3, symObjAddr: 0xE74, symBinAddr: 0x33CCC, symSize: 0x5C }
  - { offset: 0xA3968, size: 0x8, addend: 0x0, symName: __RINvNtCs7dfkhshTrE4_4core3ptr13drop_in_placeINtNtCs2iVXuAemrgm_5alloc3vec3VecNtNtNtCs7Qj1RmEtpUo_4pyo37pyclass18create_type_object19GetSetDefDestructorEEB1j_, symObjAddr: 0xED0, symBinAddr: 0x33D28, symSize: 0x5C }
  - { offset: 0xA3997, size: 0x8, addend: 0x0, symName: __RINvNtCs7dfkhshTrE4_4core3ptr13drop_in_placeINtNtCs2iVXuAemrgm_5alloc3vec3VecNtNtNtCskXqYSXpV4rx_3std6thread2id8ThreadIdEECs7Qj1RmEtpUo_4pyo3, symObjAddr: 0xF2C, symBinAddr: 0x33D84, symSize: 0x5C }
  - { offset: 0xA39C6, size: 0x8, addend: 0x0, symName: __RINvNtCs7dfkhshTrE4_4core3ptr13drop_in_placeINtNtCs2iVXuAemrgm_5alloc3vec3VecReEECs7Qj1RmEtpUo_4pyo3, symObjAddr: 0xF88, symBinAddr: 0x33DE0, symSize: 0x5C }
  - { offset: 0xA39F5, size: 0x8, addend: 0x0, symName: __RINvNtCs7dfkhshTrE4_4core3ptr13drop_in_placeINtNtCs2iVXuAemrgm_5alloc3vec3VecTRNtNtNtB4_3ffi5c_str4CStrINtNtCs7Qj1RmEtpUo_4pyo38instance2PyNtNtNtB1I_5types3any5PyAnyEEEEB1I_, symObjAddr: 0xFE4, symBinAddr: 0x33E3C, symSize: 0x5C }
  - { offset: 0xA3A24, size: 0x8, addend: 0x0, symName: __RINvNtCs7dfkhshTrE4_4core3ptr13drop_in_placeINtNtCs2iVXuAemrgm_5alloc5boxed3BoxDG_INtNtNtB4_3ops8function2FnTRL0_NtNtNtCs7Qj1RmEtpUo_4pyo37pyclass18create_type_object13PyTypeBuilderONtNtCsgh2hkQkDkI2_8pyo3_ffi6object12PyTypeObjectEEp6OutputuEL_EEB1T_, symObjAddr: 0x10E4, symBinAddr: 0x33E98, symSize: 0x80 }
  - { offset: 0xA3A53, size: 0x8, addend: 0x0, symName: __RINvNtCs7dfkhshTrE4_4core3ptr13drop_in_placeINtNtCs2iVXuAemrgm_5alloc5boxed3BoxDG_INtNtNtB4_3ops8function6FnOnceTINtNtCs7Qj1RmEtpUo_4pyo36marker6PythonL0_EEEp6OutputNtNtNtB1S_3err9err_state22PyErrStateLazyFnOutputNtNtB4_6marker4SendNtB3r_4SyncEL_EEB1S_, symObjAddr: 0x1164, symBinAddr: 0x33F18, symSize: 0x80 }
  - { offset: 0xA3A82, size: 0x8, addend: 0x0, symName: __RINvNtCs7dfkhshTrE4_4core3ptr13drop_in_placeINtNtCs2iVXuAemrgm_5alloc5boxed3BoxDNtNtB4_3any3AnyNtNtB4_6marker4SendEL_EECs7Qj1RmEtpUo_4pyo3, symObjAddr: 0x11E4, symBinAddr: 0x33F98, symSize: 0x80 }
  - { offset: 0xA3AB1, size: 0x8, addend: 0x0, symName: __RINvNtCs7dfkhshTrE4_4core3ptr13drop_in_placeINtNtCs2iVXuAemrgm_5alloc5boxed3BoxNtNtNtCs7Qj1RmEtpUo_4pyo37pyclass18create_type_object15GetterAndSetterEEB1l_, symObjAddr: 0x1364, symBinAddr: 0x34018, symSize: 0x2C }
  - { offset: 0xA3AE0, size: 0x8, addend: 0x0, symName: __RINvNtCs7dfkhshTrE4_4core3ptr13drop_in_placeINtNtCs2iVXuAemrgm_5alloc5boxed3BoxNtNtNtNtNtNtCskXqYSXpV4rx_3std3sys3pal4unix4sync5mutex5MutexEECs7Qj1RmEtpUo_4pyo3, symObjAddr: 0x13F0, symBinAddr: 0x34044, symSize: 0x60 }
  - { offset: 0xA3B0F, size: 0x8, addend: 0x0, symName: __RINvNtCs7dfkhshTrE4_4core3ptr13drop_in_placeINtNtCs2iVXuAemrgm_5alloc5boxed3BoxShEECs7Qj1RmEtpUo_4pyo3, symObjAddr: 0x1450, symBinAddr: 0x340A4, symSize: 0x2C }
  - { offset: 0xA3B3E, size: 0x8, addend: 0x0, symName: __RINvNtCs7dfkhshTrE4_4core3ptr13drop_in_placeINtNtCs2iVXuAemrgm_5alloc6borrow3CoweEECs7Qj1RmEtpUo_4pyo3, symObjAddr: 0x14C4, symBinAddr: 0x340D0, symSize: 0x48 }
  - { offset: 0xA3B6D, size: 0x8, addend: 0x0, symName: __RINvNtCs7dfkhshTrE4_4core3ptr13drop_in_placeINtNtCs2iVXuAemrgm_5alloc7raw_vec6RawVecINtNtB2_8non_null7NonNullNtNtCsgh2hkQkDkI2_8pyo3_ffi6object8PyObjectEEECs7Qj1RmEtpUo_4pyo3, symObjAddr: 0x150C, symBinAddr: 0x34118, symSize: 0x24 }
  - { offset: 0xA3B9C, size: 0x8, addend: 0x0, symName: __RINvNtCs7dfkhshTrE4_4core3ptr13drop_in_placeINtNtCs2iVXuAemrgm_5alloc7raw_vec6RawVecINtNtBL_5boxed3BoxDG_INtNtNtB4_3ops8function2FnTRL0_NtNtNtCs7Qj1RmEtpUo_4pyo37pyclass18create_type_object13PyTypeBuilderONtNtCsgh2hkQkDkI2_8pyo3_ffi6object12PyTypeObjectEEp6OutputuEL_EEEB2g_, symObjAddr: 0x1530, symBinAddr: 0x3413C, symSize: 0x24 }
  - { offset: 0xA3BCB, size: 0x8, addend: 0x0, symName: __RINvNtCs7dfkhshTrE4_4core3ptr13drop_in_placeINtNtCs2iVXuAemrgm_5alloc7raw_vec6RawVecNtNtCsgh2hkQkDkI2_8pyo3_ffi11descrobject11PyGetSetDefEECs7Qj1RmEtpUo_4pyo3, symObjAddr: 0x1554, symBinAddr: 0x34160, symSize: 0x24 }
  - { offset: 0xA3BFA, size: 0x8, addend: 0x0, symName: __RINvNtCs7dfkhshTrE4_4core3ptr13drop_in_placeINtNtCs2iVXuAemrgm_5alloc7raw_vec6RawVecNtNtCsgh2hkQkDkI2_8pyo3_ffi11descrobject11PyMemberDefEECs7Qj1RmEtpUo_4pyo3, symObjAddr: 0x1578, symBinAddr: 0x34184, symSize: 0x24 }
  - { offset: 0xA3C29, size: 0x8, addend: 0x0, symName: __RINvNtCs7dfkhshTrE4_4core3ptr13drop_in_placeINtNtCs2iVXuAemrgm_5alloc7raw_vec6RawVecNtNtCsgh2hkQkDkI2_8pyo3_ffi12methodobject11PyMethodDefEECs7Qj1RmEtpUo_4pyo3, symObjAddr: 0x159C, symBinAddr: 0x341A8, symSize: 0x24 }
  - { offset: 0xA3C58, size: 0x8, addend: 0x0, symName: __RINvNtCs7dfkhshTrE4_4core3ptr13drop_in_placeINtNtCs2iVXuAemrgm_5alloc7raw_vec6RawVecNtNtCsgh2hkQkDkI2_8pyo3_ffi6object11PyType_SlotEECs7Qj1RmEtpUo_4pyo3, symObjAddr: 0x15C0, symBinAddr: 0x341CC, symSize: 0x24 }
  - { offset: 0xA3C87, size: 0x8, addend: 0x0, symName: __RINvNtCs7dfkhshTrE4_4core3ptr13drop_in_placeINtNtCs2iVXuAemrgm_5alloc7raw_vec6RawVecNtNtNtCs7Qj1RmEtpUo_4pyo37pyclass18create_type_object19GetSetDefDestructorEEB1q_, symObjAddr: 0x15E4, symBinAddr: 0x341F0, symSize: 0x24 }
  - { offset: 0xA3CB6, size: 0x8, addend: 0x0, symName: __RINvNtCs7dfkhshTrE4_4core3ptr13drop_in_placeINtNtCs2iVXuAemrgm_5alloc7raw_vec6RawVecNtNtNtCskXqYSXpV4rx_3std6thread2id8ThreadIdEECs7Qj1RmEtpUo_4pyo3, symObjAddr: 0x1608, symBinAddr: 0x34214, symSize: 0x24 }
  - { offset: 0xA3CE5, size: 0x8, addend: 0x0, symName: __RINvNtCs7dfkhshTrE4_4core3ptr13drop_in_placeINtNtCs2iVXuAemrgm_5alloc7raw_vec6RawVecReEECs7Qj1RmEtpUo_4pyo3, symObjAddr: 0x162C, symBinAddr: 0x34238, symSize: 0x24 }
  - { offset: 0xA3D14, size: 0x8, addend: 0x0, symName: __RINvNtCs7dfkhshTrE4_4core3ptr13drop_in_placeINtNtCs2iVXuAemrgm_5alloc7raw_vec6RawVecTRNtNtNtB4_3ffi5c_str4CStrINtNtCs7Qj1RmEtpUo_4pyo38instance2PyNtNtNtB1P_5types3any5PyAnyEEEEB1P_, symObjAddr: 0x1650, symBinAddr: 0x3425C, symSize: 0x24 }
  - { offset: 0xA3D43, size: 0x8, addend: 0x0, symName: __RINvNtCs7dfkhshTrE4_4core3ptr13drop_in_placeINtNtCs7Qj1RmEtpUo_4pyo38instance2PyNtNtBL_10exceptions15PyBaseExceptionEEBL_, symObjAddr: 0x1704, symBinAddr: 0x34280, symSize: 0x2C }
  - { offset: 0xA3D72, size: 0x8, addend: 0x0, symName: __RINvNtCs7dfkhshTrE4_4core3ptr13drop_in_placeINtNtCs7Qj1RmEtpUo_4pyo38instance2PyNtNtNtBL_5types10typeobject6PyTypeEEBL_, symObjAddr: 0x1730, symBinAddr: 0x342AC, symSize: 0x2C }
  - { offset: 0xA3DA1, size: 0x8, addend: 0x0, symName: __RINvNtCs7dfkhshTrE4_4core3ptr13drop_in_placeINtNtCs7Qj1RmEtpUo_4pyo38instance2PyNtNtNtBL_5types3any5PyAnyEEBL_, symObjAddr: 0x175C, symBinAddr: 0x342D8, symSize: 0x2C }
  - { offset: 0xA3DD0, size: 0x8, addend: 0x0, symName: __RINvNtCs7dfkhshTrE4_4core3ptr13drop_in_placeINtNtCs7Qj1RmEtpUo_4pyo38instance2PyNtNtNtBL_5types5tuple7PyTupleEEBL_, symObjAddr: 0x17B4, symBinAddr: 0x34304, symSize: 0x2C }
  - { offset: 0xA3DFF, size: 0x8, addend: 0x0, symName: __RINvNtCs7dfkhshTrE4_4core3ptr13drop_in_placeINtNtCs7Qj1RmEtpUo_4pyo38instance2PyNtNtNtBL_5types6module8PyModuleEEBL_, symObjAddr: 0x17E0, symBinAddr: 0x34330, symSize: 0x2C }
  - { offset: 0xA3E2E, size: 0x8, addend: 0x0, symName: __RINvNtCs7dfkhshTrE4_4core3ptr13drop_in_placeINtNtCs7Qj1RmEtpUo_4pyo38instance2PyNtNtNtBL_5types6string8PyStringEEBL_, symObjAddr: 0x180C, symBinAddr: 0x3435C, symSize: 0x2C }
  - { offset: 0xA3E5D, size: 0x8, addend: 0x0, symName: __RINvNtCs7dfkhshTrE4_4core3ptr13drop_in_placeINtNtCs7Qj1RmEtpUo_4pyo38instance5BoundNtNtBL_10exceptions15PyBaseExceptionEEBL_, symObjAddr: 0x1838, symBinAddr: 0x34388, symSize: 0x24 }
  - { offset: 0xA3E8C, size: 0x8, addend: 0x0, symName: __RINvNtCs7dfkhshTrE4_4core3ptr13drop_in_placeINtNtCs7Qj1RmEtpUo_4pyo38instance5BoundNtNtNtBL_5types10typeobject6PyTypeEEBL_, symObjAddr: 0x1880, symBinAddr: 0x343AC, symSize: 0x24 }
  - { offset: 0xA3EBB, size: 0x8, addend: 0x0, symName: __RINvNtCs7dfkhshTrE4_4core3ptr13drop_in_placeINtNtCs7Qj1RmEtpUo_4pyo38instance5BoundNtNtNtBL_5types3any5PyAnyEEBL_, symObjAddr: 0x18A4, symBinAddr: 0x343D0, symSize: 0x24 }
  - { offset: 0xA3EEA, size: 0x8, addend: 0x0, symName: __RINvNtCs7dfkhshTrE4_4core3ptr13drop_in_placeINtNtCs7Qj1RmEtpUo_4pyo38instance5BoundNtNtNtBL_5types4list6PyListEEBL_, symObjAddr: 0x1910, symBinAddr: 0x343F4, symSize: 0x24 }
  - { offset: 0xA3F19, size: 0x8, addend: 0x0, symName: __RINvNtCs7dfkhshTrE4_4core3ptr13drop_in_placeINtNtCs7Qj1RmEtpUo_4pyo38instance5BoundNtNtNtBL_5types5bytes7PyBytesEEBL_, symObjAddr: 0x1934, symBinAddr: 0x34418, symSize: 0x24 }
  - { offset: 0xA3F48, size: 0x8, addend: 0x0, symName: __RINvNtCs7dfkhshTrE4_4core3ptr13drop_in_placeINtNtCs7Qj1RmEtpUo_4pyo38instance5BoundNtNtNtBL_5types5float7PyFloatEEBL_, symObjAddr: 0x1958, symBinAddr: 0x3443C, symSize: 0x24 }
  - { offset: 0xA3F77, size: 0x8, addend: 0x0, symName: __RINvNtCs7dfkhshTrE4_4core3ptr13drop_in_placeINtNtCs7Qj1RmEtpUo_4pyo38instance5BoundNtNtNtBL_5types6string8PyStringEEBL_, symObjAddr: 0x19E8, symBinAddr: 0x34460, symSize: 0x24 }
  - { offset: 0xA3FA6, size: 0x8, addend: 0x0, symName: __RINvNtCs7dfkhshTrE4_4core3ptr13drop_in_placeINtNtCs7Qj1RmEtpUo_4pyo38instance5BoundNtNtNtBL_5types8function11PyCFunctionEEBL_, symObjAddr: 0x1A0C, symBinAddr: 0x34484, symSize: 0x24 }
  - { offset: 0xA3FD5, size: 0x8, addend: 0x0, symName: __RINvNtCs7dfkhshTrE4_4core3ptr13drop_in_placeINtNtCs7Qj1RmEtpUo_4pyo38instance5BoundNtNtNtBL_5types9traceback11PyTracebackEEBL_, symObjAddr: 0x1A9C, symBinAddr: 0x344A8, symSize: 0x24 }
  - { offset: 0xA4004, size: 0x8, addend: 0x0, symName: __RINvNtCs7dfkhshTrE4_4core3ptr13drop_in_placeINtNtCsfTBDVhxuWss_9hashbrown10scopeguard10ScopeGuardNtNtBL_3raw13RawTableInnerNCINvMsa_B1z_B1x_14prepare_resizeNtNtCs2iVXuAemrgm_5alloc5alloc6GlobalE0EECs7Qj1RmEtpUo_4pyo3, symObjAddr: 0x1B2C, symBinAddr: 0x344CC, symSize: 0x24 }
  - { offset: 0xA4033, size: 0x8, addend: 0x0, symName: __RINvNtCs7dfkhshTrE4_4core3ptr13drop_in_placeINtNtCsfTBDVhxuWss_9hashbrown10scopeguard10ScopeGuardQNtNtBL_3raw13RawTableInnerNCNvMsa_B1A_B1y_15rehash_in_place0EECs7Qj1RmEtpUo_4pyo3, symObjAddr: 0x1B50, symBinAddr: 0x344F0, symSize: 0x24 }
  - { offset: 0xA4062, size: 0x8, addend: 0x0, symName: __RINvNtCs7dfkhshTrE4_4core3ptr13drop_in_placeINtNtCsfTBDVhxuWss_9hashbrown3map7HashMapRNtNtNtB4_3ffi5c_str4CStrNtNtNtCs7Qj1RmEtpUo_4pyo37pyclass18create_type_object16GetSetDefBuilderNtNtNtCskXqYSXpV4rx_3std4hash6random11RandomStateEEB1Q_, symObjAddr: 0x1B74, symBinAddr: 0x34514, symSize: 0x24 }
  - { offset: 0xA4091, size: 0x8, addend: 0x0, symName: __RINvNtCs7dfkhshTrE4_4core3ptr13drop_in_placeINtNtCsfTBDVhxuWss_9hashbrown3raw8RawTableTRNtNtNtB4_3ffi5c_str4CStrNtNtNtCs7Qj1RmEtpUo_4pyo37pyclass18create_type_object16GetSetDefBuilderEEEB1S_, symObjAddr: 0x1B98, symBinAddr: 0x34538, symSize: 0x24 }
  - { offset: 0xA40C0, size: 0x8, addend: 0x0, symName: __RINvNtCs7dfkhshTrE4_4core3ptr13drop_in_placeINtNtNtB4_5array4iter8IntoIterINtNtCs7Qj1RmEtpUo_4pyo38instance2PyNtNtNtB1f_5types3any5PyAnyEKj1_EEB1f_, symObjAddr: 0x1BBC, symBinAddr: 0x3455C, symSize: 0x24 }
  - { offset: 0xA40EF, size: 0x8, addend: 0x0, symName: __RINvNtCs7dfkhshTrE4_4core3ptr13drop_in_placeINtNtNtCs2iVXuAemrgm_5alloc3vec9into_iter8IntoIterINtNtB2_8non_null7NonNullNtNtCsgh2hkQkDkI2_8pyo3_ffi6object8PyObjectEEECs7Qj1RmEtpUo_4pyo3, symObjAddr: 0x1C4C, symBinAddr: 0x34580, symSize: 0x24 }
  - { offset: 0xA411E, size: 0x8, addend: 0x0, symName: __RINvNtCs7dfkhshTrE4_4core3ptr13drop_in_placeINtNtNtCs2iVXuAemrgm_5alloc3vec9into_iter8IntoIterINtNtBN_5boxed3BoxDG_INtNtNtB4_3ops8function2FnTRL0_NtNtNtCs7Qj1RmEtpUo_4pyo37pyclass18create_type_object13PyTypeBuilderONtNtCsgh2hkQkDkI2_8pyo3_ffi6object12PyTypeObjectEEp6OutputuEL_EEEB2q_, symObjAddr: 0x1C70, symBinAddr: 0x345A4, symSize: 0x24 }
  - { offset: 0xA414D, size: 0x8, addend: 0x0, symName: __RINvNtCs7dfkhshTrE4_4core3ptr13drop_in_placeINtNtNtCs2iVXuAemrgm_5alloc3vec9into_iter8IntoIterTRNtNtNtB4_3ffi5c_str4CStrINtNtCs7Qj1RmEtpUo_4pyo38instance2PyNtNtNtB1Z_5types3any5PyAnyEEEEB1Z_, symObjAddr: 0x1C94, symBinAddr: 0x345C8, symSize: 0x24 }
  - { offset: 0xA417C, size: 0x8, addend: 0x0, symName: __RINvNtCs7dfkhshTrE4_4core3ptr13drop_in_placeINtNtNtCskXqYSXpV4rx_3std4sync6poison11PoisonErrorINtNtBJ_5mutex10MutexGuardINtNtCs2iVXuAemrgm_5alloc3vec3VecINtNtB2_8non_null7NonNullNtNtCsgh2hkQkDkI2_8pyo3_ffi6object8PyObjectEEEEECs7Qj1RmEtpUo_4pyo3, symObjAddr: 0x1D00, symBinAddr: 0x345EC, symSize: 0x24 }
  - { offset: 0xA41AB, size: 0x8, addend: 0x0, symName: __RINvNtCs7dfkhshTrE4_4core3ptr13drop_in_placeINtNtNtNtB4_4iter8adapters9enumerate9EnumerateINtNtNtB4_5array4iter8IntoIterINtNtCs7Qj1RmEtpUo_4pyo38instance2PyNtNtNtB1Z_5types3any5PyAnyEKj1_EEEB1Z_, symObjAddr: 0x1D24, symBinAddr: 0x34610, symSize: 0x24 }
  - { offset: 0xA41DA, size: 0x8, addend: 0x0, symName: __RINvNtCs7dfkhshTrE4_4core3ptr13drop_in_placeINtNtNtNtB4_5array4iter10iter_inner15PolymorphicIterAINtNtNtB4_3mem12maybe_uninit11MaybeUninitINtNtCs7Qj1RmEtpUo_4pyo38instance2PyNtNtNtB2h_5types3any5PyAnyEEj1_EEB2h_, symObjAddr: 0x1DB4, symBinAddr: 0x34634, symSize: 0x24 }
  - { offset: 0xA4209, size: 0x8, addend: 0x0, symName: __RINvNtCs7dfkhshTrE4_4core3ptr13drop_in_placeINtNtNtNtCskXqYSXpV4rx_3std11collections4hash3map7HashMapRNtNtNtB4_3ffi5c_str4CStrNtNtNtCs7Qj1RmEtpUo_4pyo37pyclass18create_type_object16GetSetDefBuilderEEB26_, symObjAddr: 0x1E44, symBinAddr: 0x34658, symSize: 0x24 }
  - { offset: 0xA4238, size: 0x8, addend: 0x0, symName: __RINvNtCs7dfkhshTrE4_4core3ptr13drop_in_placeINtNtNtNtCskXqYSXpV4rx_3std3sys4sync8once_box7OnceBoxNtNtNtNtNtBN_3pal4unix4sync5mutex5MutexEECs7Qj1RmEtpUo_4pyo3, symObjAddr: 0x1E68, symBinAddr: 0x3467C, symSize: 0x24 }
  - { offset: 0xA4267, size: 0x8, addend: 0x0, symName: __RINvNtCs7dfkhshTrE4_4core3ptr13drop_in_placeINtNtNtNtCskXqYSXpV4rx_3std4sync6poison5mutex10MutexGuardINtNtCs2iVXuAemrgm_5alloc3vec3VecINtNtB2_8non_null7NonNullNtNtCsgh2hkQkDkI2_8pyo3_ffi6object8PyObjectEEEECs7Qj1RmEtpUo_4pyo3, symObjAddr: 0x1E8C, symBinAddr: 0x346A0, symSize: 0x24 }
  - { offset: 0xA4296, size: 0x8, addend: 0x0, symName: __RINvNtCs7dfkhshTrE4_4core3ptr13drop_in_placeINtNtNtNtCskXqYSXpV4rx_3std4sync6poison5mutex5MutexINtNtCs2iVXuAemrgm_5alloc3vec3VecINtNtB2_8non_null7NonNullNtNtCsgh2hkQkDkI2_8pyo3_ffi6object8PyObjectEEEECs7Qj1RmEtpUo_4pyo3, symObjAddr: 0x1EB0, symBinAddr: 0x346C4, symSize: 0x60 }
  - { offset: 0xA42C5, size: 0x8, addend: 0x0, symName: __RINvNtCs7dfkhshTrE4_4core3ptr13drop_in_placeINtNvMs_NtCs2iVXuAemrgm_5alloc3vecINtBO_3VecppE10retain_mut10PanicGuardNtNtNtCskXqYSXpV4rx_3std6thread2id8ThreadIdNtNtBQ_5alloc6GlobalEECs7Qj1RmEtpUo_4pyo3, symObjAddr: 0x1F10, symBinAddr: 0x34724, symSize: 0x24 }
  - { offset: 0xA42F4, size: 0x8, addend: 0x0, symName: __RINvNtCs7dfkhshTrE4_4core3ptr13drop_in_placeINtNvXse_NtNtCs2iVXuAemrgm_5alloc3vec9into_iterINtBP_8IntoIterppENtNtNtB4_3ops4drop4Drop4drop9DropGuardINtNtB2_8non_null7NonNullNtNtCsgh2hkQkDkI2_8pyo3_ffi6object8PyObjectENtNtBT_5alloc6GlobalEECs7Qj1RmEtpUo_4pyo3, symObjAddr: 0x1F7C, symBinAddr: 0x34748, symSize: 0x24 }
  - { offset: 0xA4323, size: 0x8, addend: 0x0, symName: __RINvNtCs7dfkhshTrE4_4core3ptr13drop_in_placeINtNvXse_NtNtCs2iVXuAemrgm_5alloc3vec9into_iterINtBP_8IntoIterppENtNtNtB4_3ops4drop4Drop4drop9DropGuardINtNtBT_5boxed3BoxDG_INtNtB1N_8function2FnTRL0_NtNtNtCs7Qj1RmEtpUo_4pyo37pyclass18create_type_object13PyTypeBuilderONtNtCsgh2hkQkDkI2_8pyo3_ffi6object12PyTypeObjectEEp6OutputuEL_ENtNtBT_5alloc6GlobalEEB3c_, symObjAddr: 0x1FA0, symBinAddr: 0x3476C, symSize: 0x24 }
  - { offset: 0xA4352, size: 0x8, addend: 0x0, symName: __RINvNtCs7dfkhshTrE4_4core3ptr13drop_in_placeINtNvXse_NtNtCs2iVXuAemrgm_5alloc3vec9into_iterINtBP_8IntoIterppENtNtNtB4_3ops4drop4Drop4drop9DropGuardTRNtNtNtB4_3ffi5c_str4CStrINtNtCs7Qj1RmEtpUo_4pyo38instance2PyNtNtNtB2Q_5types3any5PyAnyEENtNtBT_5alloc6GlobalEEB2Q_, symObjAddr: 0x1FC4, symBinAddr: 0x34790, symSize: 0x24 }
  - { offset: 0xA4381, size: 0x8, addend: 0x0, symName: __RINvNtCs7dfkhshTrE4_4core3ptr13drop_in_placeNCINvMs0_NtNtCs7Qj1RmEtpUo_4pyo33err9err_stateNtBP_10PyErrState4lazyINtNtBT_8instance2PyNtNtNtBT_5types3any5PyAnyEE0EBT_, symObjAddr: 0x1FE8, symBinAddr: 0x347B4, symSize: 0x60 }
  - { offset: 0xA43B0, size: 0x8, addend: 0x0, symName: __RINvNtCs7dfkhshTrE4_4core3ptr13drop_in_placeNCINvMs2_NtCs7Qj1RmEtpUo_4pyo33errNtBP_5PyErr3newNtNtBR_10exceptions11PyTypeErrorNtBP_24PyDowncastErrorArgumentsE0EBR_, symObjAddr: 0x2048, symBinAddr: 0x34814, symSize: 0x24 }
